
driver.elf:     file format elf32-avr

Sections:
Idx Name          Size      VMA       LMA       File off  Algn
  0 .text         00002d72  00000000  00000000  00000094  2**1
                  CONTENTS, ALLOC, LOAD, READONLY, CODE
  1 .data         00000030  00800060  00002d72  00002e06  2**0
                  CONTENTS, ALLOC, LOAD, DATA
  2 .bss          00000041  00800090  00800090  00002e36  2**0
                  ALLOC
  3 .stab         00002994  00000000  00000000  00002e38  2**2
                  CONTENTS, READONLY, DEBUGGING
  4 .stabstr      0000089b  00000000  00000000  000057cc  2**0
                  CONTENTS, READONLY, DEBUGGING
  5 .debug_aranges 000003c0  00000000  00000000  00006068  2**3
                  CONTENTS, READONLY, DEBUGGING
  6 .debug_info   0000410d  00000000  00000000  00006428  2**0
                  CONTENTS, READONLY, DEBUGGING
  7 .debug_abbrev 000014c5  00000000  00000000  0000a535  2**0
                  CONTENTS, READONLY, DEBUGGING
  8 .debug_line   000019e8  00000000  00000000  0000b9fa  2**0
                  CONTENTS, READONLY, DEBUGGING
  9 .debug_frame  00000c3c  00000000  00000000  0000d3e4  2**2
                  CONTENTS, READONLY, DEBUGGING
 10 .debug_str    0000116f  00000000  00000000  0000e020  2**0
                  CONTENTS, READONLY, DEBUGGING
 11 .debug_loc    000031b4  00000000  00000000  0000f18f  2**0
                  CONTENTS, READONLY, DEBUGGING
 12 .debug_ranges 00000030  00000000  00000000  00012343  2**0
                  CONTENTS, READONLY, DEBUGGING

Disassembly of section .text:

00000000 <__vectors>:
       0:	0c 94 2a 00 	jmp	0x54	; 0x54 <__ctors_end>
       4:	0c 94 47 00 	jmp	0x8e	; 0x8e <__bad_interrupt>
       8:	0c 94 47 00 	jmp	0x8e	; 0x8e <__bad_interrupt>
       c:	0c 94 47 00 	jmp	0x8e	; 0x8e <__bad_interrupt>
      10:	0c 94 c7 0b 	jmp	0x178e	; 0x178e <__vector_4>
      14:	0c 94 16 0e 	jmp	0x1c2c	; 0x1c2c <__vector_5>
      18:	0c 94 47 00 	jmp	0x8e	; 0x8e <__bad_interrupt>
      1c:	0c 94 47 00 	jmp	0x8e	; 0x8e <__bad_interrupt>
      20:	0c 94 47 00 	jmp	0x8e	; 0x8e <__bad_interrupt>
      24:	0c 94 47 00 	jmp	0x8e	; 0x8e <__bad_interrupt>
      28:	0c 94 dc 0a 	jmp	0x15b8	; 0x15b8 <__vector_10>
      2c:	0c 94 03 0b 	jmp	0x1606	; 0x1606 <__vector_11>
      30:	0c 94 47 00 	jmp	0x8e	; 0x8e <__bad_interrupt>
      34:	0c 94 47 00 	jmp	0x8e	; 0x8e <__bad_interrupt>
      38:	0c 94 47 00 	jmp	0x8e	; 0x8e <__bad_interrupt>
      3c:	0c 94 47 00 	jmp	0x8e	; 0x8e <__bad_interrupt>
      40:	0c 94 47 00 	jmp	0x8e	; 0x8e <__bad_interrupt>
      44:	0c 94 47 00 	jmp	0x8e	; 0x8e <__bad_interrupt>
      48:	0c 94 47 00 	jmp	0x8e	; 0x8e <__bad_interrupt>
      4c:	0c 94 47 00 	jmp	0x8e	; 0x8e <__bad_interrupt>
      50:	0c 94 47 00 	jmp	0x8e	; 0x8e <__bad_interrupt>

00000054 <__ctors_end>:
      54:	11 24       	eor	r1, r1
      56:	1f be       	out	0x3f, r1	; 63
      58:	cf e5       	ldi	r28, 0x5F	; 95
      5a:	d8 e0       	ldi	r29, 0x08	; 8
      5c:	de bf       	out	0x3e, r29	; 62
      5e:	cd bf       	out	0x3d, r28	; 61

00000060 <__do_copy_data>:
      60:	10 e0       	ldi	r17, 0x00	; 0
      62:	a0 e6       	ldi	r26, 0x60	; 96
      64:	b0 e0       	ldi	r27, 0x00	; 0
      66:	e2 e7       	ldi	r30, 0x72	; 114
      68:	fd e2       	ldi	r31, 0x2D	; 45
      6a:	02 c0       	rjmp	.+4      	; 0x70 <__do_copy_data+0x10>
      6c:	05 90       	lpm	r0, Z+
      6e:	0d 92       	st	X+, r0
      70:	a0 39       	cpi	r26, 0x90	; 144
      72:	b1 07       	cpc	r27, r17
      74:	d9 f7       	brne	.-10     	; 0x6c <__do_copy_data+0xc>

00000076 <__do_clear_bss>:
      76:	10 e0       	ldi	r17, 0x00	; 0
      78:	a0 e9       	ldi	r26, 0x90	; 144
      7a:	b0 e0       	ldi	r27, 0x00	; 0
      7c:	01 c0       	rjmp	.+2      	; 0x80 <.do_clear_bss_start>

0000007e <.do_clear_bss_loop>:
      7e:	1d 92       	st	X+, r1

00000080 <.do_clear_bss_start>:
      80:	a1 3d       	cpi	r26, 0xD1	; 209
      82:	b1 07       	cpc	r27, r17
      84:	e1 f7       	brne	.-8      	; 0x7e <.do_clear_bss_loop>
      86:	0e 94 6a 00 	call	0xd4	; 0xd4 <main>
      8a:	0c 94 b7 16 	jmp	0x2d6e	; 0x2d6e <_exit>

0000008e <__bad_interrupt>:
      8e:	0c 94 00 00 	jmp	0	; 0x0 <__vectors>

00000092 <ADC_vInit>:
#include "stdmacros.h"
#include "Register.h"
#include "Data_type.h"
void ADC_vInit(){
	/* Configure Vref (Vcc on AVCC with external capacitor at Vref pin)*/
	SET_BIT(myADMUX,myREFS0);
      92:	3e 9a       	sbi	0x07, 6	; 7
	SET_BIT(myADMUX,myREFS1);
      94:	3f 9a       	sbi	0x07, 7	; 7
	/* Enable ADC */
	SET_BIT(myADCSRA,myADEN);
      96:	37 9a       	sbi	0x06, 7	; 6
	/* Adjust ADC Clock make the division factor 64 because we use freq. 8M so 8M/64=125KHz */
	SET_BIT(myADCSRA,myADPS2);
      98:	32 9a       	sbi	0x06, 2	; 6
	SET_BIT(myADCSRA,myADPS1);
      9a:	31 9a       	sbi	0x06, 1	; 6
	CLR_BIT(myADCSRA,myADPS0);
      9c:	30 98       	cbi	0x06, 0	; 6
}
      9e:	08 95       	ret

000000a0 <ADC_u16Read_Single_Endded>:
u16 ADC_u16Read_Single_Endded(u8 channel_number){
	u16 read_value ;
	/* Must be from 0>>7 to select one of these pin ADC0,1,2 */
	channel_number &=0x07;   
	/* Clear from MUX4 to MUX0 before set the required bit */
	myADMUX &=0xE0;    
      a0:	97 b1       	in	r25, 0x07	; 7
      a2:	90 7e       	andi	r25, 0xE0	; 224
      a4:	97 b9       	out	0x07, r25	; 7
	/* Choose the correct channel by setting the channel number in MUX4:0 bits */
	myADMUX = myADMUX | channel_number; 
      a6:	97 b1       	in	r25, 0x07	; 7
}

u16 ADC_u16Read_Single_Endded(u8 channel_number){
	u16 read_value ;
	/* Must be from 0>>7 to select one of these pin ADC0,1,2 */
	channel_number &=0x07;   
      a8:	87 70       	andi	r24, 0x07	; 7
	/* Clear from MUX4 to MUX0 before set the required bit */
	myADMUX &=0xE0;    
	/* Choose the correct channel by setting the channel number in MUX4:0 bits */
	myADMUX = myADMUX | channel_number; 
      aa:	98 2b       	or	r25, r24
      ac:	97 b9       	out	0x07, r25	; 7
	/* Start the conversion by set Bit (ADSC) */
	SET_BIT(myADCSRA,myADSC);
      ae:	36 9a       	sbi	0x06, 6	; 6
	/*Wait for the conversion to complete and ADIF(Bit 4) become 1 */
	while(IS_BIT_CLR(myADCSRA,myADIF)); 
      b0:	34 9b       	sbis	0x06, 4	; 6
      b2:	fe cf       	rjmp	.-4      	; 0xb0 <ADC_u16Read_Single_Endded+0x10>
	/* Clear ADIF by write'1' to it */
	SET_BIT(myADCSRA,myADIF);
      b4:	34 9a       	sbi	0x06, 4	; 6
	/* Combine ADCL +ADCH */
	read_value = myADCL; 
      b6:	84 b1       	in	r24, 0x04	; 4
      b8:	90 e0       	ldi	r25, 0x00	; 0
	read_value |= (myADCH<<8);   
      ba:	45 b1       	in	r20, 0x05	; 5
      bc:	34 2f       	mov	r19, r20
      be:	20 e0       	ldi	r18, 0x00	; 0
      c0:	82 2b       	or	r24, r18
      c2:	93 2b       	or	r25, r19
	      
	
	/* Return value*/                             
	return read_value;
      c4:	08 95       	ret

000000c6 <button_vInit>:
#include "GPIO_MCAL.h"
#define F_CPU 8000000UL
#include "util/delay.h"

void button_vInit( u8 port,u8 pin ){
	GPIO_vsetPIN_DIR(port, pin,0);
      c6:	40 e0       	ldi	r20, 0x00	; 0
      c8:	0e 94 94 00 	call	0x128	; 0x128 <GPIO_vsetPIN_DIR>
	
}
      cc:	08 95       	ret

000000ce <button_u8read>:

u8 button_u8read( u8 port,u8 pin ){
	u8 x;
	x= GPIO_u8read_PIN(port,pin);
      ce:	0e 94 b6 01 	call	0x36c	; 0x36c <GPIO_u8read_PIN>
	
	return x;
}
      d2:	08 95       	ret

000000d4 <main>:
#include "Data_type.h"
#include "LED_driver_ECU.h"
#include "Button_driver_ECU.h"

int main(void){
	button_vInit('B',0);
      d4:	82 e4       	ldi	r24, 0x42	; 66
      d6:	60 e0       	ldi	r22, 0x00	; 0
      d8:	0e 94 63 00 	call	0xc6	; 0xc6 <button_vInit>
	LED_vintialize('D',2);
      dc:	84 e4       	ldi	r24, 0x44	; 68
      de:	62 e0       	ldi	r22, 0x02	; 2
      e0:	0e 94 c5 08 	call	0x118a	; 0x118a <LED_vintialize>
	while(1){
		
		if (button_u8read('B',0)==1){
      e4:	82 e4       	ldi	r24, 0x42	; 66
      e6:	60 e0       	ldi	r22, 0x00	; 0
      e8:	0e 94 67 00 	call	0xce	; 0xce <button_u8read>
      ec:	81 30       	cpi	r24, 0x01	; 1
      ee:	29 f4       	brne	.+10     	; 0xfa <main+0x26>
			LED_vTurnon('D',2);
      f0:	84 e4       	ldi	r24, 0x44	; 68
      f2:	62 e0       	ldi	r22, 0x02	; 2
      f4:	0e 94 c9 08 	call	0x1192	; 0x1192 <LED_vTurnon>
      f8:	f5 cf       	rjmp	.-22     	; 0xe4 <main+0x10>
		}else{
			LED_vTurnoff('D',2);
      fa:	84 e4       	ldi	r24, 0x44	; 68
      fc:	62 e0       	ldi	r22, 0x02	; 2
      fe:	0e 94 cd 08 	call	0x119a	; 0x119a <LED_vTurnoff>
     102:	f0 cf       	rjmp	.-32     	; 0xe4 <main+0x10>

00000104 <EEPROM_Write>:
 */ 
#include "Register.h"
#include "stdmacros.h"
#include "Data_type.h"
void EEPROM_Write(u16 address , u8 value){
	myEEARL = (u8)address;      
     104:	8e bb       	out	0x1e, r24	; 30
	myEEARH= (u8)(address>>8);
     106:	9f bb       	out	0x1f, r25	; 31
	myEEDR = value;
     108:	6d bb       	out	0x1d, r22	; 29
	SET_BIT(myEECR , myEEMWE);
     10a:	e2 9a       	sbi	0x1c, 2	; 28
	SET_BIT(myEECR , myEEWE);
     10c:	e1 9a       	sbi	0x1c, 1	; 28
	while(READ_BIT(myEECR , myEEWE)==1);
     10e:	e1 99       	sbic	0x1c, 1	; 28
     110:	fe cf       	rjmp	.-4      	; 0x10e <EEPROM_Write+0xa>
}
     112:	08 95       	ret

00000114 <EEPROM_Read>:



u8 EEPROM_Read(const u16 address){
	myEEARL = (u8)address;
     114:	8e bb       	out	0x1e, r24	; 30
	myEEARH = (u8)(address>>8);
     116:	9f bb       	out	0x1f, r25	; 31
	SET_BIT(myEECR , myEERE);
     118:	e0 9a       	sbi	0x1c, 0	; 28
	return myEEDR;
     11a:	8d b3       	in	r24, 0x1d	; 29
     11c:	08 95       	ret

0000011e <GPIO_voidInit>:
#include "GPIO_MCAL.h"

//================================Initialization=======================================
 void GPIO_voidInit(void){
	 /*Comment!: DDR initialization  */
	myDDRA = Init_direction_default;
     11e:	1a ba       	out	0x1a, r1	; 26
	myDDRB = Init_direction_default;
     120:	17 ba       	out	0x17, r1	; 23
	myDDRC = Init_direction_default;
     122:	14 ba       	out	0x14, r1	; 20
	myDDRD = Init_direction_default;
     124:	11 ba       	out	0x11, r1	; 17
 }
     126:	08 95       	ret

00000128 <GPIO_vsetPIN_DIR>:
//=====================================================================================

//===================================PIN===============================================

void GPIO_vsetPIN_DIR(u8 portnum, u8 pinnum, u8 dir ){
	switch (portnum){
     128:	84 34       	cpi	r24, 0x44	; 68
     12a:	09 f4       	brne	.+2      	; 0x12e <GPIO_vsetPIN_DIR+0x6>
     12c:	71 c0       	rjmp	.+226    	; 0x210 <GPIO_vsetPIN_DIR+0xe8>
     12e:	85 34       	cpi	r24, 0x45	; 69
     130:	48 f4       	brcc	.+18     	; 0x144 <GPIO_vsetPIN_DIR+0x1c>
     132:	82 34       	cpi	r24, 0x42	; 66
     134:	99 f1       	breq	.+102    	; 0x19c <GPIO_vsetPIN_DIR+0x74>
     136:	83 34       	cpi	r24, 0x43	; 67
     138:	08 f0       	brcs	.+2      	; 0x13c <GPIO_vsetPIN_DIR+0x14>
     13a:	4d c0       	rjmp	.+154    	; 0x1d6 <GPIO_vsetPIN_DIR+0xae>
     13c:	81 34       	cpi	r24, 0x41	; 65
     13e:	09 f0       	breq	.+2      	; 0x142 <GPIO_vsetPIN_DIR+0x1a>
     140:	83 c0       	rjmp	.+262    	; 0x248 <GPIO_vsetPIN_DIR+0x120>
     142:	0f c0       	rjmp	.+30     	; 0x162 <GPIO_vsetPIN_DIR+0x3a>
     144:	82 36       	cpi	r24, 0x62	; 98
     146:	51 f1       	breq	.+84     	; 0x19c <GPIO_vsetPIN_DIR+0x74>
     148:	83 36       	cpi	r24, 0x63	; 99
     14a:	20 f4       	brcc	.+8      	; 0x154 <GPIO_vsetPIN_DIR+0x2c>
     14c:	81 36       	cpi	r24, 0x61	; 97
     14e:	09 f0       	breq	.+2      	; 0x152 <GPIO_vsetPIN_DIR+0x2a>
     150:	7b c0       	rjmp	.+246    	; 0x248 <GPIO_vsetPIN_DIR+0x120>
     152:	07 c0       	rjmp	.+14     	; 0x162 <GPIO_vsetPIN_DIR+0x3a>
     154:	83 36       	cpi	r24, 0x63	; 99
     156:	09 f4       	brne	.+2      	; 0x15a <GPIO_vsetPIN_DIR+0x32>
     158:	3e c0       	rjmp	.+124    	; 0x1d6 <GPIO_vsetPIN_DIR+0xae>
     15a:	84 36       	cpi	r24, 0x64	; 100
     15c:	09 f0       	breq	.+2      	; 0x160 <GPIO_vsetPIN_DIR+0x38>
     15e:	74 c0       	rjmp	.+232    	; 0x248 <GPIO_vsetPIN_DIR+0x120>
     160:	57 c0       	rjmp	.+174    	; 0x210 <GPIO_vsetPIN_DIR+0xe8>
		case 'A' :
		case 'a' :
			if(dir == 1){
     162:	41 30       	cpi	r20, 0x01	; 1
     164:	69 f4       	brne	.+26     	; 0x180 <GPIO_vsetPIN_DIR+0x58>
				SET_BIT(myDDRA , pinnum);
     166:	2a b3       	in	r18, 0x1a	; 26
     168:	81 e0       	ldi	r24, 0x01	; 1
     16a:	90 e0       	ldi	r25, 0x00	; 0
     16c:	ac 01       	movw	r20, r24
     16e:	02 c0       	rjmp	.+4      	; 0x174 <GPIO_vsetPIN_DIR+0x4c>
     170:	44 0f       	add	r20, r20
     172:	55 1f       	adc	r21, r21
     174:	6a 95       	dec	r22
     176:	e2 f7       	brpl	.-8      	; 0x170 <GPIO_vsetPIN_DIR+0x48>
     178:	ba 01       	movw	r22, r20
     17a:	62 2b       	or	r22, r18
     17c:	6a bb       	out	0x1a, r22	; 26
     17e:	08 95       	ret
			}else{
				CLR_BIT(myDDRA , pinnum);
     180:	2a b3       	in	r18, 0x1a	; 26
     182:	81 e0       	ldi	r24, 0x01	; 1
     184:	90 e0       	ldi	r25, 0x00	; 0
     186:	ac 01       	movw	r20, r24
     188:	02 c0       	rjmp	.+4      	; 0x18e <GPIO_vsetPIN_DIR+0x66>
     18a:	44 0f       	add	r20, r20
     18c:	55 1f       	adc	r21, r21
     18e:	6a 95       	dec	r22
     190:	e2 f7       	brpl	.-8      	; 0x18a <GPIO_vsetPIN_DIR+0x62>
     192:	ba 01       	movw	r22, r20
     194:	60 95       	com	r22
     196:	62 23       	and	r22, r18
     198:	6a bb       	out	0x1a, r22	; 26
     19a:	08 95       	ret
			}
			break;
		case 'b' :
		case 'B' :
			if(dir == 1){
     19c:	41 30       	cpi	r20, 0x01	; 1
     19e:	69 f4       	brne	.+26     	; 0x1ba <GPIO_vsetPIN_DIR+0x92>
				SET_BIT(myDDRB , pinnum);
     1a0:	27 b3       	in	r18, 0x17	; 23
     1a2:	81 e0       	ldi	r24, 0x01	; 1
     1a4:	90 e0       	ldi	r25, 0x00	; 0
     1a6:	ac 01       	movw	r20, r24
     1a8:	02 c0       	rjmp	.+4      	; 0x1ae <GPIO_vsetPIN_DIR+0x86>
     1aa:	44 0f       	add	r20, r20
     1ac:	55 1f       	adc	r21, r21
     1ae:	6a 95       	dec	r22
     1b0:	e2 f7       	brpl	.-8      	; 0x1aa <GPIO_vsetPIN_DIR+0x82>
     1b2:	ba 01       	movw	r22, r20
     1b4:	62 2b       	or	r22, r18
     1b6:	67 bb       	out	0x17, r22	; 23
     1b8:	08 95       	ret
			}else{
				CLR_BIT(myDDRB , pinnum);
     1ba:	27 b3       	in	r18, 0x17	; 23
     1bc:	81 e0       	ldi	r24, 0x01	; 1
     1be:	90 e0       	ldi	r25, 0x00	; 0
     1c0:	ac 01       	movw	r20, r24
     1c2:	02 c0       	rjmp	.+4      	; 0x1c8 <GPIO_vsetPIN_DIR+0xa0>
     1c4:	44 0f       	add	r20, r20
     1c6:	55 1f       	adc	r21, r21
     1c8:	6a 95       	dec	r22
     1ca:	e2 f7       	brpl	.-8      	; 0x1c4 <GPIO_vsetPIN_DIR+0x9c>
     1cc:	ba 01       	movw	r22, r20
     1ce:	60 95       	com	r22
     1d0:	62 23       	and	r22, r18
     1d2:	67 bb       	out	0x17, r22	; 23
     1d4:	08 95       	ret
			}
			break;
		case 'C' :
		case 'c' :
			if(dir == 1){
     1d6:	41 30       	cpi	r20, 0x01	; 1
     1d8:	69 f4       	brne	.+26     	; 0x1f4 <GPIO_vsetPIN_DIR+0xcc>
				SET_BIT(myDDRC , pinnum);
     1da:	24 b3       	in	r18, 0x14	; 20
     1dc:	81 e0       	ldi	r24, 0x01	; 1
     1de:	90 e0       	ldi	r25, 0x00	; 0
     1e0:	ac 01       	movw	r20, r24
     1e2:	02 c0       	rjmp	.+4      	; 0x1e8 <GPIO_vsetPIN_DIR+0xc0>
     1e4:	44 0f       	add	r20, r20
     1e6:	55 1f       	adc	r21, r21
     1e8:	6a 95       	dec	r22
     1ea:	e2 f7       	brpl	.-8      	; 0x1e4 <GPIO_vsetPIN_DIR+0xbc>
     1ec:	ba 01       	movw	r22, r20
     1ee:	62 2b       	or	r22, r18
     1f0:	64 bb       	out	0x14, r22	; 20
     1f2:	08 95       	ret
			}else{
				CLR_BIT(myDDRC , pinnum);
     1f4:	24 b3       	in	r18, 0x14	; 20
     1f6:	81 e0       	ldi	r24, 0x01	; 1
     1f8:	90 e0       	ldi	r25, 0x00	; 0
     1fa:	ac 01       	movw	r20, r24
     1fc:	02 c0       	rjmp	.+4      	; 0x202 <GPIO_vsetPIN_DIR+0xda>
     1fe:	44 0f       	add	r20, r20
     200:	55 1f       	adc	r21, r21
     202:	6a 95       	dec	r22
     204:	e2 f7       	brpl	.-8      	; 0x1fe <GPIO_vsetPIN_DIR+0xd6>
     206:	ba 01       	movw	r22, r20
     208:	60 95       	com	r22
     20a:	62 23       	and	r22, r18
     20c:	64 bb       	out	0x14, r22	; 20
     20e:	08 95       	ret
			}
			break;
		case 'D' :
		case 'd' :
			if(dir == 1){
     210:	41 30       	cpi	r20, 0x01	; 1
     212:	69 f4       	brne	.+26     	; 0x22e <GPIO_vsetPIN_DIR+0x106>
				SET_BIT(myDDRD , pinnum);
     214:	21 b3       	in	r18, 0x11	; 17
     216:	81 e0       	ldi	r24, 0x01	; 1
     218:	90 e0       	ldi	r25, 0x00	; 0
     21a:	ac 01       	movw	r20, r24
     21c:	02 c0       	rjmp	.+4      	; 0x222 <GPIO_vsetPIN_DIR+0xfa>
     21e:	44 0f       	add	r20, r20
     220:	55 1f       	adc	r21, r21
     222:	6a 95       	dec	r22
     224:	e2 f7       	brpl	.-8      	; 0x21e <GPIO_vsetPIN_DIR+0xf6>
     226:	ba 01       	movw	r22, r20
     228:	62 2b       	or	r22, r18
     22a:	61 bb       	out	0x11, r22	; 17
     22c:	08 95       	ret
			}else{
				CLR_BIT(myDDRD , pinnum);
     22e:	21 b3       	in	r18, 0x11	; 17
     230:	81 e0       	ldi	r24, 0x01	; 1
     232:	90 e0       	ldi	r25, 0x00	; 0
     234:	ac 01       	movw	r20, r24
     236:	02 c0       	rjmp	.+4      	; 0x23c <GPIO_vsetPIN_DIR+0x114>
     238:	44 0f       	add	r20, r20
     23a:	55 1f       	adc	r21, r21
     23c:	6a 95       	dec	r22
     23e:	e2 f7       	brpl	.-8      	; 0x238 <GPIO_vsetPIN_DIR+0x110>
     240:	ba 01       	movw	r22, r20
     242:	60 95       	com	r22
     244:	62 23       	and	r22, r18
     246:	61 bb       	out	0x11, r22	; 17
     248:	08 95       	ret

0000024a <GPIO_vwrite_PIN>:
	}
	
}

void GPIO_vwrite_PIN(u8 portnum , u8 pinnum , u8 value ){
	switch(portnum){
     24a:	84 34       	cpi	r24, 0x44	; 68
     24c:	09 f4       	brne	.+2      	; 0x250 <GPIO_vwrite_PIN+0x6>
     24e:	71 c0       	rjmp	.+226    	; 0x332 <GPIO_vwrite_PIN+0xe8>
     250:	85 34       	cpi	r24, 0x45	; 69
     252:	48 f4       	brcc	.+18     	; 0x266 <GPIO_vwrite_PIN+0x1c>
     254:	82 34       	cpi	r24, 0x42	; 66
     256:	99 f1       	breq	.+102    	; 0x2be <GPIO_vwrite_PIN+0x74>
     258:	83 34       	cpi	r24, 0x43	; 67
     25a:	08 f0       	brcs	.+2      	; 0x25e <GPIO_vwrite_PIN+0x14>
     25c:	4d c0       	rjmp	.+154    	; 0x2f8 <GPIO_vwrite_PIN+0xae>
     25e:	81 34       	cpi	r24, 0x41	; 65
     260:	09 f0       	breq	.+2      	; 0x264 <GPIO_vwrite_PIN+0x1a>
     262:	83 c0       	rjmp	.+262    	; 0x36a <GPIO_vwrite_PIN+0x120>
     264:	0f c0       	rjmp	.+30     	; 0x284 <GPIO_vwrite_PIN+0x3a>
     266:	82 36       	cpi	r24, 0x62	; 98
     268:	51 f1       	breq	.+84     	; 0x2be <GPIO_vwrite_PIN+0x74>
     26a:	83 36       	cpi	r24, 0x63	; 99
     26c:	20 f4       	brcc	.+8      	; 0x276 <GPIO_vwrite_PIN+0x2c>
     26e:	81 36       	cpi	r24, 0x61	; 97
     270:	09 f0       	breq	.+2      	; 0x274 <GPIO_vwrite_PIN+0x2a>
     272:	7b c0       	rjmp	.+246    	; 0x36a <GPIO_vwrite_PIN+0x120>
     274:	07 c0       	rjmp	.+14     	; 0x284 <GPIO_vwrite_PIN+0x3a>
     276:	83 36       	cpi	r24, 0x63	; 99
     278:	09 f4       	brne	.+2      	; 0x27c <GPIO_vwrite_PIN+0x32>
     27a:	3e c0       	rjmp	.+124    	; 0x2f8 <GPIO_vwrite_PIN+0xae>
     27c:	84 36       	cpi	r24, 0x64	; 100
     27e:	09 f0       	breq	.+2      	; 0x282 <GPIO_vwrite_PIN+0x38>
     280:	74 c0       	rjmp	.+232    	; 0x36a <GPIO_vwrite_PIN+0x120>
     282:	57 c0       	rjmp	.+174    	; 0x332 <GPIO_vwrite_PIN+0xe8>
		case 'A':
		case 'a':
			if (value ==1){
     284:	41 30       	cpi	r20, 0x01	; 1
     286:	69 f4       	brne	.+26     	; 0x2a2 <GPIO_vwrite_PIN+0x58>
				SET_BIT(myPORTA , pinnum);
     288:	2b b3       	in	r18, 0x1b	; 27
     28a:	81 e0       	ldi	r24, 0x01	; 1
     28c:	90 e0       	ldi	r25, 0x00	; 0
     28e:	ac 01       	movw	r20, r24
     290:	02 c0       	rjmp	.+4      	; 0x296 <GPIO_vwrite_PIN+0x4c>
     292:	44 0f       	add	r20, r20
     294:	55 1f       	adc	r21, r21
     296:	6a 95       	dec	r22
     298:	e2 f7       	brpl	.-8      	; 0x292 <GPIO_vwrite_PIN+0x48>
     29a:	ba 01       	movw	r22, r20
     29c:	62 2b       	or	r22, r18
     29e:	6b bb       	out	0x1b, r22	; 27
     2a0:	08 95       	ret
			}else {
				CLR_BIT(myPORTA , pinnum);
     2a2:	2b b3       	in	r18, 0x1b	; 27
     2a4:	81 e0       	ldi	r24, 0x01	; 1
     2a6:	90 e0       	ldi	r25, 0x00	; 0
     2a8:	ac 01       	movw	r20, r24
     2aa:	02 c0       	rjmp	.+4      	; 0x2b0 <GPIO_vwrite_PIN+0x66>
     2ac:	44 0f       	add	r20, r20
     2ae:	55 1f       	adc	r21, r21
     2b0:	6a 95       	dec	r22
     2b2:	e2 f7       	brpl	.-8      	; 0x2ac <GPIO_vwrite_PIN+0x62>
     2b4:	ba 01       	movw	r22, r20
     2b6:	60 95       	com	r22
     2b8:	62 23       	and	r22, r18
     2ba:	6b bb       	out	0x1b, r22	; 27
     2bc:	08 95       	ret
			}
			break;
		case 'b':
		case 'B':
			if (value ==1){
     2be:	41 30       	cpi	r20, 0x01	; 1
     2c0:	69 f4       	brne	.+26     	; 0x2dc <GPIO_vwrite_PIN+0x92>
				SET_BIT(myPORTB , pinnum);
     2c2:	28 b3       	in	r18, 0x18	; 24
     2c4:	81 e0       	ldi	r24, 0x01	; 1
     2c6:	90 e0       	ldi	r25, 0x00	; 0
     2c8:	ac 01       	movw	r20, r24
     2ca:	02 c0       	rjmp	.+4      	; 0x2d0 <GPIO_vwrite_PIN+0x86>
     2cc:	44 0f       	add	r20, r20
     2ce:	55 1f       	adc	r21, r21
     2d0:	6a 95       	dec	r22
     2d2:	e2 f7       	brpl	.-8      	; 0x2cc <GPIO_vwrite_PIN+0x82>
     2d4:	ba 01       	movw	r22, r20
     2d6:	62 2b       	or	r22, r18
     2d8:	68 bb       	out	0x18, r22	; 24
     2da:	08 95       	ret
			}else {
				CLR_BIT(myPORTB , pinnum);
     2dc:	28 b3       	in	r18, 0x18	; 24
     2de:	81 e0       	ldi	r24, 0x01	; 1
     2e0:	90 e0       	ldi	r25, 0x00	; 0
     2e2:	ac 01       	movw	r20, r24
     2e4:	02 c0       	rjmp	.+4      	; 0x2ea <GPIO_vwrite_PIN+0xa0>
     2e6:	44 0f       	add	r20, r20
     2e8:	55 1f       	adc	r21, r21
     2ea:	6a 95       	dec	r22
     2ec:	e2 f7       	brpl	.-8      	; 0x2e6 <GPIO_vwrite_PIN+0x9c>
     2ee:	ba 01       	movw	r22, r20
     2f0:	60 95       	com	r22
     2f2:	62 23       	and	r22, r18
     2f4:	68 bb       	out	0x18, r22	; 24
     2f6:	08 95       	ret
			}
			break;
		case 'C':
		case 'c':
			if (value ==1){
     2f8:	41 30       	cpi	r20, 0x01	; 1
     2fa:	69 f4       	brne	.+26     	; 0x316 <GPIO_vwrite_PIN+0xcc>
				SET_BIT(myPORTC , pinnum);
     2fc:	25 b3       	in	r18, 0x15	; 21
     2fe:	81 e0       	ldi	r24, 0x01	; 1
     300:	90 e0       	ldi	r25, 0x00	; 0
     302:	ac 01       	movw	r20, r24
     304:	02 c0       	rjmp	.+4      	; 0x30a <GPIO_vwrite_PIN+0xc0>
     306:	44 0f       	add	r20, r20
     308:	55 1f       	adc	r21, r21
     30a:	6a 95       	dec	r22
     30c:	e2 f7       	brpl	.-8      	; 0x306 <GPIO_vwrite_PIN+0xbc>
     30e:	ba 01       	movw	r22, r20
     310:	62 2b       	or	r22, r18
     312:	65 bb       	out	0x15, r22	; 21
     314:	08 95       	ret
			}else {
				CLR_BIT(myPORTC , pinnum);
     316:	25 b3       	in	r18, 0x15	; 21
     318:	81 e0       	ldi	r24, 0x01	; 1
     31a:	90 e0       	ldi	r25, 0x00	; 0
     31c:	ac 01       	movw	r20, r24
     31e:	02 c0       	rjmp	.+4      	; 0x324 <GPIO_vwrite_PIN+0xda>
     320:	44 0f       	add	r20, r20
     322:	55 1f       	adc	r21, r21
     324:	6a 95       	dec	r22
     326:	e2 f7       	brpl	.-8      	; 0x320 <GPIO_vwrite_PIN+0xd6>
     328:	ba 01       	movw	r22, r20
     32a:	60 95       	com	r22
     32c:	62 23       	and	r22, r18
     32e:	65 bb       	out	0x15, r22	; 21
     330:	08 95       	ret
			}
			break;
		case 'D':
		case 'd':
			if (value ==1){
     332:	41 30       	cpi	r20, 0x01	; 1
     334:	69 f4       	brne	.+26     	; 0x350 <GPIO_vwrite_PIN+0x106>
				SET_BIT(myPORTD , pinnum);
     336:	22 b3       	in	r18, 0x12	; 18
     338:	81 e0       	ldi	r24, 0x01	; 1
     33a:	90 e0       	ldi	r25, 0x00	; 0
     33c:	ac 01       	movw	r20, r24
     33e:	02 c0       	rjmp	.+4      	; 0x344 <GPIO_vwrite_PIN+0xfa>
     340:	44 0f       	add	r20, r20
     342:	55 1f       	adc	r21, r21
     344:	6a 95       	dec	r22
     346:	e2 f7       	brpl	.-8      	; 0x340 <GPIO_vwrite_PIN+0xf6>
     348:	ba 01       	movw	r22, r20
     34a:	62 2b       	or	r22, r18
     34c:	62 bb       	out	0x12, r22	; 18
     34e:	08 95       	ret
			}else {
				CLR_BIT(myPORTD , pinnum);
     350:	22 b3       	in	r18, 0x12	; 18
     352:	81 e0       	ldi	r24, 0x01	; 1
     354:	90 e0       	ldi	r25, 0x00	; 0
     356:	ac 01       	movw	r20, r24
     358:	02 c0       	rjmp	.+4      	; 0x35e <GPIO_vwrite_PIN+0x114>
     35a:	44 0f       	add	r20, r20
     35c:	55 1f       	adc	r21, r21
     35e:	6a 95       	dec	r22
     360:	e2 f7       	brpl	.-8      	; 0x35a <GPIO_vwrite_PIN+0x110>
     362:	ba 01       	movw	r22, r20
     364:	60 95       	com	r22
     366:	62 23       	and	r22, r18
     368:	62 bb       	out	0x12, r22	; 18
     36a:	08 95       	ret

0000036c <GPIO_u8read_PIN>:
	}
}

u8 GPIO_u8read_PIN(u8 portnum, u8 pinnum){
	u8 x=0;
	switch (portnum){
     36c:	84 34       	cpi	r24, 0x44	; 68
     36e:	09 f4       	brne	.+2      	; 0x372 <GPIO_u8read_PIN+0x6>
     370:	4e c0       	rjmp	.+156    	; 0x40e <GPIO_u8read_PIN+0xa2>
     372:	85 34       	cpi	r24, 0x45	; 69
     374:	40 f4       	brcc	.+16     	; 0x386 <GPIO_u8read_PIN+0x1a>
     376:	82 34       	cpi	r24, 0x42	; 66
     378:	31 f1       	breq	.+76     	; 0x3c6 <GPIO_u8read_PIN+0x5a>
     37a:	83 34       	cpi	r24, 0x43	; 67
     37c:	b0 f5       	brcc	.+108    	; 0x3ea <GPIO_u8read_PIN+0x7e>
     37e:	81 34       	cpi	r24, 0x41	; 65
     380:	09 f0       	breq	.+2      	; 0x384 <GPIO_u8read_PIN+0x18>
     382:	57 c0       	rjmp	.+174    	; 0x432 <GPIO_u8read_PIN+0xc6>
     384:	0e c0       	rjmp	.+28     	; 0x3a2 <GPIO_u8read_PIN+0x36>
     386:	82 36       	cpi	r24, 0x62	; 98
     388:	f1 f0       	breq	.+60     	; 0x3c6 <GPIO_u8read_PIN+0x5a>
     38a:	83 36       	cpi	r24, 0x63	; 99
     38c:	20 f4       	brcc	.+8      	; 0x396 <GPIO_u8read_PIN+0x2a>
     38e:	81 36       	cpi	r24, 0x61	; 97
     390:	09 f0       	breq	.+2      	; 0x394 <GPIO_u8read_PIN+0x28>
     392:	4f c0       	rjmp	.+158    	; 0x432 <GPIO_u8read_PIN+0xc6>
     394:	06 c0       	rjmp	.+12     	; 0x3a2 <GPIO_u8read_PIN+0x36>
     396:	83 36       	cpi	r24, 0x63	; 99
     398:	41 f1       	breq	.+80     	; 0x3ea <GPIO_u8read_PIN+0x7e>
     39a:	84 36       	cpi	r24, 0x64	; 100
     39c:	09 f0       	breq	.+2      	; 0x3a0 <GPIO_u8read_PIN+0x34>
     39e:	49 c0       	rjmp	.+146    	; 0x432 <GPIO_u8read_PIN+0xc6>
     3a0:	36 c0       	rjmp	.+108    	; 0x40e <GPIO_u8read_PIN+0xa2>
		case 'A':
		case 'a':
			x= READ_BIT(myPINA, pinnum);
     3a2:	29 b3       	in	r18, 0x19	; 25
     3a4:	81 e0       	ldi	r24, 0x01	; 1
     3a6:	90 e0       	ldi	r25, 0x00	; 0
     3a8:	06 2e       	mov	r0, r22
     3aa:	02 c0       	rjmp	.+4      	; 0x3b0 <GPIO_u8read_PIN+0x44>
     3ac:	88 0f       	add	r24, r24
     3ae:	99 1f       	adc	r25, r25
     3b0:	0a 94       	dec	r0
     3b2:	e2 f7       	brpl	.-8      	; 0x3ac <GPIO_u8read_PIN+0x40>
     3b4:	30 e0       	ldi	r19, 0x00	; 0
     3b6:	82 23       	and	r24, r18
     3b8:	93 23       	and	r25, r19
     3ba:	02 c0       	rjmp	.+4      	; 0x3c0 <GPIO_u8read_PIN+0x54>
     3bc:	95 95       	asr	r25
     3be:	87 95       	ror	r24
     3c0:	6a 95       	dec	r22
     3c2:	e2 f7       	brpl	.-8      	; 0x3bc <GPIO_u8read_PIN+0x50>
			break;
     3c4:	08 95       	ret
		case 'B':
		case 'b':
			x= READ_BIT(myPINB , pinnum);
     3c6:	26 b3       	in	r18, 0x16	; 22
     3c8:	81 e0       	ldi	r24, 0x01	; 1
     3ca:	90 e0       	ldi	r25, 0x00	; 0
     3cc:	06 2e       	mov	r0, r22
     3ce:	02 c0       	rjmp	.+4      	; 0x3d4 <GPIO_u8read_PIN+0x68>
     3d0:	88 0f       	add	r24, r24
     3d2:	99 1f       	adc	r25, r25
     3d4:	0a 94       	dec	r0
     3d6:	e2 f7       	brpl	.-8      	; 0x3d0 <GPIO_u8read_PIN+0x64>
     3d8:	30 e0       	ldi	r19, 0x00	; 0
     3da:	82 23       	and	r24, r18
     3dc:	93 23       	and	r25, r19
     3de:	02 c0       	rjmp	.+4      	; 0x3e4 <GPIO_u8read_PIN+0x78>
     3e0:	95 95       	asr	r25
     3e2:	87 95       	ror	r24
     3e4:	6a 95       	dec	r22
     3e6:	e2 f7       	brpl	.-8      	; 0x3e0 <GPIO_u8read_PIN+0x74>
			break;
     3e8:	08 95       	ret
		case 'C':
		case 'c':
			x= READ_BIT(myPINC , pinnum);
     3ea:	23 b3       	in	r18, 0x13	; 19
     3ec:	81 e0       	ldi	r24, 0x01	; 1
     3ee:	90 e0       	ldi	r25, 0x00	; 0
     3f0:	06 2e       	mov	r0, r22
     3f2:	02 c0       	rjmp	.+4      	; 0x3f8 <GPIO_u8read_PIN+0x8c>
     3f4:	88 0f       	add	r24, r24
     3f6:	99 1f       	adc	r25, r25
     3f8:	0a 94       	dec	r0
     3fa:	e2 f7       	brpl	.-8      	; 0x3f4 <GPIO_u8read_PIN+0x88>
     3fc:	30 e0       	ldi	r19, 0x00	; 0
     3fe:	82 23       	and	r24, r18
     400:	93 23       	and	r25, r19
     402:	02 c0       	rjmp	.+4      	; 0x408 <GPIO_u8read_PIN+0x9c>
     404:	95 95       	asr	r25
     406:	87 95       	ror	r24
     408:	6a 95       	dec	r22
     40a:	e2 f7       	brpl	.-8      	; 0x404 <GPIO_u8read_PIN+0x98>
			break;
     40c:	08 95       	ret
		case 'D':
		case 'd':
			x= READ_BIT(myPIND, pinnum);
     40e:	20 b3       	in	r18, 0x10	; 16
     410:	81 e0       	ldi	r24, 0x01	; 1
     412:	90 e0       	ldi	r25, 0x00	; 0
     414:	06 2e       	mov	r0, r22
     416:	02 c0       	rjmp	.+4      	; 0x41c <GPIO_u8read_PIN+0xb0>
     418:	88 0f       	add	r24, r24
     41a:	99 1f       	adc	r25, r25
     41c:	0a 94       	dec	r0
     41e:	e2 f7       	brpl	.-8      	; 0x418 <GPIO_u8read_PIN+0xac>
     420:	30 e0       	ldi	r19, 0x00	; 0
     422:	82 23       	and	r24, r18
     424:	93 23       	and	r25, r19
     426:	02 c0       	rjmp	.+4      	; 0x42c <GPIO_u8read_PIN+0xc0>
     428:	95 95       	asr	r25
     42a:	87 95       	ror	r24
     42c:	6a 95       	dec	r22
     42e:	e2 f7       	brpl	.-8      	; 0x428 <GPIO_u8read_PIN+0xbc>
			break;
     430:	08 95       	ret
		default: break;
	}
}

u8 GPIO_u8read_PIN(u8 portnum, u8 pinnum){
	u8 x=0;
     432:	80 e0       	ldi	r24, 0x00	; 0
			x= READ_BIT(myPIND, pinnum);
			break;
		default: break;
	}
	return x;
}
     434:	08 95       	ret

00000436 <GPIO_vtoggle_PIN>:

void GPIO_vtoggle_PIN(u8 portnum, u8 pinnum){
	switch (portnum){
     436:	84 34       	cpi	r24, 0x44	; 68
     438:	09 f4       	brne	.+2      	; 0x43c <GPIO_vtoggle_PIN+0x6>
     43a:	3d c0       	rjmp	.+122    	; 0x4b6 <GPIO_vtoggle_PIN+0x80>
     43c:	85 34       	cpi	r24, 0x45	; 69
     43e:	40 f4       	brcc	.+16     	; 0x450 <GPIO_vtoggle_PIN+0x1a>
     440:	82 34       	cpi	r24, 0x42	; 66
     442:	f9 f0       	breq	.+62     	; 0x482 <GPIO_vtoggle_PIN+0x4c>
     444:	83 34       	cpi	r24, 0x43	; 67
     446:	50 f5       	brcc	.+84     	; 0x49c <GPIO_vtoggle_PIN+0x66>
     448:	81 34       	cpi	r24, 0x41	; 65
     44a:	09 f0       	breq	.+2      	; 0x44e <GPIO_vtoggle_PIN+0x18>
     44c:	40 c0       	rjmp	.+128    	; 0x4ce <GPIO_vtoggle_PIN+0x98>
     44e:	0c c0       	rjmp	.+24     	; 0x468 <GPIO_vtoggle_PIN+0x32>
     450:	82 36       	cpi	r24, 0x62	; 98
     452:	b9 f0       	breq	.+46     	; 0x482 <GPIO_vtoggle_PIN+0x4c>
     454:	83 36       	cpi	r24, 0x63	; 99
     456:	18 f4       	brcc	.+6      	; 0x45e <GPIO_vtoggle_PIN+0x28>
     458:	81 36       	cpi	r24, 0x61	; 97
     45a:	c9 f5       	brne	.+114    	; 0x4ce <GPIO_vtoggle_PIN+0x98>
     45c:	05 c0       	rjmp	.+10     	; 0x468 <GPIO_vtoggle_PIN+0x32>
     45e:	83 36       	cpi	r24, 0x63	; 99
     460:	e9 f0       	breq	.+58     	; 0x49c <GPIO_vtoggle_PIN+0x66>
     462:	84 36       	cpi	r24, 0x64	; 100
     464:	a1 f5       	brne	.+104    	; 0x4ce <GPIO_vtoggle_PIN+0x98>
     466:	27 c0       	rjmp	.+78     	; 0x4b6 <GPIO_vtoggle_PIN+0x80>
		case 'a' :
		case 'A' :
			TOGGLE_BIT(myPORTA, pinnum);
     468:	2b b3       	in	r18, 0x1b	; 27
     46a:	81 e0       	ldi	r24, 0x01	; 1
     46c:	90 e0       	ldi	r25, 0x00	; 0
     46e:	ac 01       	movw	r20, r24
     470:	02 c0       	rjmp	.+4      	; 0x476 <GPIO_vtoggle_PIN+0x40>
     472:	44 0f       	add	r20, r20
     474:	55 1f       	adc	r21, r21
     476:	6a 95       	dec	r22
     478:	e2 f7       	brpl	.-8      	; 0x472 <GPIO_vtoggle_PIN+0x3c>
     47a:	ba 01       	movw	r22, r20
     47c:	62 27       	eor	r22, r18
     47e:	6b bb       	out	0x1b, r22	; 27
			break;
     480:	08 95       	ret
		case 'b' :
		case 'B' :
			TOGGLE_BIT(myPORTB, pinnum);
     482:	28 b3       	in	r18, 0x18	; 24
     484:	81 e0       	ldi	r24, 0x01	; 1
     486:	90 e0       	ldi	r25, 0x00	; 0
     488:	ac 01       	movw	r20, r24
     48a:	02 c0       	rjmp	.+4      	; 0x490 <GPIO_vtoggle_PIN+0x5a>
     48c:	44 0f       	add	r20, r20
     48e:	55 1f       	adc	r21, r21
     490:	6a 95       	dec	r22
     492:	e2 f7       	brpl	.-8      	; 0x48c <GPIO_vtoggle_PIN+0x56>
     494:	ba 01       	movw	r22, r20
     496:	62 27       	eor	r22, r18
     498:	68 bb       	out	0x18, r22	; 24
			break;
     49a:	08 95       	ret
		case 'c' :
		case 'C' :
			TOGGLE_BIT(myPORTC, pinnum);
     49c:	25 b3       	in	r18, 0x15	; 21
     49e:	81 e0       	ldi	r24, 0x01	; 1
     4a0:	90 e0       	ldi	r25, 0x00	; 0
     4a2:	ac 01       	movw	r20, r24
     4a4:	02 c0       	rjmp	.+4      	; 0x4aa <GPIO_vtoggle_PIN+0x74>
     4a6:	44 0f       	add	r20, r20
     4a8:	55 1f       	adc	r21, r21
     4aa:	6a 95       	dec	r22
     4ac:	e2 f7       	brpl	.-8      	; 0x4a6 <GPIO_vtoggle_PIN+0x70>
     4ae:	ba 01       	movw	r22, r20
     4b0:	62 27       	eor	r22, r18
     4b2:	65 bb       	out	0x15, r22	; 21
			break;
     4b4:	08 95       	ret
		case 'd' :
		case 'D' :
			TOGGLE_BIT(myPORTD, pinnum);
     4b6:	22 b3       	in	r18, 0x12	; 18
     4b8:	81 e0       	ldi	r24, 0x01	; 1
     4ba:	90 e0       	ldi	r25, 0x00	; 0
     4bc:	ac 01       	movw	r20, r24
     4be:	02 c0       	rjmp	.+4      	; 0x4c4 <GPIO_vtoggle_PIN+0x8e>
     4c0:	44 0f       	add	r20, r20
     4c2:	55 1f       	adc	r21, r21
     4c4:	6a 95       	dec	r22
     4c6:	e2 f7       	brpl	.-8      	; 0x4c0 <GPIO_vtoggle_PIN+0x8a>
     4c8:	ba 01       	movw	r22, r20
     4ca:	62 27       	eor	r22, r18
     4cc:	62 bb       	out	0x12, r22	; 18
     4ce:	08 95       	ret

000004d0 <GPIO_vconnectpullup>:
		default: break;
	}
}

void GPIO_vconnectpullup( u8 port, u8 pin , u8 connect_pullup ){
	switch (port){
     4d0:	84 34       	cpi	r24, 0x44	; 68
     4d2:	09 f4       	brne	.+2      	; 0x4d6 <GPIO_vconnectpullup+0x6>
     4d4:	7a c0       	rjmp	.+244    	; 0x5ca <GPIO_vconnectpullup+0xfa>
     4d6:	85 34       	cpi	r24, 0x45	; 69
     4d8:	48 f4       	brcc	.+18     	; 0x4ec <GPIO_vconnectpullup+0x1c>
     4da:	82 34       	cpi	r24, 0x42	; 66
     4dc:	b1 f1       	breq	.+108    	; 0x54a <GPIO_vconnectpullup+0x7a>
     4de:	83 34       	cpi	r24, 0x43	; 67
     4e0:	08 f0       	brcs	.+2      	; 0x4e4 <GPIO_vconnectpullup+0x14>
     4e2:	53 c0       	rjmp	.+166    	; 0x58a <GPIO_vconnectpullup+0xba>
     4e4:	81 34       	cpi	r24, 0x41	; 65
     4e6:	09 f0       	breq	.+2      	; 0x4ea <GPIO_vconnectpullup+0x1a>
     4e8:	8f c0       	rjmp	.+286    	; 0x608 <GPIO_vconnectpullup+0x138>
     4ea:	0f c0       	rjmp	.+30     	; 0x50a <GPIO_vconnectpullup+0x3a>
     4ec:	82 36       	cpi	r24, 0x62	; 98
     4ee:	69 f1       	breq	.+90     	; 0x54a <GPIO_vconnectpullup+0x7a>
     4f0:	83 36       	cpi	r24, 0x63	; 99
     4f2:	20 f4       	brcc	.+8      	; 0x4fc <GPIO_vconnectpullup+0x2c>
     4f4:	81 36       	cpi	r24, 0x61	; 97
     4f6:	09 f0       	breq	.+2      	; 0x4fa <GPIO_vconnectpullup+0x2a>
     4f8:	87 c0       	rjmp	.+270    	; 0x608 <GPIO_vconnectpullup+0x138>
     4fa:	07 c0       	rjmp	.+14     	; 0x50a <GPIO_vconnectpullup+0x3a>
     4fc:	83 36       	cpi	r24, 0x63	; 99
     4fe:	09 f4       	brne	.+2      	; 0x502 <GPIO_vconnectpullup+0x32>
     500:	44 c0       	rjmp	.+136    	; 0x58a <GPIO_vconnectpullup+0xba>
     502:	84 36       	cpi	r24, 0x64	; 100
     504:	09 f0       	breq	.+2      	; 0x508 <GPIO_vconnectpullup+0x38>
     506:	80 c0       	rjmp	.+256    	; 0x608 <GPIO_vconnectpullup+0x138>
     508:	60 c0       	rjmp	.+192    	; 0x5ca <GPIO_vconnectpullup+0xfa>
		case 'A' :
		case 'a' :
			if (Connect==connect_pullup){
     50a:	41 30       	cpi	r20, 0x01	; 1
     50c:	81 f4       	brne	.+32     	; 0x52e <GPIO_vconnectpullup+0x5e>
				SET_BIT(myPORTA,pin);
     50e:	2b b3       	in	r18, 0x1b	; 27
     510:	81 e0       	ldi	r24, 0x01	; 1
     512:	90 e0       	ldi	r25, 0x00	; 0
     514:	ac 01       	movw	r20, r24
     516:	02 c0       	rjmp	.+4      	; 0x51c <GPIO_vconnectpullup+0x4c>
     518:	44 0f       	add	r20, r20
     51a:	55 1f       	adc	r21, r21
     51c:	6a 95       	dec	r22
     51e:	e2 f7       	brpl	.-8      	; 0x518 <GPIO_vconnectpullup+0x48>
     520:	ba 01       	movw	r22, r20
     522:	62 2b       	or	r22, r18
     524:	6b bb       	out	0x1b, r22	; 27
				CLR_BIT(mySFIOR,PUD);
     526:	80 b7       	in	r24, 0x30	; 48
     528:	8b 7f       	andi	r24, 0xFB	; 251
     52a:	80 bf       	out	0x30, r24	; 48
     52c:	08 95       	ret
			}else{
				CLR_BIT(myPORTA,pin);
     52e:	2b b3       	in	r18, 0x1b	; 27
     530:	81 e0       	ldi	r24, 0x01	; 1
     532:	90 e0       	ldi	r25, 0x00	; 0
     534:	ac 01       	movw	r20, r24
     536:	02 c0       	rjmp	.+4      	; 0x53c <GPIO_vconnectpullup+0x6c>
     538:	44 0f       	add	r20, r20
     53a:	55 1f       	adc	r21, r21
     53c:	6a 95       	dec	r22
     53e:	e2 f7       	brpl	.-8      	; 0x538 <GPIO_vconnectpullup+0x68>
     540:	ba 01       	movw	r22, r20
     542:	60 95       	com	r22
     544:	62 23       	and	r22, r18
     546:	6b bb       	out	0x1b, r22	; 27
     548:	08 95       	ret
			}
			break;
		case 'B' :
		case 'b' :
			if (Connect==connect_pullup){
     54a:	41 30       	cpi	r20, 0x01	; 1
     54c:	81 f4       	brne	.+32     	; 0x56e <GPIO_vconnectpullup+0x9e>
				SET_BIT(myPORTB,pin);
     54e:	28 b3       	in	r18, 0x18	; 24
     550:	81 e0       	ldi	r24, 0x01	; 1
     552:	90 e0       	ldi	r25, 0x00	; 0
     554:	ac 01       	movw	r20, r24
     556:	02 c0       	rjmp	.+4      	; 0x55c <GPIO_vconnectpullup+0x8c>
     558:	44 0f       	add	r20, r20
     55a:	55 1f       	adc	r21, r21
     55c:	6a 95       	dec	r22
     55e:	e2 f7       	brpl	.-8      	; 0x558 <GPIO_vconnectpullup+0x88>
     560:	ba 01       	movw	r22, r20
     562:	62 2b       	or	r22, r18
     564:	68 bb       	out	0x18, r22	; 24
				CLR_BIT(mySFIOR,PUD);
     566:	80 b7       	in	r24, 0x30	; 48
     568:	8b 7f       	andi	r24, 0xFB	; 251
     56a:	80 bf       	out	0x30, r24	; 48
     56c:	08 95       	ret
			}else{
				CLR_BIT(myPORTB,pin);
     56e:	28 b3       	in	r18, 0x18	; 24
     570:	81 e0       	ldi	r24, 0x01	; 1
     572:	90 e0       	ldi	r25, 0x00	; 0
     574:	ac 01       	movw	r20, r24
     576:	02 c0       	rjmp	.+4      	; 0x57c <GPIO_vconnectpullup+0xac>
     578:	44 0f       	add	r20, r20
     57a:	55 1f       	adc	r21, r21
     57c:	6a 95       	dec	r22
     57e:	e2 f7       	brpl	.-8      	; 0x578 <GPIO_vconnectpullup+0xa8>
     580:	ba 01       	movw	r22, r20
     582:	60 95       	com	r22
     584:	62 23       	and	r22, r18
     586:	68 bb       	out	0x18, r22	; 24
     588:	08 95       	ret
			}
			break;
		case 'C' :
		case 'c' :
			if (Connect==connect_pullup){
     58a:	41 30       	cpi	r20, 0x01	; 1
     58c:	81 f4       	brne	.+32     	; 0x5ae <GPIO_vconnectpullup+0xde>
				SET_BIT(myPORTC,pin);
     58e:	25 b3       	in	r18, 0x15	; 21
     590:	81 e0       	ldi	r24, 0x01	; 1
     592:	90 e0       	ldi	r25, 0x00	; 0
     594:	ac 01       	movw	r20, r24
     596:	02 c0       	rjmp	.+4      	; 0x59c <GPIO_vconnectpullup+0xcc>
     598:	44 0f       	add	r20, r20
     59a:	55 1f       	adc	r21, r21
     59c:	6a 95       	dec	r22
     59e:	e2 f7       	brpl	.-8      	; 0x598 <GPIO_vconnectpullup+0xc8>
     5a0:	ba 01       	movw	r22, r20
     5a2:	62 2b       	or	r22, r18
     5a4:	65 bb       	out	0x15, r22	; 21
				CLR_BIT(mySFIOR,PUD);
     5a6:	80 b7       	in	r24, 0x30	; 48
     5a8:	8b 7f       	andi	r24, 0xFB	; 251
     5aa:	80 bf       	out	0x30, r24	; 48
     5ac:	08 95       	ret
			}else{
				CLR_BIT(myPORTC,pin);
     5ae:	25 b3       	in	r18, 0x15	; 21
     5b0:	81 e0       	ldi	r24, 0x01	; 1
     5b2:	90 e0       	ldi	r25, 0x00	; 0
     5b4:	ac 01       	movw	r20, r24
     5b6:	02 c0       	rjmp	.+4      	; 0x5bc <GPIO_vconnectpullup+0xec>
     5b8:	44 0f       	add	r20, r20
     5ba:	55 1f       	adc	r21, r21
     5bc:	6a 95       	dec	r22
     5be:	e2 f7       	brpl	.-8      	; 0x5b8 <GPIO_vconnectpullup+0xe8>
     5c0:	ba 01       	movw	r22, r20
     5c2:	60 95       	com	r22
     5c4:	62 23       	and	r22, r18
     5c6:	65 bb       	out	0x15, r22	; 21
     5c8:	08 95       	ret
			}
			break;
		case 'D' :
		case 'd' :
			if (Connect==connect_pullup){
     5ca:	41 30       	cpi	r20, 0x01	; 1
     5cc:	81 f4       	brne	.+32     	; 0x5ee <GPIO_vconnectpullup+0x11e>
				SET_BIT(myPORTD,pin);
     5ce:	22 b3       	in	r18, 0x12	; 18
     5d0:	81 e0       	ldi	r24, 0x01	; 1
     5d2:	90 e0       	ldi	r25, 0x00	; 0
     5d4:	ac 01       	movw	r20, r24
     5d6:	02 c0       	rjmp	.+4      	; 0x5dc <GPIO_vconnectpullup+0x10c>
     5d8:	44 0f       	add	r20, r20
     5da:	55 1f       	adc	r21, r21
     5dc:	6a 95       	dec	r22
     5de:	e2 f7       	brpl	.-8      	; 0x5d8 <GPIO_vconnectpullup+0x108>
     5e0:	ba 01       	movw	r22, r20
     5e2:	62 2b       	or	r22, r18
     5e4:	62 bb       	out	0x12, r22	; 18
				CLR_BIT(mySFIOR,PUD);
     5e6:	80 b7       	in	r24, 0x30	; 48
     5e8:	8b 7f       	andi	r24, 0xFB	; 251
     5ea:	80 bf       	out	0x30, r24	; 48
     5ec:	08 95       	ret
			}else{
				CLR_BIT(myPORTD,pin);
     5ee:	22 b3       	in	r18, 0x12	; 18
     5f0:	81 e0       	ldi	r24, 0x01	; 1
     5f2:	90 e0       	ldi	r25, 0x00	; 0
     5f4:	ac 01       	movw	r20, r24
     5f6:	02 c0       	rjmp	.+4      	; 0x5fc <GPIO_vconnectpullup+0x12c>
     5f8:	44 0f       	add	r20, r20
     5fa:	55 1f       	adc	r21, r21
     5fc:	6a 95       	dec	r22
     5fe:	e2 f7       	brpl	.-8      	; 0x5f8 <GPIO_vconnectpullup+0x128>
     600:	ba 01       	movw	r22, r20
     602:	60 95       	com	r22
     604:	62 23       	and	r22, r18
     606:	62 bb       	out	0x12, r22	; 18
     608:	08 95       	ret

0000060a <GPIO_vset_PORT_DIR>:
}

//==================================PORT=============================================

void GPIO_vset_PORT_DIR(u8 portnum, u8 dir){
	switch (portnum){
     60a:	84 34       	cpi	r24, 0x44	; 68
     60c:	d9 f0       	breq	.+54     	; 0x644 <GPIO_vset_PORT_DIR+0x3a>
     60e:	85 34       	cpi	r24, 0x45	; 69
     610:	38 f4       	brcc	.+14     	; 0x620 <GPIO_vset_PORT_DIR+0x16>
     612:	82 34       	cpi	r24, 0x42	; 66
     614:	99 f0       	breq	.+38     	; 0x63c <GPIO_vset_PORT_DIR+0x32>
     616:	83 34       	cpi	r24, 0x43	; 67
     618:	98 f4       	brcc	.+38     	; 0x640 <GPIO_vset_PORT_DIR+0x36>
     61a:	81 34       	cpi	r24, 0x41	; 65
     61c:	a1 f4       	brne	.+40     	; 0x646 <GPIO_vset_PORT_DIR+0x3c>
     61e:	0c c0       	rjmp	.+24     	; 0x638 <GPIO_vset_PORT_DIR+0x2e>
     620:	82 36       	cpi	r24, 0x62	; 98
     622:	61 f0       	breq	.+24     	; 0x63c <GPIO_vset_PORT_DIR+0x32>
     624:	83 36       	cpi	r24, 0x63	; 99
     626:	18 f4       	brcc	.+6      	; 0x62e <GPIO_vset_PORT_DIR+0x24>
     628:	81 36       	cpi	r24, 0x61	; 97
     62a:	69 f4       	brne	.+26     	; 0x646 <GPIO_vset_PORT_DIR+0x3c>
     62c:	05 c0       	rjmp	.+10     	; 0x638 <GPIO_vset_PORT_DIR+0x2e>
     62e:	83 36       	cpi	r24, 0x63	; 99
     630:	39 f0       	breq	.+14     	; 0x640 <GPIO_vset_PORT_DIR+0x36>
     632:	84 36       	cpi	r24, 0x64	; 100
     634:	41 f4       	brne	.+16     	; 0x646 <GPIO_vset_PORT_DIR+0x3c>
     636:	06 c0       	rjmp	.+12     	; 0x644 <GPIO_vset_PORT_DIR+0x3a>
		case 'A' :
		case 'a' :
			myDDRA = dir;
     638:	6a bb       	out	0x1a, r22	; 26
			break;
     63a:	08 95       	ret
		case 'b' :
		case 'B' :
			myDDRB = dir;
     63c:	67 bb       	out	0x17, r22	; 23
			break;
     63e:	08 95       	ret
		case 'c' :
		case 'C' :
			myDDRC = dir;
     640:	64 bb       	out	0x14, r22	; 20
			break;
     642:	08 95       	ret
		case 'd' :
		case 'D' :
			myDDRD = dir;
     644:	61 bb       	out	0x11, r22	; 17
     646:	08 95       	ret

00000648 <GPIO_vwrite_PORT>:
		default: break;
	}
}

void GPIO_vwrite_PORT(u8 portnum, u8 portvalue){
	switch (portnum){
     648:	84 34       	cpi	r24, 0x44	; 68
     64a:	d9 f0       	breq	.+54     	; 0x682 <GPIO_vwrite_PORT+0x3a>
     64c:	85 34       	cpi	r24, 0x45	; 69
     64e:	38 f4       	brcc	.+14     	; 0x65e <GPIO_vwrite_PORT+0x16>
     650:	82 34       	cpi	r24, 0x42	; 66
     652:	99 f0       	breq	.+38     	; 0x67a <GPIO_vwrite_PORT+0x32>
     654:	83 34       	cpi	r24, 0x43	; 67
     656:	98 f4       	brcc	.+38     	; 0x67e <GPIO_vwrite_PORT+0x36>
     658:	81 34       	cpi	r24, 0x41	; 65
     65a:	a1 f4       	brne	.+40     	; 0x684 <GPIO_vwrite_PORT+0x3c>
     65c:	0c c0       	rjmp	.+24     	; 0x676 <GPIO_vwrite_PORT+0x2e>
     65e:	82 36       	cpi	r24, 0x62	; 98
     660:	61 f0       	breq	.+24     	; 0x67a <GPIO_vwrite_PORT+0x32>
     662:	83 36       	cpi	r24, 0x63	; 99
     664:	18 f4       	brcc	.+6      	; 0x66c <GPIO_vwrite_PORT+0x24>
     666:	81 36       	cpi	r24, 0x61	; 97
     668:	69 f4       	brne	.+26     	; 0x684 <GPIO_vwrite_PORT+0x3c>
     66a:	05 c0       	rjmp	.+10     	; 0x676 <GPIO_vwrite_PORT+0x2e>
     66c:	83 36       	cpi	r24, 0x63	; 99
     66e:	39 f0       	breq	.+14     	; 0x67e <GPIO_vwrite_PORT+0x36>
     670:	84 36       	cpi	r24, 0x64	; 100
     672:	41 f4       	brne	.+16     	; 0x684 <GPIO_vwrite_PORT+0x3c>
     674:	06 c0       	rjmp	.+12     	; 0x682 <GPIO_vwrite_PORT+0x3a>
		case 'A' :
		case 'a' :
			myPORTA = portvalue;
     676:	6b bb       	out	0x1b, r22	; 27
			break;
     678:	08 95       	ret
		case 'B' :
		case 'b' :
			myPORTB = portvalue;
     67a:	68 bb       	out	0x18, r22	; 24
			break;
     67c:	08 95       	ret
		case 'C' :
		case 'c' :
			myPORTC = portvalue;
     67e:	65 bb       	out	0x15, r22	; 21
			break;
     680:	08 95       	ret
		case 'D' :
		case 'd' :
			myPORTD = portvalue;
     682:	62 bb       	out	0x12, r22	; 18
     684:	08 95       	ret

00000686 <GPIO_vtoggle_PORT>:
		default: break;
	}
}

void GPIO_vtoggle_PORT(u8 portnum){
	switch (portnum){
     686:	84 34       	cpi	r24, 0x44	; 68
     688:	09 f1       	breq	.+66     	; 0x6cc <GPIO_vtoggle_PORT+0x46>
     68a:	85 34       	cpi	r24, 0x45	; 69
     68c:	38 f4       	brcc	.+14     	; 0x69c <GPIO_vtoggle_PORT+0x16>
     68e:	82 34       	cpi	r24, 0x42	; 66
     690:	a9 f0       	breq	.+42     	; 0x6bc <GPIO_vtoggle_PORT+0x36>
     692:	83 34       	cpi	r24, 0x43	; 67
     694:	b8 f4       	brcc	.+46     	; 0x6c4 <GPIO_vtoggle_PORT+0x3e>
     696:	81 34       	cpi	r24, 0x41	; 65
     698:	e1 f4       	brne	.+56     	; 0x6d2 <GPIO_vtoggle_PORT+0x4c>
     69a:	0c c0       	rjmp	.+24     	; 0x6b4 <GPIO_vtoggle_PORT+0x2e>
     69c:	82 36       	cpi	r24, 0x62	; 98
     69e:	71 f0       	breq	.+28     	; 0x6bc <GPIO_vtoggle_PORT+0x36>
     6a0:	83 36       	cpi	r24, 0x63	; 99
     6a2:	18 f4       	brcc	.+6      	; 0x6aa <GPIO_vtoggle_PORT+0x24>
     6a4:	81 36       	cpi	r24, 0x61	; 97
     6a6:	a9 f4       	brne	.+42     	; 0x6d2 <GPIO_vtoggle_PORT+0x4c>
     6a8:	05 c0       	rjmp	.+10     	; 0x6b4 <GPIO_vtoggle_PORT+0x2e>
     6aa:	83 36       	cpi	r24, 0x63	; 99
     6ac:	59 f0       	breq	.+22     	; 0x6c4 <GPIO_vtoggle_PORT+0x3e>
     6ae:	84 36       	cpi	r24, 0x64	; 100
     6b0:	81 f4       	brne	.+32     	; 0x6d2 <GPIO_vtoggle_PORT+0x4c>
     6b2:	0c c0       	rjmp	.+24     	; 0x6cc <GPIO_vtoggle_PORT+0x46>
		case 'A' :
		case 'a' :
			myPORTA = ~myPORTA;
     6b4:	8b b3       	in	r24, 0x1b	; 27
     6b6:	80 95       	com	r24
     6b8:	8b bb       	out	0x1b, r24	; 27
			break;
     6ba:	08 95       	ret
		case 'B' :
		case 'b' :
			myPORTB = ~myPORTB;
     6bc:	88 b3       	in	r24, 0x18	; 24
     6be:	80 95       	com	r24
     6c0:	88 bb       	out	0x18, r24	; 24
			break;
     6c2:	08 95       	ret
		case 'C' :
		case 'c' :
			myPORTC = ~myPORTC;
     6c4:	85 b3       	in	r24, 0x15	; 21
     6c6:	80 95       	com	r24
     6c8:	85 bb       	out	0x15, r24	; 21
			break;
     6ca:	08 95       	ret
		case 'D' :
		case 'd' :
			myPORTD = ~myPORTD;
     6cc:	82 b3       	in	r24, 0x12	; 18
     6ce:	80 95       	com	r24
     6d0:	82 bb       	out	0x12, r24	; 18
     6d2:	08 95       	ret

000006d4 <GPIO_read_PORT>:
			break;
		default: break;
	}
}
u8 GPIO_read_PORT(u8 portnum){
     6d4:	cf 93       	push	r28
     6d6:	df 93       	push	r29
     6d8:	0f 92       	push	r0
     6da:	cd b7       	in	r28, 0x3d	; 61
     6dc:	de b7       	in	r29, 0x3e	; 62
	volatile u8 val=0;
     6de:	19 82       	std	Y+1, r1	; 0x01
	switch (portnum){
     6e0:	84 34       	cpi	r24, 0x44	; 68
     6e2:	f1 f0       	breq	.+60     	; 0x720 <GPIO_read_PORT+0x4c>
     6e4:	85 34       	cpi	r24, 0x45	; 69
     6e6:	38 f4       	brcc	.+14     	; 0x6f6 <GPIO_read_PORT+0x22>
     6e8:	82 34       	cpi	r24, 0x42	; 66
     6ea:	a1 f0       	breq	.+40     	; 0x714 <GPIO_read_PORT+0x40>
     6ec:	83 34       	cpi	r24, 0x43	; 67
     6ee:	a8 f4       	brcc	.+42     	; 0x71a <GPIO_read_PORT+0x46>
     6f0:	81 34       	cpi	r24, 0x41	; 65
     6f2:	c1 f4       	brne	.+48     	; 0x724 <GPIO_read_PORT+0x50>
     6f4:	0c c0       	rjmp	.+24     	; 0x70e <GPIO_read_PORT+0x3a>
     6f6:	82 36       	cpi	r24, 0x62	; 98
     6f8:	69 f0       	breq	.+26     	; 0x714 <GPIO_read_PORT+0x40>
     6fa:	83 36       	cpi	r24, 0x63	; 99
     6fc:	18 f4       	brcc	.+6      	; 0x704 <GPIO_read_PORT+0x30>
     6fe:	81 36       	cpi	r24, 0x61	; 97
     700:	89 f4       	brne	.+34     	; 0x724 <GPIO_read_PORT+0x50>
     702:	05 c0       	rjmp	.+10     	; 0x70e <GPIO_read_PORT+0x3a>
     704:	83 36       	cpi	r24, 0x63	; 99
     706:	49 f0       	breq	.+18     	; 0x71a <GPIO_read_PORT+0x46>
     708:	84 36       	cpi	r24, 0x64	; 100
     70a:	61 f4       	brne	.+24     	; 0x724 <GPIO_read_PORT+0x50>
     70c:	09 c0       	rjmp	.+18     	; 0x720 <GPIO_read_PORT+0x4c>
		case 'a' :
		case 'A' :
			val = myPINA;
     70e:	89 b3       	in	r24, 0x19	; 25
     710:	89 83       	std	Y+1, r24	; 0x01
			break;
     712:	08 c0       	rjmp	.+16     	; 0x724 <GPIO_read_PORT+0x50>
		case 'b' :
		case 'B' :
			val = myPINB;
     714:	86 b3       	in	r24, 0x16	; 22
     716:	89 83       	std	Y+1, r24	; 0x01
			break;
     718:	05 c0       	rjmp	.+10     	; 0x724 <GPIO_read_PORT+0x50>
		case 'c' :
		case 'C' :
			val = myPINC;
     71a:	83 b3       	in	r24, 0x13	; 19
     71c:	89 83       	std	Y+1, r24	; 0x01
			break;
     71e:	02 c0       	rjmp	.+4      	; 0x724 <GPIO_read_PORT+0x50>
		case 'd' :
		case 'D' :
			val = myPIND;
     720:	80 b3       	in	r24, 0x10	; 16
     722:	89 83       	std	Y+1, r24	; 0x01
			break;
		default: break;
	}
}
     724:	0f 90       	pop	r0
     726:	df 91       	pop	r29
     728:	cf 91       	pop	r28
     72a:	08 95       	ret

0000072c <GPIO_High_Nibble_vset_dir>:
//=====================================================================================

//==================================Nibble=============================================

//==================================High Nibble========================================
void GPIO_High_Nibble_vset_dir(u8 port,u8 dir){
     72c:	cf 93       	push	r28
     72e:	c8 2f       	mov	r28, r24
	if (1==dir){
     730:	61 30       	cpi	r22, 0x01	; 1
     732:	a1 f4       	brne	.+40     	; 0x75c <GPIO_High_Nibble_vset_dir+0x30>
		GPIO_vsetPIN_DIR(port,4,1);
     734:	64 e0       	ldi	r22, 0x04	; 4
     736:	41 e0       	ldi	r20, 0x01	; 1
     738:	0e 94 94 00 	call	0x128	; 0x128 <GPIO_vsetPIN_DIR>
		GPIO_vsetPIN_DIR(port,5,1);
     73c:	8c 2f       	mov	r24, r28
     73e:	65 e0       	ldi	r22, 0x05	; 5
     740:	41 e0       	ldi	r20, 0x01	; 1
     742:	0e 94 94 00 	call	0x128	; 0x128 <GPIO_vsetPIN_DIR>
		GPIO_vsetPIN_DIR(port,6,1);
     746:	8c 2f       	mov	r24, r28
     748:	66 e0       	ldi	r22, 0x06	; 6
     74a:	41 e0       	ldi	r20, 0x01	; 1
     74c:	0e 94 94 00 	call	0x128	; 0x128 <GPIO_vsetPIN_DIR>
		GPIO_vsetPIN_DIR(port,7,1);
     750:	8c 2f       	mov	r24, r28
     752:	67 e0       	ldi	r22, 0x07	; 7
     754:	41 e0       	ldi	r20, 0x01	; 1
     756:	0e 94 94 00 	call	0x128	; 0x128 <GPIO_vsetPIN_DIR>
     75a:	13 c0       	rjmp	.+38     	; 0x782 <GPIO_High_Nibble_vset_dir+0x56>
	}else{
		GPIO_vsetPIN_DIR(port,4,0);
     75c:	64 e0       	ldi	r22, 0x04	; 4
     75e:	40 e0       	ldi	r20, 0x00	; 0
     760:	0e 94 94 00 	call	0x128	; 0x128 <GPIO_vsetPIN_DIR>
		GPIO_vsetPIN_DIR(port,5,0);
     764:	8c 2f       	mov	r24, r28
     766:	65 e0       	ldi	r22, 0x05	; 5
     768:	40 e0       	ldi	r20, 0x00	; 0
     76a:	0e 94 94 00 	call	0x128	; 0x128 <GPIO_vsetPIN_DIR>
		GPIO_vsetPIN_DIR(port,6,0);
     76e:	8c 2f       	mov	r24, r28
     770:	66 e0       	ldi	r22, 0x06	; 6
     772:	40 e0       	ldi	r20, 0x00	; 0
     774:	0e 94 94 00 	call	0x128	; 0x128 <GPIO_vsetPIN_DIR>
		GPIO_vsetPIN_DIR(port,7,0);
     778:	8c 2f       	mov	r24, r28
     77a:	67 e0       	ldi	r22, 0x07	; 7
     77c:	40 e0       	ldi	r20, 0x00	; 0
     77e:	0e 94 94 00 	call	0x128	; 0x128 <GPIO_vsetPIN_DIR>
	}
	
}
     782:	cf 91       	pop	r28
     784:	08 95       	ret

00000786 <GPIO_High_Nibble_vwrite>:

void GPIO_High_Nibble_vwrite( u8 port , u8 value ){
	value <<= 4;   
     786:	62 95       	swap	r22
     788:	60 7f       	andi	r22, 0xF0	; 240
	switch (port){    
     78a:	84 34       	cpi	r24, 0x44	; 68
     78c:	51 f1       	breq	.+84     	; 0x7e2 <GPIO_High_Nibble_vwrite+0x5c>
     78e:	85 34       	cpi	r24, 0x45	; 69
     790:	38 f4       	brcc	.+14     	; 0x7a0 <GPIO_High_Nibble_vwrite+0x1a>
     792:	82 34       	cpi	r24, 0x42	; 66
     794:	c1 f0       	breq	.+48     	; 0x7c6 <GPIO_High_Nibble_vwrite+0x40>
     796:	83 34       	cpi	r24, 0x43	; 67
     798:	e8 f4       	brcc	.+58     	; 0x7d4 <GPIO_High_Nibble_vwrite+0x4e>
     79a:	81 34       	cpi	r24, 0x41	; 65
     79c:	41 f5       	brne	.+80     	; 0x7ee <GPIO_High_Nibble_vwrite+0x68>
     79e:	0c c0       	rjmp	.+24     	; 0x7b8 <GPIO_High_Nibble_vwrite+0x32>
     7a0:	82 36       	cpi	r24, 0x62	; 98
     7a2:	89 f0       	breq	.+34     	; 0x7c6 <GPIO_High_Nibble_vwrite+0x40>
     7a4:	83 36       	cpi	r24, 0x63	; 99
     7a6:	18 f4       	brcc	.+6      	; 0x7ae <GPIO_High_Nibble_vwrite+0x28>
     7a8:	81 36       	cpi	r24, 0x61	; 97
     7aa:	09 f5       	brne	.+66     	; 0x7ee <GPIO_High_Nibble_vwrite+0x68>
     7ac:	05 c0       	rjmp	.+10     	; 0x7b8 <GPIO_High_Nibble_vwrite+0x32>
     7ae:	83 36       	cpi	r24, 0x63	; 99
     7b0:	89 f0       	breq	.+34     	; 0x7d4 <GPIO_High_Nibble_vwrite+0x4e>
     7b2:	84 36       	cpi	r24, 0x64	; 100
     7b4:	e1 f4       	brne	.+56     	; 0x7ee <GPIO_High_Nibble_vwrite+0x68>
     7b6:	15 c0       	rjmp	.+42     	; 0x7e2 <GPIO_High_Nibble_vwrite+0x5c>
		case 'A':
		case 'a':			
			myPORTA &=0x0f; 
     7b8:	8b b3       	in	r24, 0x1b	; 27
     7ba:	8f 70       	andi	r24, 0x0F	; 15
     7bc:	8b bb       	out	0x1b, r24	; 27
			myPORTA |=value;
     7be:	8b b3       	in	r24, 0x1b	; 27
     7c0:	68 2b       	or	r22, r24
     7c2:	6b bb       	out	0x1b, r22	; 27
			break;				
     7c4:	08 95       	ret
		case 'B':
		case 'b':
			myPORTB &=0x0f;
     7c6:	88 b3       	in	r24, 0x18	; 24
     7c8:	8f 70       	andi	r24, 0x0F	; 15
     7ca:	88 bb       	out	0x18, r24	; 24
			myPORTB |=value;
     7cc:	88 b3       	in	r24, 0x18	; 24
     7ce:	68 2b       	or	r22, r24
     7d0:	68 bb       	out	0x18, r22	; 24
			break;
     7d2:	08 95       	ret
		case 'C':
		case 'c':
			myPORTC &=0x0f;
     7d4:	85 b3       	in	r24, 0x15	; 21
     7d6:	8f 70       	andi	r24, 0x0F	; 15
     7d8:	85 bb       	out	0x15, r24	; 21
			myPORTC |=value;
     7da:	85 b3       	in	r24, 0x15	; 21
     7dc:	68 2b       	or	r22, r24
     7de:	65 bb       	out	0x15, r22	; 21
			break;
     7e0:	08 95       	ret
		case 'D':
		case 'd':
			myPORTD &=0x0f;
     7e2:	82 b3       	in	r24, 0x12	; 18
     7e4:	8f 70       	andi	r24, 0x0F	; 15
     7e6:	82 bb       	out	0x12, r24	; 18
			myPORTD |=value;
     7e8:	82 b3       	in	r24, 0x12	; 18
     7ea:	68 2b       	or	r22, r24
     7ec:	62 bb       	out	0x12, r22	; 18
     7ee:	08 95       	ret

000007f0 <GPIO_Low_Nibble_vset_dir>:
		default: break;
	}
}

//==================================Low Nibble========================================
void GPIO_Low_Nibble_vset_dir(u8 port,u8 dir){
     7f0:	cf 93       	push	r28
     7f2:	c8 2f       	mov	r28, r24
	if (1==dir){
     7f4:	61 30       	cpi	r22, 0x01	; 1
     7f6:	a1 f4       	brne	.+40     	; 0x820 <GPIO_Low_Nibble_vset_dir+0x30>
		GPIO_vsetPIN_DIR(port,0,1);
     7f8:	60 e0       	ldi	r22, 0x00	; 0
     7fa:	41 e0       	ldi	r20, 0x01	; 1
     7fc:	0e 94 94 00 	call	0x128	; 0x128 <GPIO_vsetPIN_DIR>
		GPIO_vsetPIN_DIR(port,1,1);
     800:	8c 2f       	mov	r24, r28
     802:	61 e0       	ldi	r22, 0x01	; 1
     804:	41 e0       	ldi	r20, 0x01	; 1
     806:	0e 94 94 00 	call	0x128	; 0x128 <GPIO_vsetPIN_DIR>
		GPIO_vsetPIN_DIR(port,2,1);
     80a:	8c 2f       	mov	r24, r28
     80c:	62 e0       	ldi	r22, 0x02	; 2
     80e:	41 e0       	ldi	r20, 0x01	; 1
     810:	0e 94 94 00 	call	0x128	; 0x128 <GPIO_vsetPIN_DIR>
		GPIO_vsetPIN_DIR(port,3,1);
     814:	8c 2f       	mov	r24, r28
     816:	63 e0       	ldi	r22, 0x03	; 3
     818:	41 e0       	ldi	r20, 0x01	; 1
     81a:	0e 94 94 00 	call	0x128	; 0x128 <GPIO_vsetPIN_DIR>
     81e:	13 c0       	rjmp	.+38     	; 0x846 <GPIO_Low_Nibble_vset_dir+0x56>
	}else{
		GPIO_vsetPIN_DIR(port,0,0);
     820:	60 e0       	ldi	r22, 0x00	; 0
     822:	40 e0       	ldi	r20, 0x00	; 0
     824:	0e 94 94 00 	call	0x128	; 0x128 <GPIO_vsetPIN_DIR>
		GPIO_vsetPIN_DIR(port,1,0);
     828:	8c 2f       	mov	r24, r28
     82a:	61 e0       	ldi	r22, 0x01	; 1
     82c:	40 e0       	ldi	r20, 0x00	; 0
     82e:	0e 94 94 00 	call	0x128	; 0x128 <GPIO_vsetPIN_DIR>
		GPIO_vsetPIN_DIR(port,2,0);
     832:	8c 2f       	mov	r24, r28
     834:	62 e0       	ldi	r22, 0x02	; 2
     836:	40 e0       	ldi	r20, 0x00	; 0
     838:	0e 94 94 00 	call	0x128	; 0x128 <GPIO_vsetPIN_DIR>
		GPIO_vsetPIN_DIR(port,3,0);
     83c:	8c 2f       	mov	r24, r28
     83e:	63 e0       	ldi	r22, 0x03	; 3
     840:	40 e0       	ldi	r20, 0x00	; 0
     842:	0e 94 94 00 	call	0x128	; 0x128 <GPIO_vsetPIN_DIR>
	}
}
     846:	cf 91       	pop	r28
     848:	08 95       	ret

0000084a <GPIO_Low_Nibble_vwrite>:

void GPIO_Low_Nibble_vwrite( u8 port , u8 value ){
	value &=0x0f;
     84a:	6f 70       	andi	r22, 0x0F	; 15
	switch (port){
     84c:	84 34       	cpi	r24, 0x44	; 68
     84e:	51 f1       	breq	.+84     	; 0x8a4 <__stack+0x45>
     850:	85 34       	cpi	r24, 0x45	; 69
     852:	38 f4       	brcc	.+14     	; 0x862 <__stack+0x3>
     854:	82 34       	cpi	r24, 0x42	; 66
     856:	c1 f0       	breq	.+48     	; 0x888 <__stack+0x29>
     858:	83 34       	cpi	r24, 0x43	; 67
     85a:	e8 f4       	brcc	.+58     	; 0x896 <__stack+0x37>
     85c:	81 34       	cpi	r24, 0x41	; 65
     85e:	41 f5       	brne	.+80     	; 0x8b0 <__stack+0x51>
     860:	0c c0       	rjmp	.+24     	; 0x87a <__stack+0x1b>
     862:	82 36       	cpi	r24, 0x62	; 98
     864:	89 f0       	breq	.+34     	; 0x888 <__stack+0x29>
     866:	83 36       	cpi	r24, 0x63	; 99
     868:	18 f4       	brcc	.+6      	; 0x870 <__stack+0x11>
     86a:	81 36       	cpi	r24, 0x61	; 97
     86c:	09 f5       	brne	.+66     	; 0x8b0 <__stack+0x51>
     86e:	05 c0       	rjmp	.+10     	; 0x87a <__stack+0x1b>
     870:	83 36       	cpi	r24, 0x63	; 99
     872:	89 f0       	breq	.+34     	; 0x896 <__stack+0x37>
     874:	84 36       	cpi	r24, 0x64	; 100
     876:	e1 f4       	brne	.+56     	; 0x8b0 <__stack+0x51>
     878:	15 c0       	rjmp	.+42     	; 0x8a4 <__stack+0x45>
		case 'A':
		case 'a':
			myPORTA &=0xf0;
     87a:	8b b3       	in	r24, 0x1b	; 27
     87c:	80 7f       	andi	r24, 0xF0	; 240
     87e:	8b bb       	out	0x1b, r24	; 27
			myPORTA |=value;
     880:	8b b3       	in	r24, 0x1b	; 27
     882:	68 2b       	or	r22, r24
     884:	6b bb       	out	0x1b, r22	; 27
			break;
     886:	08 95       	ret
		case 'B':
		case 'b':
			myPORTB &=0xf0;
     888:	88 b3       	in	r24, 0x18	; 24
     88a:	80 7f       	andi	r24, 0xF0	; 240
     88c:	88 bb       	out	0x18, r24	; 24
			myPORTB |=value;
     88e:	88 b3       	in	r24, 0x18	; 24
     890:	68 2b       	or	r22, r24
     892:	68 bb       	out	0x18, r22	; 24
			break;
     894:	08 95       	ret
		case 'C':
		case 'c':
			myPORTC &=0xf0;
     896:	85 b3       	in	r24, 0x15	; 21
     898:	80 7f       	andi	r24, 0xF0	; 240
     89a:	85 bb       	out	0x15, r24	; 21
			myPORTC |=value;
     89c:	85 b3       	in	r24, 0x15	; 21
     89e:	68 2b       	or	r22, r24
     8a0:	65 bb       	out	0x15, r22	; 21
			break;
     8a2:	08 95       	ret
		case 'D':
		case 'd':
			myPORTD &=0xf0;
     8a4:	82 b3       	in	r24, 0x12	; 18
     8a6:	80 7f       	andi	r24, 0xF0	; 240
     8a8:	82 bb       	out	0x12, r24	; 18
			myPORTD |=value;
     8aa:	82 b3       	in	r24, 0x12	; 18
     8ac:	68 2b       	or	r22, r24
     8ae:	62 bb       	out	0x12, r22	; 18
     8b0:	08 95       	ret

000008b2 <keypad_vInit>:
 * Keypad_ECU.c
 *
 *  Author: Mahmoud Ayman
 */ 
#include "Keypad_ECU.h"
void keypad_vInit(u8 port){
     8b2:	cf 93       	push	r28
     8b4:	c8 2f       	mov	r28, r24
										
		GPIO_vset_PORT_DIR(port,0x0f);  
     8b6:	6f e0       	ldi	r22, 0x0F	; 15
     8b8:	0e 94 05 03 	call	0x60a	; 0x60a <GPIO_vset_PORT_DIR>
		GPIO_vconnectpullup(port,4,1);
     8bc:	8c 2f       	mov	r24, r28
     8be:	64 e0       	ldi	r22, 0x04	; 4
     8c0:	41 e0       	ldi	r20, 0x01	; 1
     8c2:	0e 94 68 02 	call	0x4d0	; 0x4d0 <GPIO_vconnectpullup>
		GPIO_vconnectpullup(port,5,1);
     8c6:	8c 2f       	mov	r24, r28
     8c8:	65 e0       	ldi	r22, 0x05	; 5
     8ca:	41 e0       	ldi	r20, 0x01	; 1
     8cc:	0e 94 68 02 	call	0x4d0	; 0x4d0 <GPIO_vconnectpullup>
		GPIO_vconnectpullup(port,6,1);
     8d0:	8c 2f       	mov	r24, r28
     8d2:	66 e0       	ldi	r22, 0x06	; 6
     8d4:	41 e0       	ldi	r20, 0x01	; 1
     8d6:	0e 94 68 02 	call	0x4d0	; 0x4d0 <GPIO_vconnectpullup>
		GPIO_vconnectpullup(port,7,1);
     8da:	8c 2f       	mov	r24, r28
     8dc:	67 e0       	ldi	r22, 0x07	; 7
     8de:	41 e0       	ldi	r20, 0x01	; 1
     8e0:	0e 94 68 02 	call	0x4d0	; 0x4d0 <GPIO_vconnectpullup>
	
}
     8e4:	cf 91       	pop	r28
     8e6:	08 95       	ret

000008e8 <keypad_u8check_press>:

u8 keypad_u8check_press(u8 port){
     8e8:	ff 92       	push	r15
     8ea:	0f 93       	push	r16
     8ec:	1f 93       	push	r17
     8ee:	cf 93       	push	r28
     8f0:	df 93       	push	r29
     8f2:	cd b7       	in	r28, 0x3d	; 61
     8f4:	de b7       	in	r29, 0x3e	; 62
     8f6:	60 97       	sbiw	r28, 0x10	; 16
     8f8:	0f b6       	in	r0, 0x3f	; 63
     8fa:	f8 94       	cli
     8fc:	de bf       	out	0x3e, r29	; 62
     8fe:	0f be       	out	0x3f, r0	; 63
     900:	cd bf       	out	0x3d, r28	; 61
     902:	08 2f       	mov	r16, r24
	//u8 arr[4][4]={{'1','2','3','A'},{'4','5','6','B'},{'7','8','9','C'},{'*','0','#','D'}};  //real 4*4 keypad
	u8 arr[4][4]={{'7','8','9','/'},{'4','5','6','*'},{'1','2','3','-'},{'A','0','=','+'}};  //proteus 4*4 keypad
     904:	de 01       	movw	r26, r28
     906:	11 96       	adiw	r26, 0x01	; 1
     908:	e0 e6       	ldi	r30, 0x60	; 96
     90a:	f0 e0       	ldi	r31, 0x00	; 0
     90c:	80 e1       	ldi	r24, 0x10	; 16
     90e:	01 90       	ld	r0, Z+
     910:	0d 92       	st	X+, r0
     912:	81 50       	subi	r24, 0x01	; 1
     914:	e1 f7       	brne	.-8      	; 0x90e <keypad_u8check_press+0x26>
	u8 row, coloumn, x;
	u8 returnval = NOTPRESSED;
	for (row = 0; row < 4; row++){									
     916:	ff 24       	eor	r15, r15
		GPIO_vwrite_PIN(port,0,1);								
     918:	80 2f       	mov	r24, r16
     91a:	60 e0       	ldi	r22, 0x00	; 0
     91c:	41 e0       	ldi	r20, 0x01	; 1
     91e:	0e 94 25 01 	call	0x24a	; 0x24a <GPIO_vwrite_PIN>
		GPIO_vwrite_PIN(port,1,1);						
     922:	80 2f       	mov	r24, r16
     924:	61 e0       	ldi	r22, 0x01	; 1
     926:	41 e0       	ldi	r20, 0x01	; 1
     928:	0e 94 25 01 	call	0x24a	; 0x24a <GPIO_vwrite_PIN>
		GPIO_vwrite_PIN(port,2,1);						
     92c:	80 2f       	mov	r24, r16
     92e:	62 e0       	ldi	r22, 0x02	; 2
     930:	41 e0       	ldi	r20, 0x01	; 1
     932:	0e 94 25 01 	call	0x24a	; 0x24a <GPIO_vwrite_PIN>
		GPIO_vwrite_PIN(port,3,1);
     936:	80 2f       	mov	r24, r16
     938:	63 e0       	ldi	r22, 0x03	; 3
     93a:	41 e0       	ldi	r20, 0x01	; 1
     93c:	0e 94 25 01 	call	0x24a	; 0x24a <GPIO_vwrite_PIN>
		GPIO_vwrite_PIN(port,row,0);
     940:	80 2f       	mov	r24, r16
     942:	6f 2d       	mov	r22, r15
     944:	40 e0       	ldi	r20, 0x00	; 0
     946:	0e 94 25 01 	call	0x24a	; 0x24a <GPIO_vwrite_PIN>
		
			for (coloumn=0; coloumn < 4; coloumn++){
     94a:	10 e0       	ldi	r17, 0x00	; 0
				x=GPIO_u8read_PIN(port,(coloumn+4));
     94c:	61 2f       	mov	r22, r17
     94e:	6c 5f       	subi	r22, 0xFC	; 252
     950:	80 2f       	mov	r24, r16
     952:	0e 94 b6 01 	call	0x36c	; 0x36c <GPIO_u8read_PIN>
				if(0==x){
     956:	88 23       	and	r24, r24
     958:	61 f4       	brne	.+24     	; 0x972 <keypad_u8check_press+0x8a>
					returnval = arr[row][coloumn];
     95a:	ef 2d       	mov	r30, r15
     95c:	f0 e0       	ldi	r31, 0x00	; 0
     95e:	ee 0f       	add	r30, r30
     960:	ff 1f       	adc	r31, r31
     962:	ee 0f       	add	r30, r30
     964:	ff 1f       	adc	r31, r31
     966:	e1 0f       	add	r30, r17
     968:	f1 1d       	adc	r31, r1
     96a:	ec 0f       	add	r30, r28
     96c:	fd 1f       	adc	r31, r29
     96e:	81 81       	ldd	r24, Z+1	; 0x01
     970:	04 c0       	rjmp	.+8      	; 0x97a <keypad_u8check_press+0x92>
		GPIO_vwrite_PIN(port,1,1);						
		GPIO_vwrite_PIN(port,2,1);						
		GPIO_vwrite_PIN(port,3,1);
		GPIO_vwrite_PIN(port,row,0);
		
			for (coloumn=0; coloumn < 4; coloumn++){
     972:	1f 5f       	subi	r17, 0xFF	; 255
     974:	14 30       	cpi	r17, 0x04	; 4
     976:	51 f7       	brne	.-44     	; 0x94c <keypad_u8check_press+0x64>
     978:	0c c0       	rjmp	.+24     	; 0x992 <keypad_u8check_press+0xaa>
		if(0==x){
			break;
		}
	}	
	return returnval;
     97a:	60 96       	adiw	r28, 0x10	; 16
     97c:	0f b6       	in	r0, 0x3f	; 63
     97e:	f8 94       	cli
     980:	de bf       	out	0x3e, r29	; 62
     982:	0f be       	out	0x3f, r0	; 63
     984:	cd bf       	out	0x3d, r28	; 61
     986:	df 91       	pop	r29
     988:	cf 91       	pop	r28
     98a:	1f 91       	pop	r17
     98c:	0f 91       	pop	r16
     98e:	ff 90       	pop	r15
     990:	08 95       	ret
u8 keypad_u8check_press(u8 port){
	//u8 arr[4][4]={{'1','2','3','A'},{'4','5','6','B'},{'7','8','9','C'},{'*','0','#','D'}};  //real 4*4 keypad
	u8 arr[4][4]={{'7','8','9','/'},{'4','5','6','*'},{'1','2','3','-'},{'A','0','=','+'}};  //proteus 4*4 keypad
	u8 row, coloumn, x;
	u8 returnval = NOTPRESSED;
	for (row = 0; row < 4; row++){									
     992:	f3 94       	inc	r15
     994:	84 e0       	ldi	r24, 0x04	; 4
     996:	f8 16       	cp	r15, r24
     998:	09 f0       	breq	.+2      	; 0x99c <keypad_u8check_press+0xb4>
     99a:	be cf       	rjmp	.-132    	; 0x918 <keypad_u8check_press+0x30>
     99c:	8f ef       	ldi	r24, 0xFF	; 255
     99e:	ed cf       	rjmp	.-38     	; 0x97a <keypad_u8check_press+0x92>

000009a0 <send_falling_edge>:
			_delay_ms(1);
		}
	}
}

  static void send_falling_edge(u8 EN_port,u8 EN_pin){
     9a0:	cf 93       	push	r28
     9a2:	df 93       	push	r29
     9a4:	d8 2f       	mov	r29, r24
     9a6:	c6 2f       	mov	r28, r22
	GPIO_vwrite_PIN(EN_port,EN_pin,1);
     9a8:	41 e0       	ldi	r20, 0x01	; 1
     9aa:	0e 94 25 01 	call	0x24a	; 0x24a <GPIO_vwrite_PIN>
	#else
		//round up by default
		__ticks_dc = (uint32_t)(ceil(fabs(__tmp)));
	#endif

	__builtin_avr_delay_cycles(__ticks_dc);
     9ae:	8f e9       	ldi	r24, 0x9F	; 159
     9b0:	9f e0       	ldi	r25, 0x0F	; 15
     9b2:	01 97       	sbiw	r24, 0x01	; 1
     9b4:	f1 f7       	brne	.-4      	; 0x9b2 <send_falling_edge+0x12>
     9b6:	00 c0       	rjmp	.+0      	; 0x9b8 <send_falling_edge+0x18>
     9b8:	00 00       	nop
	_delay_ms(2);
	GPIO_vwrite_PIN(EN_port,EN_pin,0);
     9ba:	8d 2f       	mov	r24, r29
     9bc:	6c 2f       	mov	r22, r28
     9be:	40 e0       	ldi	r20, 0x00	; 0
     9c0:	0e 94 25 01 	call	0x24a	; 0x24a <GPIO_vwrite_PIN>
}
     9c4:	df 91       	pop	r29
     9c6:	cf 91       	pop	r28
     9c8:	08 95       	ret

000009ca <LCD_vsend_cmd>:
			_delay_ms(1);
		}
	}
}

void LCD_vsend_cmd(u8 Mode, u8 Nibble ,u8 port, u8 RS_port,u8 RS_pin,u8 cmd,u8 EN_port,u8 EN_pin){
     9ca:	af 92       	push	r10
     9cc:	cf 92       	push	r12
     9ce:	ef 92       	push	r14
     9d0:	0f 93       	push	r16
     9d2:	cf 93       	push	r28
     9d4:	df 93       	push	r29
     9d6:	c4 2f       	mov	r28, r20
     9d8:	d2 2f       	mov	r29, r18
	if(1==Mode){
     9da:	81 30       	cpi	r24, 0x01	; 1
     9dc:	71 f4       	brne	.+28     	; 0x9fa <LCD_vsend_cmd+0x30>
		GPIO_vwrite_PORT(port,cmd);
     9de:	84 2f       	mov	r24, r20
     9e0:	6e 2d       	mov	r22, r14
     9e2:	0e 94 24 03 	call	0x648	; 0x648 <GPIO_vwrite_PORT>
		GPIO_vwrite_PIN(RS_port,RS_pin,0);
     9e6:	8d 2f       	mov	r24, r29
     9e8:	60 2f       	mov	r22, r16
     9ea:	40 e0       	ldi	r20, 0x00	; 0
     9ec:	0e 94 25 01 	call	0x24a	; 0x24a <GPIO_vwrite_PIN>
		send_falling_edge(EN_port,EN_pin);
     9f0:	8c 2d       	mov	r24, r12
     9f2:	6a 2d       	mov	r22, r10
     9f4:	0e 94 d0 04 	call	0x9a0	; 0x9a0 <send_falling_edge>
     9f8:	47 c0       	rjmp	.+142    	; 0xa88 <LCD_vsend_cmd+0xbe>
	}else {
		if (1==Nibble){
     9fa:	61 30       	cpi	r22, 0x01	; 1
     9fc:	19 f5       	brne	.+70     	; 0xa44 <LCD_vsend_cmd+0x7a>
			GPIO_High_Nibble_vwrite(port,cmd>>4);     
     9fe:	6e 2d       	mov	r22, r14
     a00:	62 95       	swap	r22
     a02:	6f 70       	andi	r22, 0x0F	; 15
     a04:	84 2f       	mov	r24, r20
     a06:	0e 94 c3 03 	call	0x786	; 0x786 <GPIO_High_Nibble_vwrite>
			GPIO_vwrite_PIN(RS_port,RS_pin,0);
     a0a:	8d 2f       	mov	r24, r29
     a0c:	60 2f       	mov	r22, r16
     a0e:	40 e0       	ldi	r20, 0x00	; 0
     a10:	0e 94 25 01 	call	0x24a	; 0x24a <GPIO_vwrite_PIN>
			send_falling_edge(EN_port,EN_pin);
     a14:	8c 2d       	mov	r24, r12
     a16:	6a 2d       	mov	r22, r10
     a18:	0e 94 d0 04 	call	0x9a0	; 0x9a0 <send_falling_edge>
			GPIO_High_Nibble_vwrite(port,cmd);
     a1c:	8c 2f       	mov	r24, r28
     a1e:	6e 2d       	mov	r22, r14
     a20:	0e 94 c3 03 	call	0x786	; 0x786 <GPIO_High_Nibble_vwrite>
			GPIO_vwrite_PIN(RS_port,RS_pin,0);
     a24:	8d 2f       	mov	r24, r29
     a26:	60 2f       	mov	r22, r16
     a28:	40 e0       	ldi	r20, 0x00	; 0
     a2a:	0e 94 25 01 	call	0x24a	; 0x24a <GPIO_vwrite_PIN>
			send_falling_edge(EN_port,EN_pin);
     a2e:	8c 2d       	mov	r24, r12
     a30:	6a 2d       	mov	r22, r10
     a32:	0e 94 d0 04 	call	0x9a0	; 0x9a0 <send_falling_edge>
     a36:	8f ec       	ldi	r24, 0xCF	; 207
     a38:	97 e0       	ldi	r25, 0x07	; 7
     a3a:	01 97       	sbiw	r24, 0x01	; 1
     a3c:	f1 f7       	brne	.-4      	; 0xa3a <LCD_vsend_cmd+0x70>
     a3e:	00 c0       	rjmp	.+0      	; 0xa40 <LCD_vsend_cmd+0x76>
     a40:	00 00       	nop
     a42:	22 c0       	rjmp	.+68     	; 0xa88 <LCD_vsend_cmd+0xbe>
			_delay_ms(1);
		}else{
			GPIO_Low_Nibble_vwrite(port,cmd>>4);   
     a44:	6e 2d       	mov	r22, r14
     a46:	62 95       	swap	r22
     a48:	6f 70       	andi	r22, 0x0F	; 15
     a4a:	84 2f       	mov	r24, r20
     a4c:	0e 94 25 04 	call	0x84a	; 0x84a <GPIO_Low_Nibble_vwrite>
			GPIO_vwrite_PIN(RS_port,RS_pin,0);
     a50:	8d 2f       	mov	r24, r29
     a52:	60 2f       	mov	r22, r16
     a54:	40 e0       	ldi	r20, 0x00	; 0
     a56:	0e 94 25 01 	call	0x24a	; 0x24a <GPIO_vwrite_PIN>
			send_falling_edge(EN_port,EN_pin);
     a5a:	8c 2d       	mov	r24, r12
     a5c:	6a 2d       	mov	r22, r10
     a5e:	0e 94 d0 04 	call	0x9a0	; 0x9a0 <send_falling_edge>
			GPIO_Low_Nibble_vwrite(port,cmd);
     a62:	8c 2f       	mov	r24, r28
     a64:	6e 2d       	mov	r22, r14
     a66:	0e 94 25 04 	call	0x84a	; 0x84a <GPIO_Low_Nibble_vwrite>
			GPIO_vwrite_PIN(RS_port,RS_pin,0);
     a6a:	8d 2f       	mov	r24, r29
     a6c:	60 2f       	mov	r22, r16
     a6e:	40 e0       	ldi	r20, 0x00	; 0
     a70:	0e 94 25 01 	call	0x24a	; 0x24a <GPIO_vwrite_PIN>
			send_falling_edge(EN_port,EN_pin);
     a74:	8c 2d       	mov	r24, r12
     a76:	6a 2d       	mov	r22, r10
     a78:	0e 94 d0 04 	call	0x9a0	; 0x9a0 <send_falling_edge>
     a7c:	8f ec       	ldi	r24, 0xCF	; 207
     a7e:	97 e0       	ldi	r25, 0x07	; 7
     a80:	01 97       	sbiw	r24, 0x01	; 1
     a82:	f1 f7       	brne	.-4      	; 0xa80 <LCD_vsend_cmd+0xb6>
     a84:	00 c0       	rjmp	.+0      	; 0xa86 <LCD_vsend_cmd+0xbc>
     a86:	00 00       	nop
			_delay_ms(1);
		}
	}
}
     a88:	df 91       	pop	r29
     a8a:	cf 91       	pop	r28
     a8c:	0f 91       	pop	r16
     a8e:	ef 90       	pop	r14
     a90:	cf 90       	pop	r12
     a92:	af 90       	pop	r10
     a94:	08 95       	ret

00000a96 <LCD_vInit>:
 *
 *  Author: Mahmoud Ayman
 */ 
#include "LCD_ECU.h"

void LCD_vInit(u8 Mode, u8 Nibble ,u8 port, u8 RS_port,u8 RS_pin, u8 RW_port, u8 RW_pin,u8 EN_port,u8 EN_pin){
     a96:	7f 92       	push	r7
     a98:	8f 92       	push	r8
     a9a:	9f 92       	push	r9
     a9c:	af 92       	push	r10
     a9e:	bf 92       	push	r11
     aa0:	cf 92       	push	r12
     aa2:	df 92       	push	r13
     aa4:	ef 92       	push	r14
     aa6:	ff 92       	push	r15
     aa8:	0f 93       	push	r16
     aaa:	1f 93       	push	r17
     aac:	cf 93       	push	r28
     aae:	df 93       	push	r29
     ab0:	cd b7       	in	r28, 0x3d	; 61
     ab2:	de b7       	in	r29, 0x3e	; 62
     ab4:	18 2f       	mov	r17, r24
     ab6:	f6 2e       	mov	r15, r22
     ab8:	74 2e       	mov	r7, r20
     aba:	92 2e       	mov	r9, r18
     abc:	8f ef       	ldi	r24, 0xFF	; 255
     abe:	91 ee       	ldi	r25, 0xE1	; 225
     ac0:	a4 e0       	ldi	r26, 0x04	; 4
     ac2:	81 50       	subi	r24, 0x01	; 1
     ac4:	90 40       	sbci	r25, 0x00	; 0
     ac6:	a0 40       	sbci	r26, 0x00	; 0
     ac8:	e1 f7       	brne	.-8      	; 0xac2 <LCD_vInit+0x2c>
     aca:	00 c0       	rjmp	.+0      	; 0xacc <LCD_vInit+0x36>
     acc:	00 00       	nop
	_delay_ms(200);
	GPIO_vsetPIN_DIR(RS_port,RS_pin,1);
     ace:	82 2f       	mov	r24, r18
     ad0:	60 2f       	mov	r22, r16
     ad2:	41 e0       	ldi	r20, 0x01	; 1
     ad4:	0e 94 94 00 	call	0x128	; 0x128 <GPIO_vsetPIN_DIR>
	GPIO_vsetPIN_DIR(RW_port,RW_pin,1);
     ad8:	8e 2d       	mov	r24, r14
     ada:	6c 2d       	mov	r22, r12
     adc:	41 e0       	ldi	r20, 0x01	; 1
     ade:	0e 94 94 00 	call	0x128	; 0x128 <GPIO_vsetPIN_DIR>
	GPIO_vsetPIN_DIR(EN_port,EN_pin,1);
     ae2:	8a 2d       	mov	r24, r10
     ae4:	68 2d       	mov	r22, r8
     ae6:	41 e0       	ldi	r20, 0x01	; 1
     ae8:	0e 94 94 00 	call	0x128	; 0x128 <GPIO_vsetPIN_DIR>
	if (1==Mode){
     aec:	11 30       	cpi	r17, 0x01	; 1
     aee:	09 f0       	breq	.+2      	; 0xaf2 <LCD_vInit+0x5c>
     af0:	50 c0       	rjmp	.+160    	; 0xb92 <LCD_vInit+0xfc>
		GPIO_vset_PORT_DIR(port,0xff);
     af2:	87 2d       	mov	r24, r7
     af4:	6f ef       	ldi	r22, 0xFF	; 255
     af6:	0e 94 05 03 	call	0x60a	; 0x60a <GPIO_vset_PORT_DIR>
		GPIO_vwrite_PIN(RW_port,RW_pin,0);
     afa:	8e 2d       	mov	r24, r14
     afc:	6c 2d       	mov	r22, r12
     afe:	40 e0       	ldi	r20, 0x00	; 0
     b00:	0e 94 25 01 	call	0x24a	; 0x24a <GPIO_vwrite_PIN>
     b04:	af e2       	ldi	r26, 0x2F	; 47
     b06:	b5 e7       	ldi	r27, 0x75	; 117
     b08:	11 97       	sbiw	r26, 0x01	; 1
     b0a:	f1 f7       	brne	.-4      	; 0xb08 <LCD_vInit+0x72>
     b0c:	00 c0       	rjmp	.+0      	; 0xb0e <LCD_vInit+0x78>
     b0e:	00 00       	nop
		_delay_ms(15);
		LCD_vsend_cmd(Mode,Nibble,port,RS_port,RS_pin,LCD_Function_8BIT_2Lines,EN_port,EN_pin);
     b10:	81 e0       	ldi	r24, 0x01	; 1
     b12:	6f 2d       	mov	r22, r15
     b14:	47 2d       	mov	r20, r7
     b16:	29 2d       	mov	r18, r9
     b18:	0f 2e       	mov	r0, r31
     b1a:	f8 e3       	ldi	r31, 0x38	; 56
     b1c:	ef 2e       	mov	r14, r31
     b1e:	f0 2d       	mov	r31, r0
     b20:	ca 2c       	mov	r12, r10
     b22:	a8 2c       	mov	r10, r8
     b24:	0e 94 e5 04 	call	0x9ca	; 0x9ca <LCD_vsend_cmd>
     b28:	8f ec       	ldi	r24, 0xCF	; 207
     b2a:	97 e0       	ldi	r25, 0x07	; 7
     b2c:	01 97       	sbiw	r24, 0x01	; 1
     b2e:	f1 f7       	brne	.-4      	; 0xb2c <LCD_vInit+0x96>
     b30:	00 c0       	rjmp	.+0      	; 0xb32 <LCD_vInit+0x9c>
     b32:	00 00       	nop
		_delay_ms(1);
		LCD_vsend_cmd(Mode,Nibble,port,RS_port,RS_pin,LCD_DISP_ON_CURSOR_ON,EN_port,EN_pin);
     b34:	81 e0       	ldi	r24, 0x01	; 1
     b36:	6f 2d       	mov	r22, r15
     b38:	47 2d       	mov	r20, r7
     b3a:	29 2d       	mov	r18, r9
     b3c:	0f 2e       	mov	r0, r31
     b3e:	fe e0       	ldi	r31, 0x0E	; 14
     b40:	ef 2e       	mov	r14, r31
     b42:	f0 2d       	mov	r31, r0
     b44:	0e 94 e5 04 	call	0x9ca	; 0x9ca <LCD_vsend_cmd>
     b48:	af ec       	ldi	r26, 0xCF	; 207
     b4a:	b7 e0       	ldi	r27, 0x07	; 7
     b4c:	11 97       	sbiw	r26, 0x01	; 1
     b4e:	f1 f7       	brne	.-4      	; 0xb4c <LCD_vInit+0xb6>
     b50:	00 c0       	rjmp	.+0      	; 0xb52 <LCD_vInit+0xbc>
     b52:	00 00       	nop
		_delay_ms(1);
		LCD_vsend_cmd(Mode,Nibble,port,RS_port,RS_pin,LCD_CLEAR_SCREEN,EN_port,EN_pin);
     b54:	81 e0       	ldi	r24, 0x01	; 1
     b56:	6f 2d       	mov	r22, r15
     b58:	47 2d       	mov	r20, r7
     b5a:	29 2d       	mov	r18, r9
     b5c:	ee 24       	eor	r14, r14
     b5e:	e3 94       	inc	r14
     b60:	0e 94 e5 04 	call	0x9ca	; 0x9ca <LCD_vsend_cmd>
     b64:	8f e1       	ldi	r24, 0x1F	; 31
     b66:	9e e4       	ldi	r25, 0x4E	; 78
     b68:	01 97       	sbiw	r24, 0x01	; 1
     b6a:	f1 f7       	brne	.-4      	; 0xb68 <LCD_vInit+0xd2>
     b6c:	00 c0       	rjmp	.+0      	; 0xb6e <LCD_vInit+0xd8>
     b6e:	00 00       	nop
		_delay_ms(10);
		LCD_vsend_cmd(Mode,Nibble,port,RS_port,RS_pin,LCD_ENTRY_MODE,EN_port,EN_pin);
     b70:	81 e0       	ldi	r24, 0x01	; 1
     b72:	6f 2d       	mov	r22, r15
     b74:	47 2d       	mov	r20, r7
     b76:	29 2d       	mov	r18, r9
     b78:	0f 2e       	mov	r0, r31
     b7a:	f6 e0       	ldi	r31, 0x06	; 6
     b7c:	ef 2e       	mov	r14, r31
     b7e:	f0 2d       	mov	r31, r0
     b80:	0e 94 e5 04 	call	0x9ca	; 0x9ca <LCD_vsend_cmd>
     b84:	af ec       	ldi	r26, 0xCF	; 207
     b86:	b7 e0       	ldi	r27, 0x07	; 7
     b88:	11 97       	sbiw	r26, 0x01	; 1
     b8a:	f1 f7       	brne	.-4      	; 0xb88 <LCD_vInit+0xf2>
     b8c:	00 c0       	rjmp	.+0      	; 0xb8e <LCD_vInit+0xf8>
     b8e:	00 00       	nop
     b90:	b5 c0       	rjmp	.+362    	; 0xcfc <LCD_vInit+0x266>
		_delay_ms(1);
		
	}else{
		if (1==Nibble){
     b92:	b1 e0       	ldi	r27, 0x01	; 1
     b94:	fb 16       	cp	r15, r27
     b96:	09 f0       	breq	.+2      	; 0xb9a <LCD_vInit+0x104>
     b98:	59 c0       	rjmp	.+178    	; 0xc4c <LCD_vInit+0x1b6>
			GPIO_High_Nibble_vset_dir(port,1);
     b9a:	87 2d       	mov	r24, r7
     b9c:	61 e0       	ldi	r22, 0x01	; 1
     b9e:	0e 94 96 03 	call	0x72c	; 0x72c <GPIO_High_Nibble_vset_dir>
			GPIO_vwrite_PIN(RW_port,RW_pin,0);
     ba2:	8e 2d       	mov	r24, r14
     ba4:	6c 2d       	mov	r22, r12
     ba6:	40 e0       	ldi	r20, 0x00	; 0
     ba8:	0e 94 25 01 	call	0x24a	; 0x24a <GPIO_vwrite_PIN>
			LCD_vsend_cmd(Mode,Nibble,port,RS_port,RS_pin,LCD_RETURN_HOME,EN_port,EN_pin);
     bac:	81 2f       	mov	r24, r17
     bae:	61 e0       	ldi	r22, 0x01	; 1
     bb0:	47 2d       	mov	r20, r7
     bb2:	29 2d       	mov	r18, r9
     bb4:	ee 24       	eor	r14, r14
     bb6:	68 94       	set
     bb8:	e1 f8       	bld	r14, 1
     bba:	ca 2c       	mov	r12, r10
     bbc:	a8 2c       	mov	r10, r8
     bbe:	0e 94 e5 04 	call	0x9ca	; 0x9ca <LCD_vsend_cmd>
     bc2:	8f e2       	ldi	r24, 0x2F	; 47
     bc4:	95 e7       	ldi	r25, 0x75	; 117
     bc6:	01 97       	sbiw	r24, 0x01	; 1
     bc8:	f1 f7       	brne	.-4      	; 0xbc6 <LCD_vInit+0x130>
     bca:	00 c0       	rjmp	.+0      	; 0xbcc <LCD_vInit+0x136>
     bcc:	00 00       	nop
			_delay_ms(15);
			LCD_vsend_cmd(Mode,Nibble,port,RS_port,RS_pin,LCD_Function_4BIT_2Lines,EN_port,EN_pin);
     bce:	81 2f       	mov	r24, r17
     bd0:	61 e0       	ldi	r22, 0x01	; 1
     bd2:	47 2d       	mov	r20, r7
     bd4:	29 2d       	mov	r18, r9
     bd6:	0f 2e       	mov	r0, r31
     bd8:	f8 e2       	ldi	r31, 0x28	; 40
     bda:	ef 2e       	mov	r14, r31
     bdc:	f0 2d       	mov	r31, r0
     bde:	0e 94 e5 04 	call	0x9ca	; 0x9ca <LCD_vsend_cmd>
     be2:	af ec       	ldi	r26, 0xCF	; 207
     be4:	b7 e0       	ldi	r27, 0x07	; 7
     be6:	11 97       	sbiw	r26, 0x01	; 1
     be8:	f1 f7       	brne	.-4      	; 0xbe6 <LCD_vInit+0x150>
     bea:	00 c0       	rjmp	.+0      	; 0xbec <LCD_vInit+0x156>
     bec:	00 00       	nop
			_delay_ms(1);
			LCD_vsend_cmd(Mode,Nibble,port,RS_port,RS_pin,LCD_DISP_ON_CURSOR_ON,EN_port,EN_pin);
     bee:	81 2f       	mov	r24, r17
     bf0:	61 e0       	ldi	r22, 0x01	; 1
     bf2:	47 2d       	mov	r20, r7
     bf4:	29 2d       	mov	r18, r9
     bf6:	0f 2e       	mov	r0, r31
     bf8:	fe e0       	ldi	r31, 0x0E	; 14
     bfa:	ef 2e       	mov	r14, r31
     bfc:	f0 2d       	mov	r31, r0
     bfe:	0e 94 e5 04 	call	0x9ca	; 0x9ca <LCD_vsend_cmd>
     c02:	8f ec       	ldi	r24, 0xCF	; 207
     c04:	97 e0       	ldi	r25, 0x07	; 7
     c06:	01 97       	sbiw	r24, 0x01	; 1
     c08:	f1 f7       	brne	.-4      	; 0xc06 <LCD_vInit+0x170>
     c0a:	00 c0       	rjmp	.+0      	; 0xc0c <LCD_vInit+0x176>
     c0c:	00 00       	nop
			_delay_ms(1);
			LCD_vsend_cmd(Mode,Nibble,port,RS_port,RS_pin,LCD_CLEAR_SCREEN,EN_port,EN_pin);
     c0e:	81 2f       	mov	r24, r17
     c10:	61 e0       	ldi	r22, 0x01	; 1
     c12:	47 2d       	mov	r20, r7
     c14:	29 2d       	mov	r18, r9
     c16:	ee 24       	eor	r14, r14
     c18:	e3 94       	inc	r14
     c1a:	0e 94 e5 04 	call	0x9ca	; 0x9ca <LCD_vsend_cmd>
     c1e:	af e1       	ldi	r26, 0x1F	; 31
     c20:	be e4       	ldi	r27, 0x4E	; 78
     c22:	11 97       	sbiw	r26, 0x01	; 1
     c24:	f1 f7       	brne	.-4      	; 0xc22 <LCD_vInit+0x18c>
     c26:	00 c0       	rjmp	.+0      	; 0xc28 <LCD_vInit+0x192>
     c28:	00 00       	nop
			_delay_ms(10);
			LCD_vsend_cmd(Mode,Nibble,port,RS_port,RS_pin,LCD_ENTRY_MODE,EN_port,EN_pin);
     c2a:	81 2f       	mov	r24, r17
     c2c:	61 e0       	ldi	r22, 0x01	; 1
     c2e:	47 2d       	mov	r20, r7
     c30:	29 2d       	mov	r18, r9
     c32:	0f 2e       	mov	r0, r31
     c34:	f6 e0       	ldi	r31, 0x06	; 6
     c36:	ef 2e       	mov	r14, r31
     c38:	f0 2d       	mov	r31, r0
     c3a:	0e 94 e5 04 	call	0x9ca	; 0x9ca <LCD_vsend_cmd>
     c3e:	8f ec       	ldi	r24, 0xCF	; 207
     c40:	97 e0       	ldi	r25, 0x07	; 7
     c42:	01 97       	sbiw	r24, 0x01	; 1
     c44:	f1 f7       	brne	.-4      	; 0xc42 <LCD_vInit+0x1ac>
     c46:	00 c0       	rjmp	.+0      	; 0xc48 <LCD_vInit+0x1b2>
     c48:	00 00       	nop
     c4a:	58 c0       	rjmp	.+176    	; 0xcfc <LCD_vInit+0x266>
			_delay_ms(1);
		}else{
			GPIO_Low_Nibble_vset_dir(port,1);
     c4c:	87 2d       	mov	r24, r7
     c4e:	61 e0       	ldi	r22, 0x01	; 1
     c50:	0e 94 f8 03 	call	0x7f0	; 0x7f0 <GPIO_Low_Nibble_vset_dir>
			GPIO_vwrite_PIN(RW_port,RW_pin,0);
     c54:	8e 2d       	mov	r24, r14
     c56:	6c 2d       	mov	r22, r12
     c58:	40 e0       	ldi	r20, 0x00	; 0
     c5a:	0e 94 25 01 	call	0x24a	; 0x24a <GPIO_vwrite_PIN>
			LCD_vsend_cmd(Mode,Nibble,port,RS_port,RS_pin,LCD_RETURN_HOME,EN_port,EN_pin);
     c5e:	81 2f       	mov	r24, r17
     c60:	6f 2d       	mov	r22, r15
     c62:	47 2d       	mov	r20, r7
     c64:	29 2d       	mov	r18, r9
     c66:	ee 24       	eor	r14, r14
     c68:	68 94       	set
     c6a:	e1 f8       	bld	r14, 1
     c6c:	ca 2c       	mov	r12, r10
     c6e:	a8 2c       	mov	r10, r8
     c70:	0e 94 e5 04 	call	0x9ca	; 0x9ca <LCD_vsend_cmd>
     c74:	af e2       	ldi	r26, 0x2F	; 47
     c76:	b5 e7       	ldi	r27, 0x75	; 117
     c78:	11 97       	sbiw	r26, 0x01	; 1
     c7a:	f1 f7       	brne	.-4      	; 0xc78 <LCD_vInit+0x1e2>
     c7c:	00 c0       	rjmp	.+0      	; 0xc7e <LCD_vInit+0x1e8>
     c7e:	00 00       	nop
			_delay_ms(15);
			LCD_vsend_cmd(Mode,Nibble,port,RS_port,RS_pin,LCD_Function_4BIT_2Lines,EN_port,EN_pin);
     c80:	81 2f       	mov	r24, r17
     c82:	6f 2d       	mov	r22, r15
     c84:	47 2d       	mov	r20, r7
     c86:	29 2d       	mov	r18, r9
     c88:	0f 2e       	mov	r0, r31
     c8a:	f8 e2       	ldi	r31, 0x28	; 40
     c8c:	ef 2e       	mov	r14, r31
     c8e:	f0 2d       	mov	r31, r0
     c90:	0e 94 e5 04 	call	0x9ca	; 0x9ca <LCD_vsend_cmd>
     c94:	8f ec       	ldi	r24, 0xCF	; 207
     c96:	97 e0       	ldi	r25, 0x07	; 7
     c98:	01 97       	sbiw	r24, 0x01	; 1
     c9a:	f1 f7       	brne	.-4      	; 0xc98 <LCD_vInit+0x202>
     c9c:	00 c0       	rjmp	.+0      	; 0xc9e <LCD_vInit+0x208>
     c9e:	00 00       	nop
			_delay_ms(1);
			LCD_vsend_cmd(Mode,Nibble,port,RS_port,RS_pin,LCD_DISP_ON_CURSOR_ON,EN_port,EN_pin);
     ca0:	81 2f       	mov	r24, r17
     ca2:	6f 2d       	mov	r22, r15
     ca4:	47 2d       	mov	r20, r7
     ca6:	29 2d       	mov	r18, r9
     ca8:	0f 2e       	mov	r0, r31
     caa:	fe e0       	ldi	r31, 0x0E	; 14
     cac:	ef 2e       	mov	r14, r31
     cae:	f0 2d       	mov	r31, r0
     cb0:	0e 94 e5 04 	call	0x9ca	; 0x9ca <LCD_vsend_cmd>
     cb4:	af ec       	ldi	r26, 0xCF	; 207
     cb6:	b7 e0       	ldi	r27, 0x07	; 7
     cb8:	11 97       	sbiw	r26, 0x01	; 1
     cba:	f1 f7       	brne	.-4      	; 0xcb8 <LCD_vInit+0x222>
     cbc:	00 c0       	rjmp	.+0      	; 0xcbe <LCD_vInit+0x228>
     cbe:	00 00       	nop
			_delay_ms(1);
			LCD_vsend_cmd(Mode,Nibble,port,RS_port,RS_pin,LCD_CLEAR_SCREEN,EN_port,EN_pin);
     cc0:	81 2f       	mov	r24, r17
     cc2:	6f 2d       	mov	r22, r15
     cc4:	47 2d       	mov	r20, r7
     cc6:	29 2d       	mov	r18, r9
     cc8:	ee 24       	eor	r14, r14
     cca:	e3 94       	inc	r14
     ccc:	0e 94 e5 04 	call	0x9ca	; 0x9ca <LCD_vsend_cmd>
     cd0:	8f e1       	ldi	r24, 0x1F	; 31
     cd2:	9e e4       	ldi	r25, 0x4E	; 78
     cd4:	01 97       	sbiw	r24, 0x01	; 1
     cd6:	f1 f7       	brne	.-4      	; 0xcd4 <LCD_vInit+0x23e>
     cd8:	00 c0       	rjmp	.+0      	; 0xcda <LCD_vInit+0x244>
     cda:	00 00       	nop
			_delay_ms(10);
			LCD_vsend_cmd(Mode,Nibble,port,RS_port,RS_pin,LCD_ENTRY_MODE,EN_port,EN_pin);
     cdc:	81 2f       	mov	r24, r17
     cde:	6f 2d       	mov	r22, r15
     ce0:	47 2d       	mov	r20, r7
     ce2:	29 2d       	mov	r18, r9
     ce4:	0f 2e       	mov	r0, r31
     ce6:	f6 e0       	ldi	r31, 0x06	; 6
     ce8:	ef 2e       	mov	r14, r31
     cea:	f0 2d       	mov	r31, r0
     cec:	0e 94 e5 04 	call	0x9ca	; 0x9ca <LCD_vsend_cmd>
     cf0:	af ec       	ldi	r26, 0xCF	; 207
     cf2:	b7 e0       	ldi	r27, 0x07	; 7
     cf4:	11 97       	sbiw	r26, 0x01	; 1
     cf6:	f1 f7       	brne	.-4      	; 0xcf4 <LCD_vInit+0x25e>
     cf8:	00 c0       	rjmp	.+0      	; 0xcfa <LCD_vInit+0x264>
     cfa:	00 00       	nop
			_delay_ms(1);
		}
	}
}
     cfc:	df 91       	pop	r29
     cfe:	cf 91       	pop	r28
     d00:	1f 91       	pop	r17
     d02:	0f 91       	pop	r16
     d04:	ff 90       	pop	r15
     d06:	ef 90       	pop	r14
     d08:	df 90       	pop	r13
     d0a:	cf 90       	pop	r12
     d0c:	bf 90       	pop	r11
     d0e:	af 90       	pop	r10
     d10:	9f 90       	pop	r9
     d12:	8f 90       	pop	r8
     d14:	7f 90       	pop	r7
     d16:	08 95       	ret

00000d18 <LCD_clear_screen>:
	GPIO_vwrite_PIN(EN_port,EN_pin,1);
	_delay_ms(2);
	GPIO_vwrite_PIN(EN_port,EN_pin,0);
}

void LCD_clear_screen(u8 Mode, u8 Nibble ,u8 port, u8 RS_port,u8 RS_pin,u8 EN_port,u8 EN_pin){
     d18:	af 92       	push	r10
     d1a:	cf 92       	push	r12
     d1c:	ef 92       	push	r14
     d1e:	0f 93       	push	r16
     d20:	9e 2d       	mov	r25, r14
     d22:	ac 2c       	mov	r10, r12
	LCD_vsend_cmd(Mode,Nibble,port,RS_port,RS_pin,LCD_CLEAR_SCREEN,EN_port,EN_pin);
     d24:	ee 24       	eor	r14, r14
     d26:	e3 94       	inc	r14
     d28:	c9 2e       	mov	r12, r25
     d2a:	0e 94 e5 04 	call	0x9ca	; 0x9ca <LCD_vsend_cmd>
     d2e:	8f e1       	ldi	r24, 0x1F	; 31
     d30:	9e e4       	ldi	r25, 0x4E	; 78
     d32:	01 97       	sbiw	r24, 0x01	; 1
     d34:	f1 f7       	brne	.-4      	; 0xd32 <LCD_clear_screen+0x1a>
     d36:	00 c0       	rjmp	.+0      	; 0xd38 <LCD_clear_screen+0x20>
     d38:	00 00       	nop
	_delay_ms(10);
}
     d3a:	0f 91       	pop	r16
     d3c:	ef 90       	pop	r14
     d3e:	cf 90       	pop	r12
     d40:	af 90       	pop	r10
     d42:	08 95       	ret

00000d44 <LCD_Move_Cursor>:

void LCD_Move_Cursor(u8 Mode, u8 Nibble ,u8 port, u8 RS_port,u8 RS_pin,u8 EN_port,u8 EN_pin,u8 line ,u8 position){
     d44:	8f 92       	push	r8
     d46:	af 92       	push	r10
     d48:	cf 92       	push	r12
     d4a:	ef 92       	push	r14
     d4c:	0f 93       	push	r16
     d4e:	cf 93       	push	r28
     d50:	df 93       	push	r29
     d52:	cd b7       	in	r28, 0x3d	; 61
     d54:	de b7       	in	r29, 0x3e	; 62
     d56:	3e 2d       	mov	r19, r14
     d58:	9c 2d       	mov	r25, r12
	u8 data;
	if(line > 3 || line < 1 || position >16 || position <1){
     d5a:	7a 2d       	mov	r23, r10
     d5c:	71 50       	subi	r23, 0x01	; 1
     d5e:	73 30       	cpi	r23, 0x03	; 3
     d60:	88 f4       	brcc	.+34     	; 0xd84 <LCD_Move_Cursor+0x40>
     d62:	70 e1       	ldi	r23, 0x10	; 16
     d64:	78 15       	cp	r23, r8
     d66:	80 f0       	brcs	.+32     	; 0xd88 <LCD_Move_Cursor+0x44>
     d68:	88 20       	and	r8, r8
     d6a:	81 f0       	breq	.+32     	; 0xd8c <LCD_Move_Cursor+0x48>
		data = 0x80;
	}else if (1 == line ){
     d6c:	71 e0       	ldi	r23, 0x01	; 1
     d6e:	a7 16       	cp	r10, r23
     d70:	19 f4       	brne	.+6      	; 0xd78 <LCD_Move_Cursor+0x34>
		data = 0x80 + (position - 1);         
     d72:	58 2d       	mov	r21, r8
     d74:	51 58       	subi	r21, 0x81	; 129
     d76:	0b c0       	rjmp	.+22     	; 0xd8e <LCD_Move_Cursor+0x4a>
	}else if (2 == line){
     d78:	72 e0       	ldi	r23, 0x02	; 2
     d7a:	a7 16       	cp	r10, r23
     d7c:	41 f4       	brne	.+16     	; 0xd8e <LCD_Move_Cursor+0x4a>
		data = 0xC0 + (position - 1);  
     d7e:	58 2d       	mov	r21, r8
     d80:	51 54       	subi	r21, 0x41	; 65
     d82:	05 c0       	rjmp	.+10     	; 0xd8e <LCD_Move_Cursor+0x4a>
}

void LCD_Move_Cursor(u8 Mode, u8 Nibble ,u8 port, u8 RS_port,u8 RS_pin,u8 EN_port,u8 EN_pin,u8 line ,u8 position){
	u8 data;
	if(line > 3 || line < 1 || position >16 || position <1){
		data = 0x80;
     d84:	50 e8       	ldi	r21, 0x80	; 128
     d86:	03 c0       	rjmp	.+6      	; 0xd8e <LCD_Move_Cursor+0x4a>
     d88:	50 e8       	ldi	r21, 0x80	; 128
     d8a:	01 c0       	rjmp	.+2      	; 0xd8e <LCD_Move_Cursor+0x4a>
     d8c:	50 e8       	ldi	r21, 0x80	; 128
	}else if (1 == line ){
		data = 0x80 + (position - 1);         
	}else if (2 == line){
		data = 0xC0 + (position - 1);  
	}
	LCD_vsend_cmd(Mode,Nibble,port,RS_port,RS_pin,data,EN_port,EN_pin);
     d8e:	e5 2e       	mov	r14, r21
     d90:	c3 2e       	mov	r12, r19
     d92:	a9 2e       	mov	r10, r25
     d94:	0e 94 e5 04 	call	0x9ca	; 0x9ca <LCD_vsend_cmd>
     d98:	8f ec       	ldi	r24, 0xCF	; 207
     d9a:	97 e0       	ldi	r25, 0x07	; 7
     d9c:	01 97       	sbiw	r24, 0x01	; 1
     d9e:	f1 f7       	brne	.-4      	; 0xd9c <LCD_Move_Cursor+0x58>
     da0:	00 c0       	rjmp	.+0      	; 0xda2 <LCD_Move_Cursor+0x5e>
     da2:	00 00       	nop
	_delay_ms(1);
}
     da4:	df 91       	pop	r29
     da6:	cf 91       	pop	r28
     da8:	0f 91       	pop	r16
     daa:	ef 90       	pop	r14
     dac:	cf 90       	pop	r12
     dae:	af 90       	pop	r10
     db0:	8f 90       	pop	r8
     db2:	08 95       	ret

00000db4 <LCD_vsend_char>:

void LCD_vsend_char(u8 Mood , u8 Nibble,u8 port ,u8 RS_port ,u8 RS_pin ,u8 EN_port,u8 EN_pin,u8 data){
     db4:	af 92       	push	r10
     db6:	cf 92       	push	r12
     db8:	ef 92       	push	r14
     dba:	0f 93       	push	r16
     dbc:	cf 93       	push	r28
     dbe:	df 93       	push	r29
     dc0:	c4 2f       	mov	r28, r20
     dc2:	d2 2f       	mov	r29, r18
	if (1==Mood){
     dc4:	81 30       	cpi	r24, 0x01	; 1
     dc6:	a1 f4       	brne	.+40     	; 0xdf0 <LCD_vsend_char+0x3c>
		GPIO_vwrite_PORT(port,data);
     dc8:	84 2f       	mov	r24, r20
     dca:	6a 2d       	mov	r22, r10
     dcc:	0e 94 24 03 	call	0x648	; 0x648 <GPIO_vwrite_PORT>
		GPIO_vwrite_PIN(RS_port,RS_pin,1);
     dd0:	8d 2f       	mov	r24, r29
     dd2:	60 2f       	mov	r22, r16
     dd4:	41 e0       	ldi	r20, 0x01	; 1
     dd6:	0e 94 25 01 	call	0x24a	; 0x24a <GPIO_vwrite_PIN>
		send_falling_edge(EN_port,EN_pin);
     dda:	8e 2d       	mov	r24, r14
     ddc:	6c 2d       	mov	r22, r12
     dde:	0e 94 d0 04 	call	0x9a0	; 0x9a0 <send_falling_edge>
     de2:	8f ec       	ldi	r24, 0xCF	; 207
     de4:	97 e0       	ldi	r25, 0x07	; 7
     de6:	01 97       	sbiw	r24, 0x01	; 1
     de8:	f1 f7       	brne	.-4      	; 0xde6 <LCD_vsend_char+0x32>
     dea:	00 c0       	rjmp	.+0      	; 0xdec <LCD_vsend_char+0x38>
     dec:	00 00       	nop
     dee:	47 c0       	rjmp	.+142    	; 0xe7e <LCD_vsend_char+0xca>
		_delay_ms(1);
	}else{
		if (1==Nibble){
     df0:	61 30       	cpi	r22, 0x01	; 1
     df2:	19 f5       	brne	.+70     	; 0xe3a <LCD_vsend_char+0x86>
			GPIO_High_Nibble_vwrite(port,data>>4);
     df4:	6a 2d       	mov	r22, r10
     df6:	62 95       	swap	r22
     df8:	6f 70       	andi	r22, 0x0F	; 15
     dfa:	84 2f       	mov	r24, r20
     dfc:	0e 94 c3 03 	call	0x786	; 0x786 <GPIO_High_Nibble_vwrite>
			GPIO_vwrite_PIN(RS_port,RS_pin,1);
     e00:	8d 2f       	mov	r24, r29
     e02:	60 2f       	mov	r22, r16
     e04:	41 e0       	ldi	r20, 0x01	; 1
     e06:	0e 94 25 01 	call	0x24a	; 0x24a <GPIO_vwrite_PIN>
			send_falling_edge(EN_port,EN_pin);
     e0a:	8e 2d       	mov	r24, r14
     e0c:	6c 2d       	mov	r22, r12
     e0e:	0e 94 d0 04 	call	0x9a0	; 0x9a0 <send_falling_edge>
			GPIO_High_Nibble_vwrite(port,data);
     e12:	8c 2f       	mov	r24, r28
     e14:	6a 2d       	mov	r22, r10
     e16:	0e 94 c3 03 	call	0x786	; 0x786 <GPIO_High_Nibble_vwrite>
			GPIO_vwrite_PIN(RS_port,RS_pin,1);
     e1a:	8d 2f       	mov	r24, r29
     e1c:	60 2f       	mov	r22, r16
     e1e:	41 e0       	ldi	r20, 0x01	; 1
     e20:	0e 94 25 01 	call	0x24a	; 0x24a <GPIO_vwrite_PIN>
			send_falling_edge(EN_port,EN_pin);
     e24:	8e 2d       	mov	r24, r14
     e26:	6c 2d       	mov	r22, r12
     e28:	0e 94 d0 04 	call	0x9a0	; 0x9a0 <send_falling_edge>
     e2c:	8f ec       	ldi	r24, 0xCF	; 207
     e2e:	97 e0       	ldi	r25, 0x07	; 7
     e30:	01 97       	sbiw	r24, 0x01	; 1
     e32:	f1 f7       	brne	.-4      	; 0xe30 <LCD_vsend_char+0x7c>
     e34:	00 c0       	rjmp	.+0      	; 0xe36 <LCD_vsend_char+0x82>
     e36:	00 00       	nop
     e38:	22 c0       	rjmp	.+68     	; 0xe7e <LCD_vsend_char+0xca>
			_delay_ms(1);
		}else{
			GPIO_Low_Nibble_vwrite(port,data>>4);
     e3a:	6a 2d       	mov	r22, r10
     e3c:	62 95       	swap	r22
     e3e:	6f 70       	andi	r22, 0x0F	; 15
     e40:	84 2f       	mov	r24, r20
     e42:	0e 94 25 04 	call	0x84a	; 0x84a <GPIO_Low_Nibble_vwrite>
			GPIO_vwrite_PIN(RS_port,RS_pin,1);
     e46:	8d 2f       	mov	r24, r29
     e48:	60 2f       	mov	r22, r16
     e4a:	41 e0       	ldi	r20, 0x01	; 1
     e4c:	0e 94 25 01 	call	0x24a	; 0x24a <GPIO_vwrite_PIN>
			send_falling_edge(EN_port,EN_pin);
     e50:	8e 2d       	mov	r24, r14
     e52:	6c 2d       	mov	r22, r12
     e54:	0e 94 d0 04 	call	0x9a0	; 0x9a0 <send_falling_edge>
			GPIO_Low_Nibble_vwrite(port,data);
     e58:	8c 2f       	mov	r24, r28
     e5a:	6a 2d       	mov	r22, r10
     e5c:	0e 94 25 04 	call	0x84a	; 0x84a <GPIO_Low_Nibble_vwrite>
			GPIO_vwrite_PIN(RS_port,RS_pin,1);
     e60:	8d 2f       	mov	r24, r29
     e62:	60 2f       	mov	r22, r16
     e64:	41 e0       	ldi	r20, 0x01	; 1
     e66:	0e 94 25 01 	call	0x24a	; 0x24a <GPIO_vwrite_PIN>
			send_falling_edge(EN_port,EN_pin);
     e6a:	8e 2d       	mov	r24, r14
     e6c:	6c 2d       	mov	r22, r12
     e6e:	0e 94 d0 04 	call	0x9a0	; 0x9a0 <send_falling_edge>
     e72:	8f ec       	ldi	r24, 0xCF	; 207
     e74:	97 e0       	ldi	r25, 0x07	; 7
     e76:	01 97       	sbiw	r24, 0x01	; 1
     e78:	f1 f7       	brne	.-4      	; 0xe76 <LCD_vsend_char+0xc2>
     e7a:	00 c0       	rjmp	.+0      	; 0xe7c <LCD_vsend_char+0xc8>
     e7c:	00 00       	nop
			_delay_ms(1);
		}
	}
}
     e7e:	df 91       	pop	r29
     e80:	cf 91       	pop	r28
     e82:	0f 91       	pop	r16
     e84:	ef 90       	pop	r14
     e86:	cf 90       	pop	r12
     e88:	af 90       	pop	r10
     e8a:	08 95       	ret

00000e8c <LCD_vsend_string>:
 
void LCD_vsend_string(u8 Mood , u8 Nibble ,u8 port ,u8 RS_port ,u8 RS_pin ,u8 EN_port,u8 EN_pin,u8 *data){
     e8c:	6f 92       	push	r6
     e8e:	7f 92       	push	r7
     e90:	8f 92       	push	r8
     e92:	9f 92       	push	r9
     e94:	af 92       	push	r10
     e96:	bf 92       	push	r11
     e98:	cf 92       	push	r12
     e9a:	df 92       	push	r13
     e9c:	ef 92       	push	r14
     e9e:	ff 92       	push	r15
     ea0:	0f 93       	push	r16
     ea2:	1f 93       	push	r17
     ea4:	cf 93       	push	r28
     ea6:	df 93       	push	r29
     ea8:	68 2e       	mov	r6, r24
     eaa:	76 2e       	mov	r7, r22
     eac:	84 2e       	mov	r8, r20
     eae:	92 2e       	mov	r9, r18
     eb0:	d0 2e       	mov	r13, r16
     eb2:	fe 2c       	mov	r15, r14
     eb4:	1c 2d       	mov	r17, r12
     eb6:	e5 01       	movw	r28, r10
	while((*data)!='\0'){
     eb8:	a8 80       	ld	r10, Y
     eba:	aa 20       	and	r10, r10
     ebc:	69 f0       	breq	.+26     	; 0xed8 <LCD_vsend_string+0x4c>
			_delay_ms(1);
		}
	}
}
 
void LCD_vsend_string(u8 Mood , u8 Nibble ,u8 port ,u8 RS_port ,u8 RS_pin ,u8 EN_port,u8 EN_pin,u8 *data){
     ebe:	21 96       	adiw	r28, 0x01	; 1
	while((*data)!='\0'){
		LCD_vsend_char(Mood,Nibble,port,RS_port,RS_pin,EN_port,EN_pin,*data);
     ec0:	86 2d       	mov	r24, r6
     ec2:	67 2d       	mov	r22, r7
     ec4:	48 2d       	mov	r20, r8
     ec6:	29 2d       	mov	r18, r9
     ec8:	0d 2d       	mov	r16, r13
     eca:	ef 2c       	mov	r14, r15
     ecc:	c1 2e       	mov	r12, r17
     ece:	0e 94 da 06 	call	0xdb4	; 0xdb4 <LCD_vsend_char>
		}
	}
}
 
void LCD_vsend_string(u8 Mood , u8 Nibble ,u8 port ,u8 RS_port ,u8 RS_pin ,u8 EN_port,u8 EN_pin,u8 *data){
	while((*data)!='\0'){
     ed2:	a9 90       	ld	r10, Y+
     ed4:	aa 20       	and	r10, r10
     ed6:	a1 f7       	brne	.-24     	; 0xec0 <LCD_vsend_string+0x34>
		LCD_vsend_char(Mood,Nibble,port,RS_port,RS_pin,EN_port,EN_pin,*data);
		data++;
	}
}
     ed8:	df 91       	pop	r29
     eda:	cf 91       	pop	r28
     edc:	1f 91       	pop	r17
     ede:	0f 91       	pop	r16
     ee0:	ff 90       	pop	r15
     ee2:	ef 90       	pop	r14
     ee4:	df 90       	pop	r13
     ee6:	cf 90       	pop	r12
     ee8:	bf 90       	pop	r11
     eea:	af 90       	pop	r10
     eec:	9f 90       	pop	r9
     eee:	8f 90       	pop	r8
     ef0:	7f 90       	pop	r7
     ef2:	6f 90       	pop	r6
     ef4:	08 95       	ret

00000ef6 <LCD_display_number>:

void LCD_display_number(u8 Mood , u8 Nibble ,u8 port ,u8 RS_port ,u8 RS_pin ,u8 EN_port,u8 EN_pin,u32 Number){
     ef6:	7f 92       	push	r7
     ef8:	8f 92       	push	r8
     efa:	9f 92       	push	r9
     efc:	af 92       	push	r10
     efe:	bf 92       	push	r11
     f00:	cf 92       	push	r12
     f02:	df 92       	push	r13
     f04:	ef 92       	push	r14
     f06:	ff 92       	push	r15
     f08:	0f 93       	push	r16
     f0a:	1f 93       	push	r17
     f0c:	cf 93       	push	r28
     f0e:	df 93       	push	r29
     f10:	cd b7       	in	r28, 0x3d	; 61
     f12:	de b7       	in	r29, 0x3e	; 62
     f14:	27 97       	sbiw	r28, 0x07	; 7
     f16:	0f b6       	in	r0, 0x3f	; 63
     f18:	f8 94       	cli
     f1a:	de bf       	out	0x3e, r29	; 62
     f1c:	0f be       	out	0x3f, r0	; 63
     f1e:	cd bf       	out	0x3d, r28	; 61
     f20:	18 2f       	mov	r17, r24
     f22:	f6 2e       	mov	r15, r22
     f24:	d4 2e       	mov	r13, r20
     f26:	72 2e       	mov	r7, r18
     f28:	d5 01       	movw	r26, r10
     f2a:	c4 01       	movw	r24, r8
	u8 str[7]; 
	sprintf(str,"%d",Number);
     f2c:	2d b7       	in	r18, 0x3d	; 61
     f2e:	3e b7       	in	r19, 0x3e	; 62
     f30:	28 50       	subi	r18, 0x08	; 8
     f32:	30 40       	sbci	r19, 0x00	; 0
     f34:	0f b6       	in	r0, 0x3f	; 63
     f36:	f8 94       	cli
     f38:	3e bf       	out	0x3e, r19	; 62
     f3a:	0f be       	out	0x3f, r0	; 63
     f3c:	2d bf       	out	0x3d, r18	; 61
     f3e:	4d b7       	in	r20, 0x3d	; 61
     f40:	5e b7       	in	r21, 0x3e	; 62
     f42:	4f 5f       	subi	r20, 0xFF	; 255
     f44:	5f 4f       	sbci	r21, 0xFF	; 255
     f46:	5e 01       	movw	r10, r28
     f48:	08 94       	sec
     f4a:	a1 1c       	adc	r10, r1
     f4c:	b1 1c       	adc	r11, r1
     f4e:	ed b7       	in	r30, 0x3d	; 61
     f50:	fe b7       	in	r31, 0x3e	; 62
     f52:	b2 82       	std	Z+2, r11	; 0x02
     f54:	a1 82       	std	Z+1, r10	; 0x01
     f56:	20 e7       	ldi	r18, 0x70	; 112
     f58:	30 e0       	ldi	r19, 0x00	; 0
     f5a:	fa 01       	movw	r30, r20
     f5c:	33 83       	std	Z+3, r19	; 0x03
     f5e:	22 83       	std	Z+2, r18	; 0x02
     f60:	84 83       	std	Z+4, r24	; 0x04
     f62:	95 83       	std	Z+5, r25	; 0x05
     f64:	a6 83       	std	Z+6, r26	; 0x06
     f66:	b7 83       	std	Z+7, r27	; 0x07
     f68:	0e 94 e0 13 	call	0x27c0	; 0x27c0 <sprintf>
	LCD_vsend_string(Mood,Nibble,port,RS_port,RS_pin,EN_port,EN_pin,str);
     f6c:	2d b7       	in	r18, 0x3d	; 61
     f6e:	3e b7       	in	r19, 0x3e	; 62
     f70:	28 5f       	subi	r18, 0xF8	; 248
     f72:	3f 4f       	sbci	r19, 0xFF	; 255
     f74:	0f b6       	in	r0, 0x3f	; 63
     f76:	f8 94       	cli
     f78:	3e bf       	out	0x3e, r19	; 62
     f7a:	0f be       	out	0x3f, r0	; 63
     f7c:	2d bf       	out	0x3d, r18	; 61
     f7e:	81 2f       	mov	r24, r17
     f80:	6f 2d       	mov	r22, r15
     f82:	4d 2d       	mov	r20, r13
     f84:	27 2d       	mov	r18, r7
     f86:	0e 94 46 07 	call	0xe8c	; 0xe8c <LCD_vsend_string>
}
     f8a:	27 96       	adiw	r28, 0x07	; 7
     f8c:	0f b6       	in	r0, 0x3f	; 63
     f8e:	f8 94       	cli
     f90:	de bf       	out	0x3e, r29	; 62
     f92:	0f be       	out	0x3f, r0	; 63
     f94:	cd bf       	out	0x3d, r28	; 61
     f96:	df 91       	pop	r29
     f98:	cf 91       	pop	r28
     f9a:	1f 91       	pop	r17
     f9c:	0f 91       	pop	r16
     f9e:	ff 90       	pop	r15
     fa0:	ef 90       	pop	r14
     fa2:	df 90       	pop	r13
     fa4:	cf 90       	pop	r12
     fa6:	bf 90       	pop	r11
     fa8:	af 90       	pop	r10
     faa:	9f 90       	pop	r9
     fac:	8f 90       	pop	r8
     fae:	7f 90       	pop	r7
     fb0:	08 95       	ret

00000fb2 <LCD_display_real_number>:

void LCD_display_real_number(u8 Mood , u8 Nibble ,u8 port ,u8 RS_port ,u8 RS_pin ,u8 EN_port,u8 EN_pin,f64 Number){
     fb2:	2f 92       	push	r2
     fb4:	3f 92       	push	r3
     fb6:	4f 92       	push	r4
     fb8:	5f 92       	push	r5
     fba:	6f 92       	push	r6
     fbc:	7f 92       	push	r7
     fbe:	8f 92       	push	r8
     fc0:	9f 92       	push	r9
     fc2:	af 92       	push	r10
     fc4:	bf 92       	push	r11
     fc6:	cf 92       	push	r12
     fc8:	df 92       	push	r13
     fca:	ef 92       	push	r14
     fcc:	ff 92       	push	r15
     fce:	0f 93       	push	r16
     fd0:	1f 93       	push	r17
     fd2:	cf 93       	push	r28
     fd4:	df 93       	push	r29
     fd6:	cd b7       	in	r28, 0x3d	; 61
     fd8:	de b7       	in	r29, 0x3e	; 62
     fda:	61 97       	sbiw	r28, 0x11	; 17
     fdc:	0f b6       	in	r0, 0x3f	; 63
     fde:	f8 94       	cli
     fe0:	de bf       	out	0x3e, r29	; 62
     fe2:	0f be       	out	0x3f, r0	; 63
     fe4:	cd bf       	out	0x3d, r28	; 61
     fe6:	18 2f       	mov	r17, r24
     fe8:	f6 2e       	mov	r15, r22
     fea:	d4 2e       	mov	r13, r20
     fec:	29 8b       	std	Y+17, r18	; 0x11
	u8 str [16];
	u8 *tmpsign = (Number < 0) ? "-": "";
     fee:	c5 01       	movw	r24, r10
     ff0:	b4 01       	movw	r22, r8
     ff2:	20 e0       	ldi	r18, 0x00	; 0
     ff4:	30 e0       	ldi	r19, 0x00	; 0
     ff6:	a9 01       	movw	r20, r18
     ff8:	0e 94 e5 11 	call	0x23ca	; 0x23ca <__cmpsf2>
     ffc:	88 23       	and	r24, r24
     ffe:	6c f4       	brge	.+26     	; 0x101a <LCD_display_real_number+0x68>
	f32 tmpval = (Number < 0) ? -Number : Number;
    1000:	24 01       	movw	r4, r8
    1002:	35 01       	movw	r6, r10
    1004:	77 fa       	bst	r7, 7
    1006:	70 94       	com	r7
    1008:	77 f8       	bld	r7, 7
    100a:	70 94       	com	r7
	LCD_vsend_string(Mood,Nibble,port,RS_port,RS_pin,EN_port,EN_pin,str);
}

void LCD_display_real_number(u8 Mood , u8 Nibble ,u8 port ,u8 RS_port ,u8 RS_pin ,u8 EN_port,u8 EN_pin,f64 Number){
	u8 str [16];
	u8 *tmpsign = (Number < 0) ? "-": "";
    100c:	0f 2e       	mov	r0, r31
    100e:	f3 e7       	ldi	r31, 0x73	; 115
    1010:	2f 2e       	mov	r2, r31
    1012:	f0 e0       	ldi	r31, 0x00	; 0
    1014:	3f 2e       	mov	r3, r31
    1016:	f0 2d       	mov	r31, r0
    1018:	08 c0       	rjmp	.+16     	; 0x102a <LCD_display_real_number+0x78>
	f32 tmpval = (Number < 0) ? -Number : Number;
    101a:	24 01       	movw	r4, r8
    101c:	35 01       	movw	r6, r10
	LCD_vsend_string(Mood,Nibble,port,RS_port,RS_pin,EN_port,EN_pin,str);
}

void LCD_display_real_number(u8 Mood , u8 Nibble ,u8 port ,u8 RS_port ,u8 RS_pin ,u8 EN_port,u8 EN_pin,f64 Number){
	u8 str [16];
	u8 *tmpsign = (Number < 0) ? "-": "";
    101e:	0f 2e       	mov	r0, r31
    1020:	f5 e7       	ldi	r31, 0x75	; 117
    1022:	2f 2e       	mov	r2, r31
    1024:	f0 e0       	ldi	r31, 0x00	; 0
    1026:	3f 2e       	mov	r3, r31
    1028:	f0 2d       	mov	r31, r0
	f32 tmpval = (Number < 0) ? -Number : Number;
	s32 tmpInt1 = tmpval;
    102a:	c3 01       	movw	r24, r6
    102c:	b2 01       	movw	r22, r4
    102e:	0e 94 51 12 	call	0x24a2	; 0x24a2 <__fixsfsi>
	f32 tmpFrac = tmpval - tmpInt1;
	s32 tmpInt2 = tmpFrac * 10000;
	sprintf(str, "%s%d.%04d", tmpsign,tmpInt1,tmpInt2);
    1032:	2d b7       	in	r18, 0x3d	; 61
    1034:	3e b7       	in	r19, 0x3e	; 62
    1036:	2e 50       	subi	r18, 0x0E	; 14
    1038:	30 40       	sbci	r19, 0x00	; 0
    103a:	0f b6       	in	r0, 0x3f	; 63
    103c:	f8 94       	cli
    103e:	3e bf       	out	0x3e, r19	; 62
    1040:	0f be       	out	0x3f, r0	; 63
    1042:	2d bf       	out	0x3d, r18	; 61
    1044:	8d b6       	in	r8, 0x3d	; 61
    1046:	9e b6       	in	r9, 0x3e	; 62
    1048:	08 94       	sec
    104a:	81 1c       	adc	r8, r1
    104c:	91 1c       	adc	r9, r1
    104e:	5e 01       	movw	r10, r28
    1050:	08 94       	sec
    1052:	a1 1c       	adc	r10, r1
    1054:	b1 1c       	adc	r11, r1
    1056:	ed b7       	in	r30, 0x3d	; 61
    1058:	fe b7       	in	r31, 0x3e	; 62
    105a:	b2 82       	std	Z+2, r11	; 0x02
    105c:	a1 82       	std	Z+1, r10	; 0x01
    105e:	26 e7       	ldi	r18, 0x76	; 118
    1060:	30 e0       	ldi	r19, 0x00	; 0
    1062:	f4 01       	movw	r30, r8
    1064:	33 83       	std	Z+3, r19	; 0x03
    1066:	22 83       	std	Z+2, r18	; 0x02
    1068:	35 82       	std	Z+5, r3	; 0x05
    106a:	24 82       	std	Z+4, r2	; 0x04
    106c:	66 83       	std	Z+6, r22	; 0x06
    106e:	77 83       	std	Z+7, r23	; 0x07
    1070:	80 87       	std	Z+8, r24	; 0x08
    1072:	91 87       	std	Z+9, r25	; 0x09
void LCD_display_real_number(u8 Mood , u8 Nibble ,u8 port ,u8 RS_port ,u8 RS_pin ,u8 EN_port,u8 EN_pin,f64 Number){
	u8 str [16];
	u8 *tmpsign = (Number < 0) ? "-": "";
	f32 tmpval = (Number < 0) ? -Number : Number;
	s32 tmpInt1 = tmpval;
	f32 tmpFrac = tmpval - tmpInt1;
    1074:	0e 94 84 12 	call	0x2508	; 0x2508 <__floatsisf>
    1078:	9b 01       	movw	r18, r22
    107a:	ac 01       	movw	r20, r24
    107c:	c3 01       	movw	r24, r6
    107e:	b2 01       	movw	r22, r4
    1080:	0e 94 80 11 	call	0x2300	; 0x2300 <__subsf3>
	s32 tmpInt2 = tmpFrac * 10000;
    1084:	20 e0       	ldi	r18, 0x00	; 0
    1086:	30 e4       	ldi	r19, 0x40	; 64
    1088:	4c e1       	ldi	r20, 0x1C	; 28
    108a:	56 e4       	ldi	r21, 0x46	; 70
    108c:	0e 94 34 13 	call	0x2668	; 0x2668 <__mulsf3>
    1090:	0e 94 51 12 	call	0x24a2	; 0x24a2 <__fixsfsi>
    1094:	dc 01       	movw	r26, r24
    1096:	cb 01       	movw	r24, r22
	sprintf(str, "%s%d.%04d", tmpsign,tmpInt1,tmpInt2);
    1098:	f4 01       	movw	r30, r8
    109a:	82 87       	std	Z+10, r24	; 0x0a
    109c:	93 87       	std	Z+11, r25	; 0x0b
    109e:	a4 87       	std	Z+12, r26	; 0x0c
    10a0:	b5 87       	std	Z+13, r27	; 0x0d
    10a2:	0e 94 e0 13 	call	0x27c0	; 0x27c0 <sprintf>
	LCD_vsend_string(Mood,Nibble,port,RS_port,RS_pin,EN_port,EN_pin,str);
    10a6:	2d b7       	in	r18, 0x3d	; 61
    10a8:	3e b7       	in	r19, 0x3e	; 62
    10aa:	22 5f       	subi	r18, 0xF2	; 242
    10ac:	3f 4f       	sbci	r19, 0xFF	; 255
    10ae:	0f b6       	in	r0, 0x3f	; 63
    10b0:	f8 94       	cli
    10b2:	3e bf       	out	0x3e, r19	; 62
    10b4:	0f be       	out	0x3f, r0	; 63
    10b6:	2d bf       	out	0x3d, r18	; 61
    10b8:	81 2f       	mov	r24, r17
    10ba:	6f 2d       	mov	r22, r15
    10bc:	4d 2d       	mov	r20, r13
    10be:	29 89       	ldd	r18, Y+17	; 0x11
    10c0:	0e 94 46 07 	call	0xe8c	; 0xe8c <LCD_vsend_string>
    10c4:	61 96       	adiw	r28, 0x11	; 17
    10c6:	0f b6       	in	r0, 0x3f	; 63
    10c8:	f8 94       	cli
    10ca:	de bf       	out	0x3e, r29	; 62
    10cc:	0f be       	out	0x3f, r0	; 63
    10ce:	cd bf       	out	0x3d, r28	; 61
    10d0:	df 91       	pop	r29
    10d2:	cf 91       	pop	r28
    10d4:	1f 91       	pop	r17
    10d6:	0f 91       	pop	r16
    10d8:	ff 90       	pop	r15
    10da:	ef 90       	pop	r14
    10dc:	df 90       	pop	r13
    10de:	cf 90       	pop	r12
    10e0:	bf 90       	pop	r11
    10e2:	af 90       	pop	r10
    10e4:	9f 90       	pop	r9
    10e6:	8f 90       	pop	r8
    10e8:	7f 90       	pop	r7
    10ea:	6f 90       	pop	r6
    10ec:	5f 90       	pop	r5
    10ee:	4f 90       	pop	r4
    10f0:	3f 90       	pop	r3
    10f2:	2f 90       	pop	r2
    10f4:	08 95       	ret

000010f6 <LDR_sensor_vInit>:
 * LDR_ECU.c
 *
 *  Author: Mahmoud Ayman
 */ 
#include "LDR_ECU.h"
void LDR_sensor_vInit(u8 pin){
    10f6:	cf 93       	push	r28
    10f8:	c8 2f       	mov	r28, r24
	ADC_vInit();
    10fa:	0e 94 49 00 	call	0x92	; 0x92 <ADC_vInit>
	switch(pin){		
    10fe:	c3 30       	cpi	r28, 0x03	; 3
    1100:	11 f1       	breq	.+68     	; 0x1146 <LDR_sensor_vInit+0x50>
    1102:	c4 30       	cpi	r28, 0x04	; 4
    1104:	28 f4       	brcc	.+10     	; 0x1110 <LDR_sensor_vInit+0x1a>
    1106:	c1 30       	cpi	r28, 0x01	; 1
    1108:	91 f0       	breq	.+36     	; 0x112e <LDR_sensor_vInit+0x38>
    110a:	c2 30       	cpi	r28, 0x02	; 2
    110c:	b0 f4       	brcc	.+44     	; 0x113a <LDR_sensor_vInit+0x44>
    110e:	09 c0       	rjmp	.+18     	; 0x1122 <LDR_sensor_vInit+0x2c>
    1110:	c5 30       	cpi	r28, 0x05	; 5
    1112:	29 f1       	breq	.+74     	; 0x115e <LDR_sensor_vInit+0x68>
    1114:	c5 30       	cpi	r28, 0x05	; 5
    1116:	e8 f0       	brcs	.+58     	; 0x1152 <LDR_sensor_vInit+0x5c>
    1118:	c6 30       	cpi	r28, 0x06	; 6
    111a:	39 f1       	breq	.+78     	; 0x116a <LDR_sensor_vInit+0x74>
    111c:	c7 30       	cpi	r28, 0x07	; 7
    111e:	81 f5       	brne	.+96     	; 0x1180 <LDR_sensor_vInit+0x8a>
    1120:	2a c0       	rjmp	.+84     	; 0x1176 <LDR_sensor_vInit+0x80>
		case 0 :
		GPIO_vsetPIN_DIR('A',0,0);  
    1122:	81 e4       	ldi	r24, 0x41	; 65
    1124:	60 e0       	ldi	r22, 0x00	; 0
    1126:	40 e0       	ldi	r20, 0x00	; 0
    1128:	0e 94 94 00 	call	0x128	; 0x128 <GPIO_vsetPIN_DIR>
		break;
    112c:	29 c0       	rjmp	.+82     	; 0x1180 <LDR_sensor_vInit+0x8a>
		case 1 :
		GPIO_vsetPIN_DIR('A',1,0);
    112e:	81 e4       	ldi	r24, 0x41	; 65
    1130:	61 e0       	ldi	r22, 0x01	; 1
    1132:	40 e0       	ldi	r20, 0x00	; 0
    1134:	0e 94 94 00 	call	0x128	; 0x128 <GPIO_vsetPIN_DIR>
		break;
    1138:	23 c0       	rjmp	.+70     	; 0x1180 <LDR_sensor_vInit+0x8a>
		case 2 :
		GPIO_vsetPIN_DIR('A',2,0);
    113a:	81 e4       	ldi	r24, 0x41	; 65
    113c:	62 e0       	ldi	r22, 0x02	; 2
    113e:	40 e0       	ldi	r20, 0x00	; 0
    1140:	0e 94 94 00 	call	0x128	; 0x128 <GPIO_vsetPIN_DIR>
		break;
    1144:	1d c0       	rjmp	.+58     	; 0x1180 <LDR_sensor_vInit+0x8a>
		case 3 :
		GPIO_vsetPIN_DIR('A',3,0);
    1146:	81 e4       	ldi	r24, 0x41	; 65
    1148:	63 e0       	ldi	r22, 0x03	; 3
    114a:	40 e0       	ldi	r20, 0x00	; 0
    114c:	0e 94 94 00 	call	0x128	; 0x128 <GPIO_vsetPIN_DIR>
		break;
    1150:	17 c0       	rjmp	.+46     	; 0x1180 <LDR_sensor_vInit+0x8a>
		case 4 :
		GPIO_vsetPIN_DIR('A',4,0);
    1152:	81 e4       	ldi	r24, 0x41	; 65
    1154:	64 e0       	ldi	r22, 0x04	; 4
    1156:	40 e0       	ldi	r20, 0x00	; 0
    1158:	0e 94 94 00 	call	0x128	; 0x128 <GPIO_vsetPIN_DIR>
		break;
    115c:	11 c0       	rjmp	.+34     	; 0x1180 <LDR_sensor_vInit+0x8a>
		case 5 :
		GPIO_vsetPIN_DIR('A',5,0);
    115e:	81 e4       	ldi	r24, 0x41	; 65
    1160:	65 e0       	ldi	r22, 0x05	; 5
    1162:	40 e0       	ldi	r20, 0x00	; 0
    1164:	0e 94 94 00 	call	0x128	; 0x128 <GPIO_vsetPIN_DIR>
		break;
    1168:	0b c0       	rjmp	.+22     	; 0x1180 <LDR_sensor_vInit+0x8a>
		case 6 :
		GPIO_vsetPIN_DIR('A',6,0);
    116a:	81 e4       	ldi	r24, 0x41	; 65
    116c:	66 e0       	ldi	r22, 0x06	; 6
    116e:	40 e0       	ldi	r20, 0x00	; 0
    1170:	0e 94 94 00 	call	0x128	; 0x128 <GPIO_vsetPIN_DIR>
		break;
    1174:	05 c0       	rjmp	.+10     	; 0x1180 <LDR_sensor_vInit+0x8a>
		case 7 :
		GPIO_vsetPIN_DIR('A',7,0);
    1176:	81 e4       	ldi	r24, 0x41	; 65
    1178:	67 e0       	ldi	r22, 0x07	; 7
    117a:	40 e0       	ldi	r20, 0x00	; 0
    117c:	0e 94 94 00 	call	0x128	; 0x128 <GPIO_vsetPIN_DIR>
		break;
	}
}
    1180:	cf 91       	pop	r28
    1182:	08 95       	ret

00001184 <LDR_sensor_u16Read>:

u16 LDR_sensor_u16Read(u8 pin){
	u16 intensity ;
	
	intensity = ADC_u16Read_Single_Endded(pin);
    1184:	0e 94 50 00 	call	0xa0	; 0xa0 <ADC_u16Read_Single_Endded>
	
	return intensity;
    1188:	08 95       	ret

0000118a <LED_vintialize>:
 * It is in ECU abstraction layer 
 */

#include "GPIO_MCAL.h"
void LED_vintialize(u8 port , u8 pin){
	GPIO_vsetPIN_DIR(port, pin, 1);
    118a:	41 e0       	ldi	r20, 0x01	; 1
    118c:	0e 94 94 00 	call	0x128	; 0x128 <GPIO_vsetPIN_DIR>
}
    1190:	08 95       	ret

00001192 <LED_vTurnon>:
void LED_vTurnon(u8 port, u8 pin){
	GPIO_vwrite_PIN(port,pin,1);
    1192:	41 e0       	ldi	r20, 0x01	; 1
    1194:	0e 94 25 01 	call	0x24a	; 0x24a <GPIO_vwrite_PIN>
}
    1198:	08 95       	ret

0000119a <LED_vTurnoff>:
void LED_vTurnoff(u8 port, u8 pin){
	GPIO_vwrite_PIN(port,pin,0);
    119a:	40 e0       	ldi	r20, 0x00	; 0
    119c:	0e 94 25 01 	call	0x24a	; 0x24a <GPIO_vwrite_PIN>
}
    11a0:	08 95       	ret

000011a2 <LED_vtoggle>:
void LED_vtoggle(u8 port, u8 pin){
	GPIO_vtoggle_PIN(port,pin);
    11a2:	0e 94 1b 02 	call	0x436	; 0x436 <GPIO_vtoggle_PIN>
    11a6:	08 95       	ret

000011a8 <Motor_get_config>:
 *
 *  Author: Mahmoud Ayman
 */ 
#include "Motor_ECU.h"
void Motor_get_config(u8 Motor_Type , u8 Motor_Port , u8 Pin1 , u8 Pin2){
	Motor_config.M_Type = Motor_Type ;
    11a8:	80 93 b1 00 	sts	0x00B1, r24
	Motor_config.M_Port = Motor_Port ;
    11ac:	60 93 b2 00 	sts	0x00B2, r22
	Motor_config.IN1    = Pin1;
    11b0:	40 93 b3 00 	sts	0x00B3, r20
	Motor_config.IN2    = Pin2;
    11b4:	20 93 b4 00 	sts	0x00B4, r18
}
    11b8:	08 95       	ret

000011ba <DC_Motor_without_PWM_Init>:

void DC_Motor_without_PWM_Init(void){
	if (Motor_config.M_Type == DC_Motor){
    11ba:	80 91 b1 00 	lds	r24, 0x00B1
    11be:	88 23       	and	r24, r24
    11c0:	71 f4       	brne	.+28     	; 0x11de <DC_Motor_without_PWM_Init+0x24>
		GPIO_vsetPIN_DIR(Motor_config.M_Port , Motor_config.IN1 , 1);
    11c2:	80 91 b2 00 	lds	r24, 0x00B2
    11c6:	60 91 b3 00 	lds	r22, 0x00B3
    11ca:	41 e0       	ldi	r20, 0x01	; 1
    11cc:	0e 94 94 00 	call	0x128	; 0x128 <GPIO_vsetPIN_DIR>
		GPIO_vsetPIN_DIR(Motor_config.M_Port , Motor_config.IN2 , 1);
    11d0:	80 91 b2 00 	lds	r24, 0x00B2
    11d4:	60 91 b4 00 	lds	r22, 0x00B4
    11d8:	41 e0       	ldi	r20, 0x01	; 1
    11da:	0e 94 94 00 	call	0x128	; 0x128 <GPIO_vsetPIN_DIR>
    11de:	08 95       	ret

000011e0 <DC_Motor_without_PWM_Move_Forward>:
		
	}
}

void DC_Motor_without_PWM_Move_Forward(void){
	if (Motor_config.M_Type == DC_Motor){
    11e0:	80 91 b1 00 	lds	r24, 0x00B1
    11e4:	88 23       	and	r24, r24
    11e6:	71 f4       	brne	.+28     	; 0x1204 <DC_Motor_without_PWM_Move_Forward+0x24>
		GPIO_vwrite_PIN(Motor_config.M_Port , Motor_config.IN1 , 1);
    11e8:	80 91 b2 00 	lds	r24, 0x00B2
    11ec:	60 91 b3 00 	lds	r22, 0x00B3
    11f0:	41 e0       	ldi	r20, 0x01	; 1
    11f2:	0e 94 25 01 	call	0x24a	; 0x24a <GPIO_vwrite_PIN>
		GPIO_vwrite_PIN(Motor_config.M_Port , Motor_config.IN2 , 0);
    11f6:	80 91 b2 00 	lds	r24, 0x00B2
    11fa:	60 91 b4 00 	lds	r22, 0x00B4
    11fe:	40 e0       	ldi	r20, 0x00	; 0
    1200:	0e 94 25 01 	call	0x24a	; 0x24a <GPIO_vwrite_PIN>
    1204:	08 95       	ret

00001206 <DC_Motor_without_PWM_Move_Backward>:
		
	}
}

void DC_Motor_without_PWM_Move_Backward(void){
	if (Motor_config.M_Type == DC_Motor){
    1206:	80 91 b1 00 	lds	r24, 0x00B1
    120a:	88 23       	and	r24, r24
    120c:	71 f4       	brne	.+28     	; 0x122a <DC_Motor_without_PWM_Move_Backward+0x24>
		GPIO_vwrite_PIN(Motor_config.M_Port , Motor_config.IN1 , 0);
    120e:	80 91 b2 00 	lds	r24, 0x00B2
    1212:	60 91 b3 00 	lds	r22, 0x00B3
    1216:	40 e0       	ldi	r20, 0x00	; 0
    1218:	0e 94 25 01 	call	0x24a	; 0x24a <GPIO_vwrite_PIN>
		GPIO_vwrite_PIN(Motor_config.M_Port , Motor_config.IN2 , 1);
    121c:	80 91 b2 00 	lds	r24, 0x00B2
    1220:	60 91 b4 00 	lds	r22, 0x00B4
    1224:	41 e0       	ldi	r20, 0x01	; 1
    1226:	0e 94 25 01 	call	0x24a	; 0x24a <GPIO_vwrite_PIN>
    122a:	08 95       	ret

0000122c <DC_Motor_with_PWM_Init>:
		
	}
}

void DC_Motor_with_PWM_Init(){
	if (Motor_config.M_Type == DC_Motor){
    122c:	80 91 b1 00 	lds	r24, 0x00B1
    1230:	88 23       	and	r24, r24
    1232:	91 f4       	brne	.+36     	; 0x1258 <DC_Motor_with_PWM_Init+0x2c>
		TMR0_Get_Configuration(Fast_PWM_Mode,TOIE0_disable,OCIE0_disable,NO_PRESCALING);
    1234:	83 e0       	ldi	r24, 0x03	; 3
    1236:	61 e0       	ldi	r22, 0x01	; 1
    1238:	41 e0       	ldi	r20, 0x01	; 1
    123a:	21 e0       	ldi	r18, 0x01	; 1
    123c:	0e 94 35 0a 	call	0x146a	; 0x146a <TMR0_Get_Configuration>
		GPIO_vsetPIN_DIR('B',3,1);
    1240:	82 e4       	ldi	r24, 0x42	; 66
    1242:	63 e0       	ldi	r22, 0x03	; 3
    1244:	41 e0       	ldi	r20, 0x01	; 1
    1246:	0e 94 94 00 	call	0x128	; 0x128 <GPIO_vsetPIN_DIR>
		GPIO_vsetPIN_DIR(Motor_config.M_Port , Motor_config.IN2 , 1);
    124a:	80 91 b2 00 	lds	r24, 0x00B2
    124e:	60 91 b4 00 	lds	r22, 0x00B4
    1252:	41 e0       	ldi	r20, 0x01	; 1
    1254:	0e 94 94 00 	call	0x128	; 0x128 <GPIO_vsetPIN_DIR>
    1258:	08 95       	ret

0000125a <DC_Motor_with_PWM_Move>:
		
	}
}

void DC_Motor_with_PWM_Move(u8 power){
	if (Motor_config.M_Type == DC_Motor){
    125a:	90 91 b1 00 	lds	r25, 0x00B1
    125e:	99 23       	and	r25, r25
    1260:	49 f4       	brne	.+18     	; 0x1274 <DC_Motor_with_PWM_Move+0x1a>
		TMR0_Fast_PWM_Gen(power);
    1262:	0e 94 a4 0a 	call	0x1548	; 0x1548 <TMR0_Fast_PWM_Gen>
		GPIO_vwrite_PIN(Motor_config.M_Port , Motor_config.IN2 , 0);
    1266:	80 91 b2 00 	lds	r24, 0x00B2
    126a:	60 91 b4 00 	lds	r22, 0x00B4
    126e:	40 e0       	ldi	r20, 0x00	; 0
    1270:	0e 94 25 01 	call	0x24a	; 0x24a <GPIO_vwrite_PIN>
    1274:	08 95       	ret

00001276 <Servo_Motor_move>:
}

void Servo_Motor_move(s8 degree){
	f64 Time;
	
	Time = (degree*0.5)/90;
    1276:	68 2f       	mov	r22, r24
    1278:	77 27       	eor	r23, r23
    127a:	67 fd       	sbrc	r22, 7
    127c:	70 95       	com	r23
    127e:	87 2f       	mov	r24, r23
    1280:	97 2f       	mov	r25, r23
    1282:	0e 94 84 12 	call	0x2508	; 0x2508 <__floatsisf>
    1286:	20 e0       	ldi	r18, 0x00	; 0
    1288:	30 e0       	ldi	r19, 0x00	; 0
    128a:	40 e0       	ldi	r20, 0x00	; 0
    128c:	5f e3       	ldi	r21, 0x3F	; 63
    128e:	0e 94 34 13 	call	0x2668	; 0x2668 <__mulsf3>
    1292:	20 e0       	ldi	r18, 0x00	; 0
    1294:	30 e0       	ldi	r19, 0x00	; 0
    1296:	44 eb       	ldi	r20, 0xB4	; 180
    1298:	52 e4       	ldi	r21, 0x42	; 66
    129a:	0e 94 e9 11 	call	0x23d2	; 0x23d2 <__divsf3>
	
	Time = Time + 1.5 ;
    129e:	46 2f       	mov	r20, r22
    12a0:	57 2f       	mov	r21, r23
    12a2:	68 2f       	mov	r22, r24
    12a4:	79 2f       	mov	r23, r25
    12a6:	cb 01       	movw	r24, r22
    12a8:	ba 01       	movw	r22, r20
    12aa:	20 e0       	ldi	r18, 0x00	; 0
    12ac:	30 e0       	ldi	r19, 0x00	; 0
    12ae:	40 ec       	ldi	r20, 0xC0	; 192
    12b0:	5f e3       	ldi	r21, 0x3F	; 63
    12b2:	0e 94 81 11 	call	0x2302	; 0x2302 <__addsf3>
	
	
	TMR1_Fast_PWM_Gen(Time);
    12b6:	0e 94 2a 0d 	call	0x1a54	; 0x1a54 <TMR1_Fast_PWM_Gen>
    12ba:	08 95       	ret

000012bc <PIR_Init>:
 *
 *  Author: Mahmoud Ayman
 */ 
#include "PIR_ECU.h"
void PIR_Init(u8 port , u8 pin){
	GPIO_vsetPIN_DIR(port, pin,0);
    12bc:	40 e0       	ldi	r20, 0x00	; 0
    12be:	0e 94 94 00 	call	0x128	; 0x128 <GPIO_vsetPIN_DIR>
}
    12c2:	08 95       	ret

000012c4 <PIR_u8Read>:


u8 PIR_u8Read(u8 port, u8 pin){
	u8 x;
	x= GPIO_u8read_PIN(port,pin);
    12c4:	0e 94 b6 01 	call	0x36c	; 0x36c <GPIO_u8read_PIN>

	return x;
    12c8:	08 95       	ret

000012ca <Relay_vintialize>:
 *  Author: Mahmoud Ayman
 */ 
#include "Relay_ECU.h"

void Relay_vintialize(u8 port , u8 pin){
	GPIO_vsetPIN_DIR(port, pin, 1);
    12ca:	41 e0       	ldi	r20, 0x01	; 1
    12cc:	0e 94 94 00 	call	0x128	; 0x128 <GPIO_vsetPIN_DIR>
}
    12d0:	08 95       	ret

000012d2 <Relay_vTurnon>:

void Relay_vTurnon(u8 port, u8 pin){
	GPIO_vwrite_PIN(port,pin,1);
    12d2:	41 e0       	ldi	r20, 0x01	; 1
    12d4:	0e 94 25 01 	call	0x24a	; 0x24a <GPIO_vwrite_PIN>
}
    12d8:	08 95       	ret

000012da <Relay_vTurnoff>:

void Relay_vTurnoff(u8 port, u8 pin){
	GPIO_vwrite_PIN(port,pin,0);
    12da:	40 e0       	ldi	r20, 0x00	; 0
    12dc:	0e 94 25 01 	call	0x24a	; 0x24a <GPIO_vwrite_PIN>
    12e0:	08 95       	ret

000012e2 <Seven_Segment_Init>:
#define  Eight_bit 1
#define  High_Nibble 1
#define  LOW_Nibble 0

void Seven_Segment_Init(u8 Mode,u8 port ,u8 Nibble){
	if (0 == Mode){
    12e2:	88 23       	and	r24, r24
    12e4:	71 f4       	brne	.+28     	; 0x1302 <Seven_Segment_Init+0x20>
		if (0==Nibble){
    12e6:	44 23       	and	r20, r20
    12e8:	29 f4       	brne	.+10     	; 0x12f4 <Seven_Segment_Init+0x12>
			GPIO_Low_Nibble_vset_dir(port,1);
    12ea:	86 2f       	mov	r24, r22
    12ec:	61 e0       	ldi	r22, 0x01	; 1
    12ee:	0e 94 f8 03 	call	0x7f0	; 0x7f0 <GPIO_Low_Nibble_vset_dir>
    12f2:	08 95       	ret
		}else if (1==Nibble){
    12f4:	41 30       	cpi	r20, 0x01	; 1
    12f6:	59 f4       	brne	.+22     	; 0x130e <Seven_Segment_Init+0x2c>
			GPIO_High_Nibble_vset_dir(port,1);
    12f8:	86 2f       	mov	r24, r22
    12fa:	61 e0       	ldi	r22, 0x01	; 1
    12fc:	0e 94 96 03 	call	0x72c	; 0x72c <GPIO_High_Nibble_vset_dir>
    1300:	08 95       	ret
		}
		else{
			
		}
	}else if (1==Mode){
    1302:	81 30       	cpi	r24, 0x01	; 1
    1304:	21 f4       	brne	.+8      	; 0x130e <Seven_Segment_Init+0x2c>
		GPIO_vset_PORT_DIR(port,0xff);
    1306:	86 2f       	mov	r24, r22
    1308:	6f ef       	ldi	r22, 0xFF	; 255
    130a:	0e 94 05 03 	call	0x60a	; 0x60a <GPIO_vset_PORT_DIR>
    130e:	08 95       	ret

00001310 <Seven_segment_Display>:
		
	}
}


void Seven_segment_Display(u8 Mode,u8 Nibble , u8 port, u8 value){
    1310:	cf 93       	push	r28
    1312:	df 93       	push	r29
    1314:	cd b7       	in	r28, 0x3d	; 61
    1316:	de b7       	in	r29, 0x3e	; 62
    1318:	2a 97       	sbiw	r28, 0x0a	; 10
    131a:	0f b6       	in	r0, 0x3f	; 63
    131c:	f8 94       	cli
    131e:	de bf       	out	0x3e, r29	; 62
    1320:	0f be       	out	0x3f, r0	; 63
    1322:	cd bf       	out	0x3d, r28	; 61
	if (0 == Mode){
    1324:	88 23       	and	r24, r24
    1326:	71 f4       	brne	.+28     	; 0x1344 <Seven_segment_Display+0x34>
		if (0==Nibble){
    1328:	66 23       	and	r22, r22
    132a:	29 f4       	brne	.+10     	; 0x1336 <Seven_segment_Display+0x26>
			GPIO_Low_Nibble_vwrite(port,value);
    132c:	84 2f       	mov	r24, r20
    132e:	62 2f       	mov	r22, r18
    1330:	0e 94 25 04 	call	0x84a	; 0x84a <GPIO_Low_Nibble_vwrite>
    1334:	2c c0       	rjmp	.+88     	; 0x138e <Seven_segment_Display+0x7e>
		}else if (1==Nibble){
    1336:	61 30       	cpi	r22, 0x01	; 1
    1338:	51 f5       	brne	.+84     	; 0x138e <Seven_segment_Display+0x7e>
			GPIO_High_Nibble_vwrite(port,value);
    133a:	84 2f       	mov	r24, r20
    133c:	62 2f       	mov	r22, r18
    133e:	0e 94 c3 03 	call	0x786	; 0x786 <GPIO_High_Nibble_vwrite>
    1342:	25 c0       	rjmp	.+74     	; 0x138e <Seven_segment_Display+0x7e>
		}
		else{
			
		}
	}else if (1==Mode){
    1344:	81 30       	cpi	r24, 0x01	; 1
    1346:	19 f5       	brne	.+70     	; 0x138e <Seven_segment_Display+0x7e>
		if (value >=0 && value <=9)
    1348:	2a 30       	cpi	r18, 0x0A	; 10
    134a:	88 f4       	brcc	.+34     	; 0x136e <Seven_segment_Display+0x5e>
		{
			u8 arr[10]={0x3f,0x06,0x5b,0x4f,0x66,0x6d,0x7d,0x07,0x7f,0x6f};
    134c:	de 01       	movw	r26, r28
    134e:	11 96       	adiw	r26, 0x01	; 1
    1350:	e0 e8       	ldi	r30, 0x80	; 128
    1352:	f0 e0       	ldi	r31, 0x00	; 0
    1354:	8a e0       	ldi	r24, 0x0A	; 10
    1356:	01 90       	ld	r0, Z+
    1358:	0d 92       	st	X+, r0
    135a:	81 50       	subi	r24, 0x01	; 1
    135c:	e1 f7       	brne	.-8      	; 0x1356 <Seven_segment_Display+0x46>
			GPIO_vwrite_PORT(port,arr[value]);
    135e:	fe 01       	movw	r30, r28
    1360:	e2 0f       	add	r30, r18
    1362:	f1 1d       	adc	r31, r1
    1364:	84 2f       	mov	r24, r20
    1366:	61 81       	ldd	r22, Z+1	; 0x01
    1368:	0e 94 24 03 	call	0x648	; 0x648 <GPIO_vwrite_PORT>
    136c:	10 c0       	rjmp	.+32     	; 0x138e <Seven_segment_Display+0x7e>
			#define B 1
			#define C 2
			#define D 3
			#define E 4
			#define F 5
			u8 arr1[6]={0x77,0x1f,0x39,0x5E,0x79,0x71};
    136e:	de 01       	movw	r26, r28
    1370:	11 96       	adiw	r26, 0x01	; 1
    1372:	ea e8       	ldi	r30, 0x8A	; 138
    1374:	f0 e0       	ldi	r31, 0x00	; 0
    1376:	86 e0       	ldi	r24, 0x06	; 6
    1378:	01 90       	ld	r0, Z+
    137a:	0d 92       	st	X+, r0
    137c:	81 50       	subi	r24, 0x01	; 1
    137e:	e1 f7       	brne	.-8      	; 0x1378 <Seven_segment_Display+0x68>
			GPIO_vwrite_PORT(port,arr1[value]);
    1380:	fe 01       	movw	r30, r28
    1382:	e2 0f       	add	r30, r18
    1384:	f1 1d       	adc	r31, r1
    1386:	84 2f       	mov	r24, r20
    1388:	61 81       	ldd	r22, Z+1	; 0x01
    138a:	0e 94 24 03 	call	0x648	; 0x648 <GPIO_vwrite_PORT>
		}
	}
	else{
		
	}
    138e:	2a 96       	adiw	r28, 0x0a	; 10
    1390:	0f b6       	in	r0, 0x3f	; 63
    1392:	f8 94       	cli
    1394:	de bf       	out	0x3e, r29	; 62
    1396:	0f be       	out	0x3f, r0	; 63
    1398:	cd bf       	out	0x3d, r28	; 61
    139a:	df 91       	pop	r29
    139c:	cf 91       	pop	r28
    139e:	08 95       	ret

000013a0 <temp_sensor_vInit>:
 *  Author: Mahmoud Ayman
 */ 

#include "Temperature_Sensor_ECU.h"
#define Vref 2.56
void temp_sensor_vInit(u8 pin){
    13a0:	cf 93       	push	r28
    13a2:	c8 2f       	mov	r28, r24
	ADC_vInit();
    13a4:	0e 94 49 00 	call	0x92	; 0x92 <ADC_vInit>
	switch(pin){
    13a8:	c3 30       	cpi	r28, 0x03	; 3
    13aa:	11 f1       	breq	.+68     	; 0x13f0 <temp_sensor_vInit+0x50>
    13ac:	c4 30       	cpi	r28, 0x04	; 4
    13ae:	28 f4       	brcc	.+10     	; 0x13ba <temp_sensor_vInit+0x1a>
    13b0:	c1 30       	cpi	r28, 0x01	; 1
    13b2:	91 f0       	breq	.+36     	; 0x13d8 <temp_sensor_vInit+0x38>
    13b4:	c2 30       	cpi	r28, 0x02	; 2
    13b6:	b0 f4       	brcc	.+44     	; 0x13e4 <temp_sensor_vInit+0x44>
    13b8:	09 c0       	rjmp	.+18     	; 0x13cc <temp_sensor_vInit+0x2c>
    13ba:	c5 30       	cpi	r28, 0x05	; 5
    13bc:	29 f1       	breq	.+74     	; 0x1408 <temp_sensor_vInit+0x68>
    13be:	c5 30       	cpi	r28, 0x05	; 5
    13c0:	e8 f0       	brcs	.+58     	; 0x13fc <temp_sensor_vInit+0x5c>
    13c2:	c6 30       	cpi	r28, 0x06	; 6
    13c4:	39 f1       	breq	.+78     	; 0x1414 <temp_sensor_vInit+0x74>
    13c6:	c7 30       	cpi	r28, 0x07	; 7
    13c8:	81 f5       	brne	.+96     	; 0x142a <temp_sensor_vInit+0x8a>
    13ca:	2a c0       	rjmp	.+84     	; 0x1420 <temp_sensor_vInit+0x80>
		case 0 :
			GPIO_vsetPIN_DIR('A',0,0);
    13cc:	81 e4       	ldi	r24, 0x41	; 65
    13ce:	60 e0       	ldi	r22, 0x00	; 0
    13d0:	40 e0       	ldi	r20, 0x00	; 0
    13d2:	0e 94 94 00 	call	0x128	; 0x128 <GPIO_vsetPIN_DIR>
			break;
    13d6:	29 c0       	rjmp	.+82     	; 0x142a <temp_sensor_vInit+0x8a>
		case 1 :
			GPIO_vsetPIN_DIR('A',1,0);
    13d8:	81 e4       	ldi	r24, 0x41	; 65
    13da:	61 e0       	ldi	r22, 0x01	; 1
    13dc:	40 e0       	ldi	r20, 0x00	; 0
    13de:	0e 94 94 00 	call	0x128	; 0x128 <GPIO_vsetPIN_DIR>
			break;
    13e2:	23 c0       	rjmp	.+70     	; 0x142a <temp_sensor_vInit+0x8a>
		case 2 :
			GPIO_vsetPIN_DIR('A',2,0);
    13e4:	81 e4       	ldi	r24, 0x41	; 65
    13e6:	62 e0       	ldi	r22, 0x02	; 2
    13e8:	40 e0       	ldi	r20, 0x00	; 0
    13ea:	0e 94 94 00 	call	0x128	; 0x128 <GPIO_vsetPIN_DIR>
			break;
    13ee:	1d c0       	rjmp	.+58     	; 0x142a <temp_sensor_vInit+0x8a>
		case 3 :
			GPIO_vsetPIN_DIR('A',3,0);
    13f0:	81 e4       	ldi	r24, 0x41	; 65
    13f2:	63 e0       	ldi	r22, 0x03	; 3
    13f4:	40 e0       	ldi	r20, 0x00	; 0
    13f6:	0e 94 94 00 	call	0x128	; 0x128 <GPIO_vsetPIN_DIR>
			break;
    13fa:	17 c0       	rjmp	.+46     	; 0x142a <temp_sensor_vInit+0x8a>
		case 4 :
			GPIO_vsetPIN_DIR('A',4,0);
    13fc:	81 e4       	ldi	r24, 0x41	; 65
    13fe:	64 e0       	ldi	r22, 0x04	; 4
    1400:	40 e0       	ldi	r20, 0x00	; 0
    1402:	0e 94 94 00 	call	0x128	; 0x128 <GPIO_vsetPIN_DIR>
			break;
    1406:	11 c0       	rjmp	.+34     	; 0x142a <temp_sensor_vInit+0x8a>
		case 5 :
			GPIO_vsetPIN_DIR('A',5,0);
    1408:	81 e4       	ldi	r24, 0x41	; 65
    140a:	65 e0       	ldi	r22, 0x05	; 5
    140c:	40 e0       	ldi	r20, 0x00	; 0
    140e:	0e 94 94 00 	call	0x128	; 0x128 <GPIO_vsetPIN_DIR>
			break;
    1412:	0b c0       	rjmp	.+22     	; 0x142a <temp_sensor_vInit+0x8a>
		case 6 :
			GPIO_vsetPIN_DIR('A',6,0);
    1414:	81 e4       	ldi	r24, 0x41	; 65
    1416:	66 e0       	ldi	r22, 0x06	; 6
    1418:	40 e0       	ldi	r20, 0x00	; 0
    141a:	0e 94 94 00 	call	0x128	; 0x128 <GPIO_vsetPIN_DIR>
			break;
    141e:	05 c0       	rjmp	.+10     	; 0x142a <temp_sensor_vInit+0x8a>
		case 7 :
			GPIO_vsetPIN_DIR('A',7,0);
    1420:	81 e4       	ldi	r24, 0x41	; 65
    1422:	67 e0       	ldi	r22, 0x07	; 7
    1424:	40 e0       	ldi	r20, 0x00	; 0
    1426:	0e 94 94 00 	call	0x128	; 0x128 <GPIO_vsetPIN_DIR>
			break;
	}
	
}
    142a:	cf 91       	pop	r28
    142c:	08 95       	ret

0000142e <temp_sensor_u16Read>:

u16 temp_sensor_u16Read(u8 pin){
	u16 temperatue ;
	u16 v;
	v = ADC_u16Read_Single_Endded(pin);
    142e:	0e 94 50 00 	call	0xa0	; 0xa0 <ADC_u16Read_Single_Endded>
	temperatue = (v*Vref*1000)/(1024*10);
    1432:	bc 01       	movw	r22, r24
    1434:	80 e0       	ldi	r24, 0x00	; 0
    1436:	90 e0       	ldi	r25, 0x00	; 0
    1438:	0e 94 82 12 	call	0x2504	; 0x2504 <__floatunsisf>
    143c:	2a e0       	ldi	r18, 0x0A	; 10
    143e:	37 ed       	ldi	r19, 0xD7	; 215
    1440:	43 e2       	ldi	r20, 0x23	; 35
    1442:	50 e4       	ldi	r21, 0x40	; 64
    1444:	0e 94 34 13 	call	0x2668	; 0x2668 <__mulsf3>
    1448:	20 e0       	ldi	r18, 0x00	; 0
    144a:	30 e0       	ldi	r19, 0x00	; 0
    144c:	4a e7       	ldi	r20, 0x7A	; 122
    144e:	54 e4       	ldi	r21, 0x44	; 68
    1450:	0e 94 34 13 	call	0x2668	; 0x2668 <__mulsf3>
    1454:	20 e0       	ldi	r18, 0x00	; 0
    1456:	30 e0       	ldi	r19, 0x00	; 0
    1458:	40 e2       	ldi	r20, 0x20	; 32
    145a:	56 e4       	ldi	r21, 0x46	; 70
    145c:	0e 94 e9 11 	call	0x23d2	; 0x23d2 <__divsf3>
    1460:	0e 94 56 12 	call	0x24ac	; 0x24ac <__fixunssfsi>
	return temperatue;
    1464:	86 2f       	mov	r24, r22
    1466:	97 2f       	mov	r25, r23
    1468:	08 95       	ret

0000146a <TMR0_Get_Configuration>:
#define F_CPU 8000000UL
/*************************************** Timer0 **********************************************/
static void (*Ptr_To_OVFI)(void);
static void (*Ptr_To_OCMI)(void);
void TMR0_Get_Configuration(u8 waveform , u8 TMR0_OVFI , u8 TMR0_CTCI , u8 clk_Selcet){
	confiuration.Mode = waveform ;
    146a:	80 93 b5 00 	sts	0x00B5, r24
	confiuration.Prescalar = clk_Selcet;
    146e:	20 93 b8 00 	sts	0x00B8, r18
	confiuration.TMR0_OVF_Interrupt = TMR0_OVFI;
    1472:	60 93 b6 00 	sts	0x00B6, r22
	confiuration.TMR0_CTC_Interrupt = TMR0_CTCI;
    1476:	40 93 b7 00 	sts	0x00B7, r20
}
    147a:	08 95       	ret

0000147c <TMR0_vInit>:

void TMR0_vInit(void){
	/*********************Adjust Mode*****************************/
		if (confiuration.Mode==NORMAL_Mode){
    147c:	80 91 b5 00 	lds	r24, 0x00B5
    1480:	88 23       	and	r24, r24
    1482:	39 f4       	brne	.+14     	; 0x1492 <TMR0_vInit+0x16>
			CLR_BIT(myTCCR0,myWGM00);
    1484:	83 b7       	in	r24, 0x33	; 51
    1486:	8f 7b       	andi	r24, 0xBF	; 191
    1488:	83 bf       	out	0x33, r24	; 51
			CLR_BIT(myTCCR0,myWGM01);
    148a:	83 b7       	in	r24, 0x33	; 51
    148c:	87 7f       	andi	r24, 0xF7	; 247
    148e:	83 bf       	out	0x33, r24	; 51
    1490:	23 c0       	rjmp	.+70     	; 0x14d8 <TMR0_vInit+0x5c>
		}else if (confiuration.Mode==CTC_Mode){
    1492:	81 30       	cpi	r24, 0x01	; 1
    1494:	39 f4       	brne	.+14     	; 0x14a4 <TMR0_vInit+0x28>
			CLR_BIT(myTCCR0,myWGM00);
    1496:	83 b7       	in	r24, 0x33	; 51
    1498:	8f 7b       	andi	r24, 0xBF	; 191
    149a:	83 bf       	out	0x33, r24	; 51
			SET_BIT(myTCCR0,myWGM01);
    149c:	83 b7       	in	r24, 0x33	; 51
    149e:	88 60       	ori	r24, 0x08	; 8
    14a0:	83 bf       	out	0x33, r24	; 51
    14a2:	1a c0       	rjmp	.+52     	; 0x14d8 <TMR0_vInit+0x5c>
		}else if (confiuration.Mode==OCM_Non_PWM_Mode){
    14a4:	82 30       	cpi	r24, 0x02	; 2
    14a6:	39 f4       	brne	.+14     	; 0x14b6 <TMR0_vInit+0x3a>
			CLR_BIT(myTCCR0,myWGM00);
    14a8:	83 b7       	in	r24, 0x33	; 51
    14aa:	8f 7b       	andi	r24, 0xBF	; 191
    14ac:	83 bf       	out	0x33, r24	; 51
			SET_BIT(myTCCR0,myWGM01);
    14ae:	83 b7       	in	r24, 0x33	; 51
    14b0:	88 60       	ori	r24, 0x08	; 8
    14b2:	83 bf       	out	0x33, r24	; 51
    14b4:	11 c0       	rjmp	.+34     	; 0x14d8 <TMR0_vInit+0x5c>
		}else if (confiuration.Mode==Fast_PWM_Mode){
    14b6:	83 30       	cpi	r24, 0x03	; 3
    14b8:	39 f4       	brne	.+14     	; 0x14c8 <TMR0_vInit+0x4c>
			SET_BIT(myTCCR0,myWGM00);
    14ba:	83 b7       	in	r24, 0x33	; 51
    14bc:	80 64       	ori	r24, 0x40	; 64
    14be:	83 bf       	out	0x33, r24	; 51
			SET_BIT(myTCCR0,myWGM01);
    14c0:	83 b7       	in	r24, 0x33	; 51
    14c2:	88 60       	ori	r24, 0x08	; 8
    14c4:	83 bf       	out	0x33, r24	; 51
    14c6:	08 c0       	rjmp	.+16     	; 0x14d8 <TMR0_vInit+0x5c>
		}else if (confiuration.Mode==Phase_Correct_PWM){
    14c8:	84 30       	cpi	r24, 0x04	; 4
    14ca:	31 f4       	brne	.+12     	; 0x14d8 <TMR0_vInit+0x5c>
			SET_BIT(myTCCR0,myWGM00);
    14cc:	83 b7       	in	r24, 0x33	; 51
    14ce:	80 64       	ori	r24, 0x40	; 64
    14d0:	83 bf       	out	0x33, r24	; 51
			CLR_BIT(myTCCR0,myWGM01);
    14d2:	83 b7       	in	r24, 0x33	; 51
    14d4:	87 7f       	andi	r24, 0xF7	; 247
    14d6:	83 bf       	out	0x33, r24	; 51
		}
	/****************************************************************/	
	/************************Adjust prescalar************************/
		myTCCR0 |= confiuration.Prescalar;    
    14d8:	93 b7       	in	r25, 0x33	; 51
    14da:	80 91 b8 00 	lds	r24, 0x00B8
    14de:	89 2b       	or	r24, r25
    14e0:	83 bf       	out	0x33, r24	; 51
	/****************************************************************/
	/*************Over flow Interrupt Enable/Disable*****************/
		if (confiuration.TMR0_OVF_Interrupt==TOIE0_enable){
    14e2:	80 91 b6 00 	lds	r24, 0x00B6
    14e6:	88 23       	and	r24, r24
    14e8:	21 f4       	brne	.+8      	; 0x14f2 <TMR0_vInit+0x76>
			SET_BIT(myTIMSK,myTOIE0);
    14ea:	89 b7       	in	r24, 0x39	; 57
    14ec:	81 60       	ori	r24, 0x01	; 1
    14ee:	89 bf       	out	0x39, r24	; 57
    14f0:	05 c0       	rjmp	.+10     	; 0x14fc <TMR0_vInit+0x80>
		}else if (confiuration.TMR0_OVF_Interrupt==TOIE0_disable){
    14f2:	81 30       	cpi	r24, 0x01	; 1
    14f4:	19 f4       	brne	.+6      	; 0x14fc <TMR0_vInit+0x80>
			CLR_BIT(myTIMSK,myTOIE0);
    14f6:	89 b7       	in	r24, 0x39	; 57
    14f8:	8e 7f       	andi	r24, 0xFE	; 254
    14fa:	89 bf       	out	0x39, r24	; 57
		}
	/****************************************************************/
	/******************OCR0 Interrupt Enable/Disable*****************/
		if (confiuration.TMR0_CTC_Interrupt==OCIE0_enable){
    14fc:	80 91 b7 00 	lds	r24, 0x00B7
    1500:	88 23       	and	r24, r24
    1502:	21 f4       	brne	.+8      	; 0x150c <TMR0_vInit+0x90>
			SET_BIT(myTIMSK,myOCIE0);
    1504:	89 b7       	in	r24, 0x39	; 57
    1506:	82 60       	ori	r24, 0x02	; 2
    1508:	89 bf       	out	0x39, r24	; 57
    150a:	08 95       	ret
		}else if (confiuration.TMR0_CTC_Interrupt==OCIE0_disable){
    150c:	81 30       	cpi	r24, 0x01	; 1
    150e:	19 f4       	brne	.+6      	; 0x1516 <TMR0_vInit+0x9a>
			CLR_BIT(myTIMSK,myOCIE0);
    1510:	89 b7       	in	r24, 0x39	; 57
    1512:	8d 7f       	andi	r24, 0xFD	; 253
    1514:	89 bf       	out	0x39, r24	; 57
    1516:	08 95       	ret

00001518 <TMR0_Set_Compare_Value>:
		}
	/****************************************************************/
}

void TMR0_Set_Compare_Value(u8 u8Val){
	myOCR0 = u8Val;
    1518:	8c bf       	out	0x3c, r24	; 60
}
    151a:	08 95       	ret

0000151c <TMR0_Set_Counter_Value>:
void TMR0_Set_Counter_Value(u8 u8Val){
	myTCNT0 = u8Val;
    151c:	82 bf       	out	0x32, r24	; 50
}
    151e:	08 95       	ret

00001520 <TMR0_Read_count>:

u8 TMR0_Read_count(void){
	return myTCNT0;
    1520:	82 b7       	in	r24, 0x32	; 50
}
    1522:	08 95       	ret

00001524 <TMR0_COM_Non_PWM_Gen>:

/*************************************** Wave Generation*************************************/
/*Compare Output Mode , Non PWM mode */
void TMR0_COM_Non_PWM_Gen(u8 duty_cycle){
	u8 val;
	SET_BIT(myDDRB,3);
    1524:	bb 9a       	sbi	0x17, 3	; 23
	val=(duty_cycle * 256) / 100;
    1526:	38 2f       	mov	r19, r24
    1528:	20 e0       	ldi	r18, 0x00	; 0
    152a:	c9 01       	movw	r24, r18
    152c:	64 e6       	ldi	r22, 0x64	; 100
    152e:	70 e0       	ldi	r23, 0x00	; 0
    1530:	0e 94 97 13 	call	0x272e	; 0x272e <__divmodhi4>
    1534:	86 2f       	mov	r24, r22
	TMR0_Set_Compare_Value(val);
    1536:	0e 94 8c 0a 	call	0x1518	; 0x1518 <TMR0_Set_Compare_Value>
	SET_BIT(myTCCR0,myCOM00);
    153a:	83 b7       	in	r24, 0x33	; 51
    153c:	80 61       	ori	r24, 0x10	; 16
    153e:	83 bf       	out	0x33, r24	; 51
	CLR_BIT(myTCCR0,myCOM01);
    1540:	83 b7       	in	r24, 0x33	; 51
    1542:	8f 7d       	andi	r24, 0xDF	; 223
    1544:	83 bf       	out	0x33, r24	; 51
}
    1546:	08 95       	ret

00001548 <TMR0_Fast_PWM_Gen>:

/*Fast PWM mode */
void TMR0_Fast_PWM_Gen(u8 duty_cycle){
	SET_BIT(TCCR0,WGM00);
    1548:	93 b7       	in	r25, 0x33	; 51
    154a:	90 64       	ori	r25, 0x40	; 64
    154c:	93 bf       	out	0x33, r25	; 51
	SET_BIT(TCCR0,WGM01);
    154e:	93 b7       	in	r25, 0x33	; 51
    1550:	98 60       	ori	r25, 0x08	; 8
    1552:	93 bf       	out	0x33, r25	; 51
	u8 val;
	SET_BIT(myDDRB,3);
    1554:	bb 9a       	sbi	0x17, 3	; 23
	/* select timer clock */
	SET_BIT(TCCR0,CS00);
    1556:	93 b7       	in	r25, 0x33	; 51
    1558:	91 60       	ori	r25, 0x01	; 1
    155a:	93 bf       	out	0x33, r25	; 51
	SET_BIT(TCCR0,CS02);
    155c:	93 b7       	in	r25, 0x33	; 51
    155e:	94 60       	ori	r25, 0x04	; 4
    1560:	93 bf       	out	0x33, r25	; 51
	val=(duty_cycle * 256) / 100;
    1562:	38 2f       	mov	r19, r24
    1564:	20 e0       	ldi	r18, 0x00	; 0
    1566:	c9 01       	movw	r24, r18
    1568:	64 e6       	ldi	r22, 0x64	; 100
    156a:	70 e0       	ldi	r23, 0x00	; 0
    156c:	0e 94 97 13 	call	0x272e	; 0x272e <__divmodhi4>
	OCR0 = val;
    1570:	6c bf       	out	0x3c, r22	; 60
	CLR_BIT(myTCCR0,myCOM00);
    1572:	83 b7       	in	r24, 0x33	; 51
    1574:	8f 7e       	andi	r24, 0xEF	; 239
    1576:	83 bf       	out	0x33, r24	; 51
	SET_BIT(myTCCR0,myCOM01);
    1578:	83 b7       	in	r24, 0x33	; 51
    157a:	80 62       	ori	r24, 0x20	; 32
    157c:	83 bf       	out	0x33, r24	; 51
	
	
	
}
    157e:	08 95       	ret

00001580 <TMR0_Phase_Correct_PWM_Gen>:
/*Phase Correct PWM mode */
void TMR0_Phase_Correct_PWM_Gen(u8 duty_cycle){
	u8 val;
	SET_BIT(myDDRB,3);
    1580:	bb 9a       	sbi	0x17, 3	; 23
	val=(duty_cycle * 256) / 100;
    1582:	38 2f       	mov	r19, r24
    1584:	20 e0       	ldi	r18, 0x00	; 0
    1586:	c9 01       	movw	r24, r18
    1588:	64 e6       	ldi	r22, 0x64	; 100
    158a:	70 e0       	ldi	r23, 0x00	; 0
    158c:	0e 94 97 13 	call	0x272e	; 0x272e <__divmodhi4>
    1590:	86 2f       	mov	r24, r22
	TMR0_Set_Compare_Value(val);
    1592:	0e 94 8c 0a 	call	0x1518	; 0x1518 <TMR0_Set_Compare_Value>
	SET_BIT(myTCCR0,myCOM00);
    1596:	83 b7       	in	r24, 0x33	; 51
    1598:	80 61       	ori	r24, 0x10	; 16
    159a:	83 bf       	out	0x33, r24	; 51
	SET_BIT(myTCCR0,myCOM01);
    159c:	83 b7       	in	r24, 0x33	; 51
    159e:	80 62       	ori	r24, 0x20	; 32
    15a0:	83 bf       	out	0x33, r24	; 51
}
    15a2:	08 95       	ret

000015a4 <callback_TMR0_Overflow_Interrupt>:
/********************************************************************************************/



void callback_TMR0_Overflow_Interrupt (void(*Ptr_to_OVI_Function)(void)){
	Ptr_To_OVFI = Ptr_to_OVI_Function ;
    15a4:	90 93 91 00 	sts	0x0091, r25
    15a8:	80 93 90 00 	sts	0x0090, r24
}
    15ac:	08 95       	ret

000015ae <callback_OCR0_Compare_Match_Interrupt>:

void callback_OCR0_Compare_Match_Interrupt(void(*Ptr_to_OCM_Function)(void)){
	Ptr_To_OCMI = Ptr_to_OCM_Function ;
    15ae:	90 93 93 00 	sts	0x0093, r25
    15b2:	80 93 92 00 	sts	0x0092, r24
}
    15b6:	08 95       	ret

000015b8 <__vector_10>:



ISR(TIMER0_COMP_vect){
    15b8:	1f 92       	push	r1
    15ba:	0f 92       	push	r0
    15bc:	0f b6       	in	r0, 0x3f	; 63
    15be:	0f 92       	push	r0
    15c0:	11 24       	eor	r1, r1
    15c2:	2f 93       	push	r18
    15c4:	3f 93       	push	r19
    15c6:	4f 93       	push	r20
    15c8:	5f 93       	push	r21
    15ca:	6f 93       	push	r22
    15cc:	7f 93       	push	r23
    15ce:	8f 93       	push	r24
    15d0:	9f 93       	push	r25
    15d2:	af 93       	push	r26
    15d4:	bf 93       	push	r27
    15d6:	ef 93       	push	r30
    15d8:	ff 93       	push	r31
	(*Ptr_To_OCMI)();
    15da:	e0 91 92 00 	lds	r30, 0x0092
    15de:	f0 91 93 00 	lds	r31, 0x0093
    15e2:	09 95       	icall
}
    15e4:	ff 91       	pop	r31
    15e6:	ef 91       	pop	r30
    15e8:	bf 91       	pop	r27
    15ea:	af 91       	pop	r26
    15ec:	9f 91       	pop	r25
    15ee:	8f 91       	pop	r24
    15f0:	7f 91       	pop	r23
    15f2:	6f 91       	pop	r22
    15f4:	5f 91       	pop	r21
    15f6:	4f 91       	pop	r20
    15f8:	3f 91       	pop	r19
    15fa:	2f 91       	pop	r18
    15fc:	0f 90       	pop	r0
    15fe:	0f be       	out	0x3f, r0	; 63
    1600:	0f 90       	pop	r0
    1602:	1f 90       	pop	r1
    1604:	18 95       	reti

00001606 <__vector_11>:


ISR(TIMER0_OVF_vect){
    1606:	1f 92       	push	r1
    1608:	0f 92       	push	r0
    160a:	0f b6       	in	r0, 0x3f	; 63
    160c:	0f 92       	push	r0
    160e:	11 24       	eor	r1, r1
    1610:	2f 93       	push	r18
    1612:	3f 93       	push	r19
    1614:	4f 93       	push	r20
    1616:	5f 93       	push	r21
    1618:	6f 93       	push	r22
    161a:	7f 93       	push	r23
    161c:	8f 93       	push	r24
    161e:	9f 93       	push	r25
    1620:	af 93       	push	r26
    1622:	bf 93       	push	r27
    1624:	ef 93       	push	r30
    1626:	ff 93       	push	r31
	(*Ptr_To_OVFI)();
    1628:	e0 91 90 00 	lds	r30, 0x0090
    162c:	f0 91 91 00 	lds	r31, 0x0091
    1630:	09 95       	icall
}
    1632:	ff 91       	pop	r31
    1634:	ef 91       	pop	r30
    1636:	bf 91       	pop	r27
    1638:	af 91       	pop	r26
    163a:	9f 91       	pop	r25
    163c:	8f 91       	pop	r24
    163e:	7f 91       	pop	r23
    1640:	6f 91       	pop	r22
    1642:	5f 91       	pop	r21
    1644:	4f 91       	pop	r20
    1646:	3f 91       	pop	r19
    1648:	2f 91       	pop	r18
    164a:	0f 90       	pop	r0
    164c:	0f be       	out	0x3f, r0	; 63
    164e:	0f 90       	pop	r0
    1650:	1f 90       	pop	r1
    1652:	18 95       	reti

00001654 <TMR2_Get_Configuration>:
/*************************************** Timer2 **********************************************/
static void (*Ptr_To_OVFI2)(void);
static void (*Ptr_To_OCMI2)(void);

void TMR2_Get_Configuration(u8 waveform , u8 TMR2_OVFI , u8 TMR2_CTCI , u8 clk_Selcet){
	TMR2_Configuration.Mode = waveform ;
    1654:	80 93 c3 00 	sts	0x00C3, r24
	TMR2_Configuration.Prescalar = clk_Selcet;
    1658:	20 93 c6 00 	sts	0x00C6, r18
	TMR2_Configuration.TMR2_OVF_Interrupt = TMR2_OVFI;
    165c:	60 93 c4 00 	sts	0x00C4, r22
	TMR2_Configuration.TMR2_CTC_Interrupt = TMR2_CTCI;
    1660:	40 93 c5 00 	sts	0x00C5, r20
}
    1664:	08 95       	ret

00001666 <TMR2_vInit>:

void TMR2_vInit(void){
	/*********************Adjust Mode*****************************/
	if (TMR2_Configuration.Mode==TMR2_NORMAL_Mode){
    1666:	80 91 c3 00 	lds	r24, 0x00C3
    166a:	88 23       	and	r24, r24
    166c:	39 f4       	brne	.+14     	; 0x167c <TMR2_vInit+0x16>
		CLR_BIT(myTCCR2,myWGM20);
    166e:	85 b5       	in	r24, 0x25	; 37
    1670:	8f 7b       	andi	r24, 0xBF	; 191
    1672:	85 bd       	out	0x25, r24	; 37
		CLR_BIT(myTCCR2,myWGM21);
    1674:	85 b5       	in	r24, 0x25	; 37
    1676:	87 7f       	andi	r24, 0xF7	; 247
    1678:	85 bd       	out	0x25, r24	; 37
    167a:	23 c0       	rjmp	.+70     	; 0x16c2 <TMR2_vInit+0x5c>
	}else if (TMR2_Configuration.Mode==TMR2_CTC_Mode){
    167c:	81 30       	cpi	r24, 0x01	; 1
    167e:	39 f4       	brne	.+14     	; 0x168e <TMR2_vInit+0x28>
		CLR_BIT(myTCCR2,myWGM20);
    1680:	85 b5       	in	r24, 0x25	; 37
    1682:	8f 7b       	andi	r24, 0xBF	; 191
    1684:	85 bd       	out	0x25, r24	; 37
		SET_BIT(myTCCR2,myWGM21);
    1686:	85 b5       	in	r24, 0x25	; 37
    1688:	88 60       	ori	r24, 0x08	; 8
    168a:	85 bd       	out	0x25, r24	; 37
    168c:	1a c0       	rjmp	.+52     	; 0x16c2 <TMR2_vInit+0x5c>
	}else if (TMR2_Configuration.Mode==TMR2_OCM_Non_PWM_Mode){
    168e:	82 30       	cpi	r24, 0x02	; 2
    1690:	39 f4       	brne	.+14     	; 0x16a0 <TMR2_vInit+0x3a>
		CLR_BIT(myTCCR2,myWGM20);
    1692:	85 b5       	in	r24, 0x25	; 37
    1694:	8f 7b       	andi	r24, 0xBF	; 191
    1696:	85 bd       	out	0x25, r24	; 37
		SET_BIT(myTCCR2,myWGM21);
    1698:	85 b5       	in	r24, 0x25	; 37
    169a:	88 60       	ori	r24, 0x08	; 8
    169c:	85 bd       	out	0x25, r24	; 37
    169e:	11 c0       	rjmp	.+34     	; 0x16c2 <TMR2_vInit+0x5c>
	}else if (TMR2_Configuration.Mode==TMR2_Fast_PWM_Mode){
    16a0:	83 30       	cpi	r24, 0x03	; 3
    16a2:	39 f4       	brne	.+14     	; 0x16b2 <TMR2_vInit+0x4c>
		SET_BIT(myTCCR2,myWGM20);
    16a4:	85 b5       	in	r24, 0x25	; 37
    16a6:	80 64       	ori	r24, 0x40	; 64
    16a8:	85 bd       	out	0x25, r24	; 37
		SET_BIT(myTCCR2,myWGM21);
    16aa:	85 b5       	in	r24, 0x25	; 37
    16ac:	88 60       	ori	r24, 0x08	; 8
    16ae:	85 bd       	out	0x25, r24	; 37
    16b0:	08 c0       	rjmp	.+16     	; 0x16c2 <TMR2_vInit+0x5c>
	}else if (TMR2_Configuration.Mode==TMR2_Phase_Correct_PWM){
    16b2:	84 30       	cpi	r24, 0x04	; 4
    16b4:	31 f4       	brne	.+12     	; 0x16c2 <TMR2_vInit+0x5c>
		SET_BIT(myTCCR2,myWGM20);
    16b6:	85 b5       	in	r24, 0x25	; 37
    16b8:	80 64       	ori	r24, 0x40	; 64
    16ba:	85 bd       	out	0x25, r24	; 37
		CLR_BIT(myTCCR2,myWGM21);
    16bc:	85 b5       	in	r24, 0x25	; 37
    16be:	87 7f       	andi	r24, 0xF7	; 247
    16c0:	85 bd       	out	0x25, r24	; 37
	}
	/****************************************************************/
	/************************Adjust prescalar************************/
	myTCCR2 |= TMR2_Configuration.Prescalar;
    16c2:	95 b5       	in	r25, 0x25	; 37
    16c4:	80 91 c6 00 	lds	r24, 0x00C6
    16c8:	89 2b       	or	r24, r25
    16ca:	85 bd       	out	0x25, r24	; 37
	/****************************************************************/
	/*************Over flow Interrupt Enable/Disable*****************/
	if (TMR2_Configuration.TMR2_OVF_Interrupt==TOIE2_enable){
    16cc:	80 91 c4 00 	lds	r24, 0x00C4
    16d0:	88 23       	and	r24, r24
    16d2:	21 f4       	brne	.+8      	; 0x16dc <TMR2_vInit+0x76>
		SET_BIT(myTIMSK,myTOIE2);
    16d4:	89 b7       	in	r24, 0x39	; 57
    16d6:	80 64       	ori	r24, 0x40	; 64
    16d8:	89 bf       	out	0x39, r24	; 57
    16da:	05 c0       	rjmp	.+10     	; 0x16e6 <TMR2_vInit+0x80>
	}else if (TMR2_Configuration.TMR2_OVF_Interrupt==TOIE2_disable){
    16dc:	81 30       	cpi	r24, 0x01	; 1
    16de:	19 f4       	brne	.+6      	; 0x16e6 <TMR2_vInit+0x80>
		CLR_BIT(myTIMSK,myTOIE2);
    16e0:	89 b7       	in	r24, 0x39	; 57
    16e2:	8f 7b       	andi	r24, 0xBF	; 191
    16e4:	89 bf       	out	0x39, r24	; 57
	}
	/****************************************************************/
	/******************OCR0 Interrupt Enable/Disable*****************/
	if (TMR2_Configuration.TMR2_CTC_Interrupt==OCIE2_enable){
    16e6:	80 91 c5 00 	lds	r24, 0x00C5
    16ea:	88 23       	and	r24, r24
    16ec:	21 f4       	brne	.+8      	; 0x16f6 <TMR2_vInit+0x90>
		SET_BIT(myTIMSK,myOCIE2);
    16ee:	89 b7       	in	r24, 0x39	; 57
    16f0:	80 68       	ori	r24, 0x80	; 128
    16f2:	89 bf       	out	0x39, r24	; 57
    16f4:	08 95       	ret
	}else if (TMR2_Configuration.TMR2_CTC_Interrupt==OCIE2_disable){
    16f6:	81 30       	cpi	r24, 0x01	; 1
    16f8:	19 f4       	brne	.+6      	; 0x1700 <TMR2_vInit+0x9a>
		CLR_BIT(myTIMSK,myOCIE2);
    16fa:	89 b7       	in	r24, 0x39	; 57
    16fc:	8f 77       	andi	r24, 0x7F	; 127
    16fe:	89 bf       	out	0x39, r24	; 57
    1700:	08 95       	ret

00001702 <TMR2_Set_Compare_Value>:
	}
	/****************************************************************/
}

void TMR2_Set_Compare_Value(u8 u8Val){
	myOCR2 = u8Val;
    1702:	83 bd       	out	0x23, r24	; 35
}
    1704:	08 95       	ret

00001706 <TMR2_Read_count>:

u8 TMR2_Read_count(void){
	return myTCNT2;
    1706:	84 b5       	in	r24, 0x24	; 36
}
    1708:	08 95       	ret

0000170a <TMR2_Set_Counter_Value>:

void TMR2_Set_Counter_Value(u8 u8Val){
	myTCNT2 = u8Val;
    170a:	84 bd       	out	0x24, r24	; 36
}
    170c:	08 95       	ret

0000170e <TMR2_COM_Non_PWM_Gen>:

/*************************************** Wave Generation*************************************/
/*Compare Output Mode , Non PWM mode */
void TMR2_COM_Non_PWM_Gen(u8 duty_cycle){
	u8 val;
	SET_BIT(myDDRD,7);
    170e:	8f 9a       	sbi	0x11, 7	; 17
	val=(duty_cycle * 256) / 100;
    1710:	38 2f       	mov	r19, r24
    1712:	20 e0       	ldi	r18, 0x00	; 0
    1714:	c9 01       	movw	r24, r18
    1716:	64 e6       	ldi	r22, 0x64	; 100
    1718:	70 e0       	ldi	r23, 0x00	; 0
    171a:	0e 94 97 13 	call	0x272e	; 0x272e <__divmodhi4>
    171e:	86 2f       	mov	r24, r22
	TMR2_Set_Compare_Value(val);
    1720:	0e 94 81 0b 	call	0x1702	; 0x1702 <TMR2_Set_Compare_Value>
	SET_BIT(myTCCR2,myCOM20);
    1724:	85 b5       	in	r24, 0x25	; 37
    1726:	80 61       	ori	r24, 0x10	; 16
    1728:	85 bd       	out	0x25, r24	; 37
	CLR_BIT(myTCCR2,myCOM21);
    172a:	85 b5       	in	r24, 0x25	; 37
    172c:	8f 7d       	andi	r24, 0xDF	; 223
    172e:	85 bd       	out	0x25, r24	; 37
}
    1730:	08 95       	ret

00001732 <TMR2_Fast_PWM_Gen>:

/*Fast PWM mode */
void TMR2_Fast_PWM_Gen(u8 duty_cycle){
	u8 val;
	SET_BIT(myDDRD,7);
    1732:	8f 9a       	sbi	0x11, 7	; 17
	val=(duty_cycle * 256) / 100;
    1734:	38 2f       	mov	r19, r24
    1736:	20 e0       	ldi	r18, 0x00	; 0
    1738:	c9 01       	movw	r24, r18
    173a:	64 e6       	ldi	r22, 0x64	; 100
    173c:	70 e0       	ldi	r23, 0x00	; 0
    173e:	0e 94 97 13 	call	0x272e	; 0x272e <__divmodhi4>
    1742:	86 2f       	mov	r24, r22
	TMR2_Set_Compare_Value(val);
    1744:	0e 94 81 0b 	call	0x1702	; 0x1702 <TMR2_Set_Compare_Value>
	SET_BIT(myTCCR2,myCOM20);
    1748:	85 b5       	in	r24, 0x25	; 37
    174a:	80 61       	ori	r24, 0x10	; 16
    174c:	85 bd       	out	0x25, r24	; 37
	SET_BIT(myTCCR2,myCOM21);
    174e:	85 b5       	in	r24, 0x25	; 37
    1750:	80 62       	ori	r24, 0x20	; 32
    1752:	85 bd       	out	0x25, r24	; 37
}
    1754:	08 95       	ret

00001756 <TMR2_Phase_Correct_PWM_Gen>:
/*Phase Correct PWM mode */
void TMR2_Phase_Correct_PWM_Gen(u8 duty_cycle){
	u8 val;
	SET_BIT(myDDRD,7);
    1756:	8f 9a       	sbi	0x11, 7	; 17
	val=(duty_cycle * 256) / 100;
    1758:	38 2f       	mov	r19, r24
    175a:	20 e0       	ldi	r18, 0x00	; 0
    175c:	c9 01       	movw	r24, r18
    175e:	64 e6       	ldi	r22, 0x64	; 100
    1760:	70 e0       	ldi	r23, 0x00	; 0
    1762:	0e 94 97 13 	call	0x272e	; 0x272e <__divmodhi4>
    1766:	86 2f       	mov	r24, r22
	TMR2_Set_Compare_Value(val);
    1768:	0e 94 81 0b 	call	0x1702	; 0x1702 <TMR2_Set_Compare_Value>
	SET_BIT(myTCCR2,myCOM20);
    176c:	85 b5       	in	r24, 0x25	; 37
    176e:	80 61       	ori	r24, 0x10	; 16
    1770:	85 bd       	out	0x25, r24	; 37
	SET_BIT(myTCCR2,myCOM21);
    1772:	85 b5       	in	r24, 0x25	; 37
    1774:	80 62       	ori	r24, 0x20	; 32
    1776:	85 bd       	out	0x25, r24	; 37
}
    1778:	08 95       	ret

0000177a <callback_TMR2_Overflow_Interrupt>:
/********************************************************************************************/



void callback_TMR2_Overflow_Interrupt(void(*Ptr_to_OVI_Function)(void)){
	Ptr_To_OVFI2 = Ptr_to_OVI_Function ;
    177a:	90 93 95 00 	sts	0x0095, r25
    177e:	80 93 94 00 	sts	0x0094, r24
}
    1782:	08 95       	ret

00001784 <callback_OCR2_Compare_Match_Interrupt>:

void callback_OCR2_Compare_Match_Interrupt(void(*Ptr_to_OCM_Function)(void)){
	Ptr_To_OCMI2 = Ptr_to_OCM_Function ;
    1784:	90 93 97 00 	sts	0x0097, r25
    1788:	80 93 96 00 	sts	0x0096, r24
}
    178c:	08 95       	ret

0000178e <__vector_4>:



ISR(TIMER2_COMP_vect){
    178e:	1f 92       	push	r1
    1790:	0f 92       	push	r0
    1792:	0f b6       	in	r0, 0x3f	; 63
    1794:	0f 92       	push	r0
    1796:	11 24       	eor	r1, r1
    1798:	2f 93       	push	r18
    179a:	3f 93       	push	r19
    179c:	4f 93       	push	r20
    179e:	5f 93       	push	r21
    17a0:	6f 93       	push	r22
    17a2:	7f 93       	push	r23
    17a4:	8f 93       	push	r24
    17a6:	9f 93       	push	r25
    17a8:	af 93       	push	r26
    17aa:	bf 93       	push	r27
    17ac:	ef 93       	push	r30
    17ae:	ff 93       	push	r31
	(*Ptr_To_OCMI2)();
    17b0:	e0 91 96 00 	lds	r30, 0x0096
    17b4:	f0 91 97 00 	lds	r31, 0x0097
    17b8:	09 95       	icall
}
    17ba:	ff 91       	pop	r31
    17bc:	ef 91       	pop	r30
    17be:	bf 91       	pop	r27
    17c0:	af 91       	pop	r26
    17c2:	9f 91       	pop	r25
    17c4:	8f 91       	pop	r24
    17c6:	7f 91       	pop	r23
    17c8:	6f 91       	pop	r22
    17ca:	5f 91       	pop	r21
    17cc:	4f 91       	pop	r20
    17ce:	3f 91       	pop	r19
    17d0:	2f 91       	pop	r18
    17d2:	0f 90       	pop	r0
    17d4:	0f be       	out	0x3f, r0	; 63
    17d6:	0f 90       	pop	r0
    17d8:	1f 90       	pop	r1
    17da:	18 95       	reti

000017dc <TMR1_Get_Configuration>:
/*********************************************************************************************/



/*************************************** Timer1 **********************************************/
	void TMR1_Get_Configuration(u8 waveform , u8 TMR1_OVFI , u8 TMR1_OCIE1A , u8 TMR1_OCIE1B, u8 TMR1_TICIE1 , u8 clk_Selcet){
    17dc:	ef 92       	push	r14
    17de:	0f 93       	push	r16
		TMR1_Configuration.Mode = waveform;
    17e0:	80 93 bd 00 	sts	0x00BD, r24
		TMR1_Configuration.TMR1_OVF_Interrupt = TMR1_OVFI;
    17e4:	60 93 be 00 	sts	0x00BE, r22
		TMR1_Configuration.TMR1_OCIE1A_Interrupt = TMR1_OCIE1A;
    17e8:	40 93 bf 00 	sts	0x00BF, r20
		TMR1_Configuration.TMR1_OCIE1B_Interrupt = TMR1_OCIE1B;
    17ec:	20 93 c0 00 	sts	0x00C0, r18
		TMR1_Configuration.TMR1_TICIE1_Interrupt = TMR1_TICIE1;
    17f0:	00 93 c1 00 	sts	0x00C1, r16
		TMR1_Configuration.Prescalar = clk_Selcet ;	
    17f4:	e0 92 c2 00 	sts	0x00C2, r14
	}
    17f8:	0f 91       	pop	r16
    17fa:	ef 90       	pop	r14
    17fc:	08 95       	ret

000017fe <TMR1_vInit>:
	
	void TMR1_vInit(void){
		/*********************Adjust Mode*****************************/
			if (TMR1_Configuration.Mode == TMR1_Normal_Mode){
    17fe:	80 91 bd 00 	lds	r24, 0x00BD
    1802:	88 23       	and	r24, r24
    1804:	69 f4       	brne	.+26     	; 0x1820 <TMR1_vInit+0x22>
				CLR_BIT(myTCCR1A,myWGM10);
    1806:	8f b5       	in	r24, 0x2f	; 47
    1808:	8e 7f       	andi	r24, 0xFE	; 254
    180a:	8f bd       	out	0x2f, r24	; 47
				CLR_BIT(myTCCR1A,myWGM11);
    180c:	8f b5       	in	r24, 0x2f	; 47
    180e:	8d 7f       	andi	r24, 0xFD	; 253
    1810:	8f bd       	out	0x2f, r24	; 47
				CLR_BIT(myTCCR1B,myWGM12);
    1812:	8e b5       	in	r24, 0x2e	; 46
    1814:	87 7f       	andi	r24, 0xF7	; 247
    1816:	8e bd       	out	0x2e, r24	; 46
				CLR_BIT(myTCCR1B,myWGM13);
    1818:	8e b5       	in	r24, 0x2e	; 46
    181a:	8f 7e       	andi	r24, 0xEF	; 239
    181c:	8e bd       	out	0x2e, r24	; 46
    181e:	d1 c0       	rjmp	.+418    	; 0x19c2 <TMR1_vInit+0x1c4>
			}else if (TMR1_Configuration.Mode == TMR1_PWM_PC_8bit){
    1820:	81 30       	cpi	r24, 0x01	; 1
    1822:	69 f4       	brne	.+26     	; 0x183e <TMR1_vInit+0x40>
				SET_BIT(myTCCR1A,myWGM10);
    1824:	8f b5       	in	r24, 0x2f	; 47
    1826:	81 60       	ori	r24, 0x01	; 1
    1828:	8f bd       	out	0x2f, r24	; 47
				CLR_BIT(myTCCR1A,myWGM11);
    182a:	8f b5       	in	r24, 0x2f	; 47
    182c:	8d 7f       	andi	r24, 0xFD	; 253
    182e:	8f bd       	out	0x2f, r24	; 47
				CLR_BIT(myTCCR1B,myWGM12);
    1830:	8e b5       	in	r24, 0x2e	; 46
    1832:	87 7f       	andi	r24, 0xF7	; 247
    1834:	8e bd       	out	0x2e, r24	; 46
				CLR_BIT(myTCCR1B,myWGM13);
    1836:	8e b5       	in	r24, 0x2e	; 46
    1838:	8f 7e       	andi	r24, 0xEF	; 239
    183a:	8e bd       	out	0x2e, r24	; 46
    183c:	c2 c0       	rjmp	.+388    	; 0x19c2 <TMR1_vInit+0x1c4>
			}else if (TMR1_Configuration.Mode == TMR1_PWM_PC_9bit){
    183e:	82 30       	cpi	r24, 0x02	; 2
    1840:	69 f4       	brne	.+26     	; 0x185c <TMR1_vInit+0x5e>
				CLR_BIT(myTCCR1A,myWGM10);
    1842:	8f b5       	in	r24, 0x2f	; 47
    1844:	8e 7f       	andi	r24, 0xFE	; 254
    1846:	8f bd       	out	0x2f, r24	; 47
				SET_BIT(myTCCR1A,myWGM11);
    1848:	8f b5       	in	r24, 0x2f	; 47
    184a:	82 60       	ori	r24, 0x02	; 2
    184c:	8f bd       	out	0x2f, r24	; 47
				CLR_BIT(myTCCR1B,myWGM12);
    184e:	8e b5       	in	r24, 0x2e	; 46
    1850:	87 7f       	andi	r24, 0xF7	; 247
    1852:	8e bd       	out	0x2e, r24	; 46
				CLR_BIT(myTCCR1B,myWGM13);
    1854:	8e b5       	in	r24, 0x2e	; 46
    1856:	8f 7e       	andi	r24, 0xEF	; 239
    1858:	8e bd       	out	0x2e, r24	; 46
    185a:	b3 c0       	rjmp	.+358    	; 0x19c2 <TMR1_vInit+0x1c4>
			}else if (TMR1_Configuration.Mode == TMR1_PWM_PC_10bit){
    185c:	83 30       	cpi	r24, 0x03	; 3
    185e:	69 f4       	brne	.+26     	; 0x187a <TMR1_vInit+0x7c>
				SET_BIT(myTCCR1A,myWGM10);
    1860:	8f b5       	in	r24, 0x2f	; 47
    1862:	81 60       	ori	r24, 0x01	; 1
    1864:	8f bd       	out	0x2f, r24	; 47
				SET_BIT(myTCCR1A,myWGM11);
    1866:	8f b5       	in	r24, 0x2f	; 47
    1868:	82 60       	ori	r24, 0x02	; 2
    186a:	8f bd       	out	0x2f, r24	; 47
				CLR_BIT(myTCCR1B,myWGM12);
    186c:	8e b5       	in	r24, 0x2e	; 46
    186e:	87 7f       	andi	r24, 0xF7	; 247
    1870:	8e bd       	out	0x2e, r24	; 46
				CLR_BIT(myTCCR1B,myWGM13);
    1872:	8e b5       	in	r24, 0x2e	; 46
    1874:	8f 7e       	andi	r24, 0xEF	; 239
    1876:	8e bd       	out	0x2e, r24	; 46
    1878:	a4 c0       	rjmp	.+328    	; 0x19c2 <TMR1_vInit+0x1c4>
			}else if (TMR1_Configuration.Mode == TMR1_CTC_OCR1A_Mode){
    187a:	84 30       	cpi	r24, 0x04	; 4
    187c:	69 f4       	brne	.+26     	; 0x1898 <TMR1_vInit+0x9a>
				CLR_BIT(myTCCR1A,myWGM10);
    187e:	8f b5       	in	r24, 0x2f	; 47
    1880:	8e 7f       	andi	r24, 0xFE	; 254
    1882:	8f bd       	out	0x2f, r24	; 47
				CLR_BIT(myTCCR1A,myWGM11);
    1884:	8f b5       	in	r24, 0x2f	; 47
    1886:	8d 7f       	andi	r24, 0xFD	; 253
    1888:	8f bd       	out	0x2f, r24	; 47
				SET_BIT(myTCCR1B,myWGM12);
    188a:	8e b5       	in	r24, 0x2e	; 46
    188c:	88 60       	ori	r24, 0x08	; 8
    188e:	8e bd       	out	0x2e, r24	; 46
				CLR_BIT(myTCCR1B,myWGM13);
    1890:	8e b5       	in	r24, 0x2e	; 46
    1892:	8f 7e       	andi	r24, 0xEF	; 239
    1894:	8e bd       	out	0x2e, r24	; 46
    1896:	95 c0       	rjmp	.+298    	; 0x19c2 <TMR1_vInit+0x1c4>
			}else if (TMR1_Configuration.Mode == TMR1_Fast_PWM_8bit){
    1898:	85 30       	cpi	r24, 0x05	; 5
    189a:	69 f4       	brne	.+26     	; 0x18b6 <TMR1_vInit+0xb8>
				SET_BIT(myTCCR1A,myWGM10);
    189c:	8f b5       	in	r24, 0x2f	; 47
    189e:	81 60       	ori	r24, 0x01	; 1
    18a0:	8f bd       	out	0x2f, r24	; 47
				CLR_BIT(myTCCR1A,myWGM11);
    18a2:	8f b5       	in	r24, 0x2f	; 47
    18a4:	8d 7f       	andi	r24, 0xFD	; 253
    18a6:	8f bd       	out	0x2f, r24	; 47
				SET_BIT(myTCCR1B,myWGM12);
    18a8:	8e b5       	in	r24, 0x2e	; 46
    18aa:	88 60       	ori	r24, 0x08	; 8
    18ac:	8e bd       	out	0x2e, r24	; 46
				CLR_BIT(myTCCR1B,myWGM13);
    18ae:	8e b5       	in	r24, 0x2e	; 46
    18b0:	8f 7e       	andi	r24, 0xEF	; 239
    18b2:	8e bd       	out	0x2e, r24	; 46
    18b4:	86 c0       	rjmp	.+268    	; 0x19c2 <TMR1_vInit+0x1c4>
			}else if (TMR1_Configuration.Mode == TMR1_Fast_PWM_9bit){
    18b6:	86 30       	cpi	r24, 0x06	; 6
    18b8:	69 f4       	brne	.+26     	; 0x18d4 <TMR1_vInit+0xd6>
				CLR_BIT(myTCCR1A,myWGM10);
    18ba:	8f b5       	in	r24, 0x2f	; 47
    18bc:	8e 7f       	andi	r24, 0xFE	; 254
    18be:	8f bd       	out	0x2f, r24	; 47
				SET_BIT(myTCCR1A,myWGM11);
    18c0:	8f b5       	in	r24, 0x2f	; 47
    18c2:	82 60       	ori	r24, 0x02	; 2
    18c4:	8f bd       	out	0x2f, r24	; 47
				SET_BIT(myTCCR1B,myWGM12);
    18c6:	8e b5       	in	r24, 0x2e	; 46
    18c8:	88 60       	ori	r24, 0x08	; 8
    18ca:	8e bd       	out	0x2e, r24	; 46
				CLR_BIT(myTCCR1B,myWGM13);
    18cc:	8e b5       	in	r24, 0x2e	; 46
    18ce:	8f 7e       	andi	r24, 0xEF	; 239
    18d0:	8e bd       	out	0x2e, r24	; 46
    18d2:	77 c0       	rjmp	.+238    	; 0x19c2 <TMR1_vInit+0x1c4>
			}else if (TMR1_Configuration.Mode == TMR1_Fast_PWM_10bit){
    18d4:	87 30       	cpi	r24, 0x07	; 7
    18d6:	69 f4       	brne	.+26     	; 0x18f2 <TMR1_vInit+0xf4>
				SET_BIT(myTCCR1A,myWGM10);
    18d8:	8f b5       	in	r24, 0x2f	; 47
    18da:	81 60       	ori	r24, 0x01	; 1
    18dc:	8f bd       	out	0x2f, r24	; 47
				SET_BIT(myTCCR1A,myWGM11);
    18de:	8f b5       	in	r24, 0x2f	; 47
    18e0:	82 60       	ori	r24, 0x02	; 2
    18e2:	8f bd       	out	0x2f, r24	; 47
				SET_BIT(myTCCR1B,myWGM12);
    18e4:	8e b5       	in	r24, 0x2e	; 46
    18e6:	88 60       	ori	r24, 0x08	; 8
    18e8:	8e bd       	out	0x2e, r24	; 46
				CLR_BIT(myTCCR1B,myWGM13);
    18ea:	8e b5       	in	r24, 0x2e	; 46
    18ec:	8f 7e       	andi	r24, 0xEF	; 239
    18ee:	8e bd       	out	0x2e, r24	; 46
    18f0:	68 c0       	rjmp	.+208    	; 0x19c2 <TMR1_vInit+0x1c4>
			}else if (TMR1_Configuration.Mode == TMR1_PWM_PFC_ICR1){
    18f2:	88 30       	cpi	r24, 0x08	; 8
    18f4:	69 f4       	brne	.+26     	; 0x1910 <TMR1_vInit+0x112>
				CLR_BIT(myTCCR1A,myWGM10);
    18f6:	8f b5       	in	r24, 0x2f	; 47
    18f8:	8e 7f       	andi	r24, 0xFE	; 254
    18fa:	8f bd       	out	0x2f, r24	; 47
				CLR_BIT(myTCCR1A,myWGM11);
    18fc:	8f b5       	in	r24, 0x2f	; 47
    18fe:	8d 7f       	andi	r24, 0xFD	; 253
    1900:	8f bd       	out	0x2f, r24	; 47
				CLR_BIT(myTCCR1B,myWGM12);
    1902:	8e b5       	in	r24, 0x2e	; 46
    1904:	87 7f       	andi	r24, 0xF7	; 247
    1906:	8e bd       	out	0x2e, r24	; 46
				SET_BIT(myTCCR1B,myWGM13);
    1908:	8e b5       	in	r24, 0x2e	; 46
    190a:	80 61       	ori	r24, 0x10	; 16
    190c:	8e bd       	out	0x2e, r24	; 46
    190e:	59 c0       	rjmp	.+178    	; 0x19c2 <TMR1_vInit+0x1c4>
			}else if (TMR1_Configuration.Mode == TMR1_PWM_PFC_OCR1A){
    1910:	89 30       	cpi	r24, 0x09	; 9
    1912:	69 f4       	brne	.+26     	; 0x192e <TMR1_vInit+0x130>
				SET_BIT(myTCCR1A,myWGM10);
    1914:	8f b5       	in	r24, 0x2f	; 47
    1916:	81 60       	ori	r24, 0x01	; 1
    1918:	8f bd       	out	0x2f, r24	; 47
				CLR_BIT(myTCCR1A,myWGM11);
    191a:	8f b5       	in	r24, 0x2f	; 47
    191c:	8d 7f       	andi	r24, 0xFD	; 253
    191e:	8f bd       	out	0x2f, r24	; 47
				CLR_BIT(myTCCR1B,myWGM12);
    1920:	8e b5       	in	r24, 0x2e	; 46
    1922:	87 7f       	andi	r24, 0xF7	; 247
    1924:	8e bd       	out	0x2e, r24	; 46
				SET_BIT(myTCCR1B,myWGM13);
    1926:	8e b5       	in	r24, 0x2e	; 46
    1928:	80 61       	ori	r24, 0x10	; 16
    192a:	8e bd       	out	0x2e, r24	; 46
    192c:	4a c0       	rjmp	.+148    	; 0x19c2 <TMR1_vInit+0x1c4>
			}else if (TMR1_Configuration.Mode == TMR1_PWM_PC_ICR1){
    192e:	8a 30       	cpi	r24, 0x0A	; 10
    1930:	69 f4       	brne	.+26     	; 0x194c <TMR1_vInit+0x14e>
				CLR_BIT(myTCCR1A,myWGM10);
    1932:	8f b5       	in	r24, 0x2f	; 47
    1934:	8e 7f       	andi	r24, 0xFE	; 254
    1936:	8f bd       	out	0x2f, r24	; 47
				SET_BIT(myTCCR1A,myWGM11);
    1938:	8f b5       	in	r24, 0x2f	; 47
    193a:	82 60       	ori	r24, 0x02	; 2
    193c:	8f bd       	out	0x2f, r24	; 47
				CLR_BIT(myTCCR1B,myWGM12);
    193e:	8e b5       	in	r24, 0x2e	; 46
    1940:	87 7f       	andi	r24, 0xF7	; 247
    1942:	8e bd       	out	0x2e, r24	; 46
				SET_BIT(myTCCR1B,myWGM13);
    1944:	8e b5       	in	r24, 0x2e	; 46
    1946:	80 61       	ori	r24, 0x10	; 16
    1948:	8e bd       	out	0x2e, r24	; 46
    194a:	3b c0       	rjmp	.+118    	; 0x19c2 <TMR1_vInit+0x1c4>
			}else if (TMR1_Configuration.Mode == TMR1_PWM_PC_OCR1A){
    194c:	8b 30       	cpi	r24, 0x0B	; 11
    194e:	69 f4       	brne	.+26     	; 0x196a <TMR1_vInit+0x16c>
				SET_BIT(myTCCR1A,myWGM10);
    1950:	8f b5       	in	r24, 0x2f	; 47
    1952:	81 60       	ori	r24, 0x01	; 1
    1954:	8f bd       	out	0x2f, r24	; 47
				SET_BIT(myTCCR1A,myWGM11);
    1956:	8f b5       	in	r24, 0x2f	; 47
    1958:	82 60       	ori	r24, 0x02	; 2
    195a:	8f bd       	out	0x2f, r24	; 47
				CLR_BIT(myTCCR1B,myWGM12);
    195c:	8e b5       	in	r24, 0x2e	; 46
    195e:	87 7f       	andi	r24, 0xF7	; 247
    1960:	8e bd       	out	0x2e, r24	; 46
				SET_BIT(myTCCR1B,myWGM13);
    1962:	8e b5       	in	r24, 0x2e	; 46
    1964:	80 61       	ori	r24, 0x10	; 16
    1966:	8e bd       	out	0x2e, r24	; 46
    1968:	2c c0       	rjmp	.+88     	; 0x19c2 <TMR1_vInit+0x1c4>
			}else if (TMR1_Configuration.Mode == TMR1_CTC_ICR1_Mode){
    196a:	8c 30       	cpi	r24, 0x0C	; 12
    196c:	69 f4       	brne	.+26     	; 0x1988 <TMR1_vInit+0x18a>
				CLR_BIT(myTCCR1A,myWGM10);
    196e:	8f b5       	in	r24, 0x2f	; 47
    1970:	8e 7f       	andi	r24, 0xFE	; 254
    1972:	8f bd       	out	0x2f, r24	; 47
				CLR_BIT(myTCCR1A,myWGM11);
    1974:	8f b5       	in	r24, 0x2f	; 47
    1976:	8d 7f       	andi	r24, 0xFD	; 253
    1978:	8f bd       	out	0x2f, r24	; 47
				SET_BIT(myTCCR1B,myWGM12);
    197a:	8e b5       	in	r24, 0x2e	; 46
    197c:	88 60       	ori	r24, 0x08	; 8
    197e:	8e bd       	out	0x2e, r24	; 46
				SET_BIT(myTCCR1B,myWGM13);
    1980:	8e b5       	in	r24, 0x2e	; 46
    1982:	80 61       	ori	r24, 0x10	; 16
    1984:	8e bd       	out	0x2e, r24	; 46
    1986:	1d c0       	rjmp	.+58     	; 0x19c2 <TMR1_vInit+0x1c4>
			}else if (TMR1_Configuration.Mode == TMR1_Fast_PWM_ICR1){	
    1988:	8d 30       	cpi	r24, 0x0D	; 13
    198a:	69 f4       	brne	.+26     	; 0x19a6 <TMR1_vInit+0x1a8>
				CLR_BIT(myTCCR1A,myWGM10);
    198c:	8f b5       	in	r24, 0x2f	; 47
    198e:	8e 7f       	andi	r24, 0xFE	; 254
    1990:	8f bd       	out	0x2f, r24	; 47
				SET_BIT(myTCCR1A,myWGM11);
    1992:	8f b5       	in	r24, 0x2f	; 47
    1994:	82 60       	ori	r24, 0x02	; 2
    1996:	8f bd       	out	0x2f, r24	; 47
				SET_BIT(myTCCR1B,myWGM12);
    1998:	8e b5       	in	r24, 0x2e	; 46
    199a:	88 60       	ori	r24, 0x08	; 8
    199c:	8e bd       	out	0x2e, r24	; 46
				SET_BIT(myTCCR1B,myWGM13);					
    199e:	8e b5       	in	r24, 0x2e	; 46
    19a0:	80 61       	ori	r24, 0x10	; 16
    19a2:	8e bd       	out	0x2e, r24	; 46
    19a4:	0e c0       	rjmp	.+28     	; 0x19c2 <TMR1_vInit+0x1c4>
			}else if (TMR1_Configuration.Mode == TMR1_Fast_PWM_OCR1A){
    19a6:	8e 30       	cpi	r24, 0x0E	; 14
    19a8:	61 f4       	brne	.+24     	; 0x19c2 <TMR1_vInit+0x1c4>
				SET_BIT(myTCCR1A,myWGM10);
    19aa:	8f b5       	in	r24, 0x2f	; 47
    19ac:	81 60       	ori	r24, 0x01	; 1
    19ae:	8f bd       	out	0x2f, r24	; 47
				SET_BIT(myTCCR1A,myWGM11);
    19b0:	8f b5       	in	r24, 0x2f	; 47
    19b2:	82 60       	ori	r24, 0x02	; 2
    19b4:	8f bd       	out	0x2f, r24	; 47
				SET_BIT(myTCCR1B,myWGM12);
    19b6:	8e b5       	in	r24, 0x2e	; 46
    19b8:	88 60       	ori	r24, 0x08	; 8
    19ba:	8e bd       	out	0x2e, r24	; 46
				SET_BIT(myTCCR1B,myWGM13);
    19bc:	8e b5       	in	r24, 0x2e	; 46
    19be:	80 61       	ori	r24, 0x10	; 16
    19c0:	8e bd       	out	0x2e, r24	; 46
			}
			
		/****************************************************************/
		/************************Adjust prescalar************************/
			myTCCR1B |= TMR1_Configuration.Prescalar;
    19c2:	9e b5       	in	r25, 0x2e	; 46
    19c4:	80 91 c2 00 	lds	r24, 0x00C2
    19c8:	89 2b       	or	r24, r25
    19ca:	8e bd       	out	0x2e, r24	; 46
		/****************************************************************/
		/*************Over flow Interrupt Enable/Disable*****************/
			if (TMR1_Configuration.TMR1_OVF_Interrupt==TOIE1_enable){
    19cc:	80 91 be 00 	lds	r24, 0x00BE
    19d0:	88 23       	and	r24, r24
    19d2:	21 f4       	brne	.+8      	; 0x19dc <TMR1_vInit+0x1de>
				SET_BIT(myTIMSK,myTOIE1);
    19d4:	89 b7       	in	r24, 0x39	; 57
    19d6:	84 60       	ori	r24, 0x04	; 4
    19d8:	89 bf       	out	0x39, r24	; 57
    19da:	05 c0       	rjmp	.+10     	; 0x19e6 <TMR1_vInit+0x1e8>
			}else if (TMR1_Configuration.TMR1_OVF_Interrupt==TOIE1_disable){
    19dc:	81 30       	cpi	r24, 0x01	; 1
    19de:	19 f4       	brne	.+6      	; 0x19e6 <TMR1_vInit+0x1e8>
				CLR_BIT(myTIMSK,myTOIE1);
    19e0:	89 b7       	in	r24, 0x39	; 57
    19e2:	8b 7f       	andi	r24, 0xFB	; 251
    19e4:	89 bf       	out	0x39, r24	; 57
			}
		/****************************************************************/
		/******************OCR1 Interrupt Enable/Disable*****************/
			if (TMR1_Configuration.TMR1_OCIE1A_Interrupt==OCIE1A_enable){
    19e6:	80 91 bf 00 	lds	r24, 0x00BF
    19ea:	88 23       	and	r24, r24
    19ec:	21 f4       	brne	.+8      	; 0x19f6 <TMR1_vInit+0x1f8>
				SET_BIT(myTIMSK,myOCIE1A);
    19ee:	89 b7       	in	r24, 0x39	; 57
    19f0:	80 61       	ori	r24, 0x10	; 16
    19f2:	89 bf       	out	0x39, r24	; 57
    19f4:	05 c0       	rjmp	.+10     	; 0x1a00 <TMR1_vInit+0x202>
			}else if (TMR1_Configuration.TMR1_OCIE1A_Interrupt==OCIE1A_disable){
    19f6:	81 30       	cpi	r24, 0x01	; 1
    19f8:	19 f4       	brne	.+6      	; 0x1a00 <TMR1_vInit+0x202>
				CLR_BIT(myTIMSK,myOCIE1A);
    19fa:	89 b7       	in	r24, 0x39	; 57
    19fc:	8f 7e       	andi	r24, 0xEF	; 239
    19fe:	89 bf       	out	0x39, r24	; 57
			}
			if (TMR1_Configuration.TMR1_OCIE1B_Interrupt==OCIE1B_enable){
    1a00:	80 91 c0 00 	lds	r24, 0x00C0
    1a04:	82 30       	cpi	r24, 0x02	; 2
    1a06:	21 f4       	brne	.+8      	; 0x1a10 <TMR1_vInit+0x212>
				SET_BIT(myTIMSK,myOCIE1B);
    1a08:	89 b7       	in	r24, 0x39	; 57
    1a0a:	88 60       	ori	r24, 0x08	; 8
    1a0c:	89 bf       	out	0x39, r24	; 57
    1a0e:	05 c0       	rjmp	.+10     	; 0x1a1a <TMR1_vInit+0x21c>
			}else if (TMR1_Configuration.TMR1_OCIE1B_Interrupt==OCIE1B_disable){
    1a10:	83 30       	cpi	r24, 0x03	; 3
    1a12:	19 f4       	brne	.+6      	; 0x1a1a <TMR1_vInit+0x21c>
				CLR_BIT(myTIMSK,myOCIE1B);
    1a14:	89 b7       	in	r24, 0x39	; 57
    1a16:	87 7f       	andi	r24, 0xF7	; 247
    1a18:	89 bf       	out	0x39, r24	; 57
			}
		/****************************************************************/
		/******************ICF1 Interrupt Enable/Disable*****************/
			if (TMR1_Configuration.TMR1_TICIE1_Interrupt==TICIE1_enable){
    1a1a:	80 91 c1 00 	lds	r24, 0x00C1
    1a1e:	88 23       	and	r24, r24
    1a20:	21 f4       	brne	.+8      	; 0x1a2a <TMR1_vInit+0x22c>
				SET_BIT(myTIMSK,myTICIE1);
    1a22:	89 b7       	in	r24, 0x39	; 57
    1a24:	80 62       	ori	r24, 0x20	; 32
    1a26:	89 bf       	out	0x39, r24	; 57
    1a28:	08 95       	ret
			}else if (TMR1_Configuration.TMR1_TICIE1_Interrupt==TICIE1_disable){
    1a2a:	81 30       	cpi	r24, 0x01	; 1
    1a2c:	19 f4       	brne	.+6      	; 0x1a34 <TMR1_vInit+0x236>
				CLR_BIT(myTIMSK,myTICIE1);
    1a2e:	89 b7       	in	r24, 0x39	; 57
    1a30:	8f 7d       	andi	r24, 0xDF	; 223
    1a32:	89 bf       	out	0x39, r24	; 57
    1a34:	08 95       	ret

00001a36 <TMR1_Set_Compare_Value>:
		/****************************************************************/							
	}
	
	
	void TMR1_Set_Compare_Value(u16 u8Val){
		myOCR1AL = (u8)u8Val;
    1a36:	8a bd       	out	0x2a, r24	; 42
		myOCR1AH |=(u8Val<<8);
    1a38:	8b b5       	in	r24, 0x2b	; 43
    1a3a:	8b bd       	out	0x2b, r24	; 43
	}
    1a3c:	08 95       	ret

00001a3e <TMR1_Read_count>:
	
	u16 TMR1_Read_count(void){
		u8 temp1 , temp2 ;
		u16 Result;
		temp1 = myTCNT1L;
    1a3e:	8c b5       	in	r24, 0x2c	; 44
		temp2 = myTCNT1H;
    1a40:	9d b5       	in	r25, 0x2d	; 45
		Result = temp1 | (temp2<<8);
    1a42:	39 2f       	mov	r19, r25
    1a44:	20 e0       	ldi	r18, 0x00	; 0
    1a46:	90 e0       	ldi	r25, 0x00	; 0
    1a48:	82 2b       	or	r24, r18
    1a4a:	93 2b       	or	r25, r19
		return Result;
	}
    1a4c:	08 95       	ret

00001a4e <TMR1_Set_Input_capture_reg>:
	
	void TMR1_Set_Input_capture_reg(u16 val){
		ICR1 = val;
    1a4e:	97 bd       	out	0x27, r25	; 39
    1a50:	86 bd       	out	0x26, r24	; 38
	}
    1a52:	08 95       	ret

00001a54 <TMR1_Fast_PWM_Gen>:
	void TMR1_Fast_PWM_Gen(f64 val){
		/* set OC1A as output pin */
		SET_BIT(DDRD,5);
    1a54:	8d 9a       	sbi	0x11, 5	; 17
		/* select fast PWM mode*/
		SET_BIT(TCCR1A,WGM11);
    1a56:	2f b5       	in	r18, 0x2f	; 47
    1a58:	22 60       	ori	r18, 0x02	; 2
    1a5a:	2f bd       	out	0x2f, r18	; 47
		SET_BIT(TCCR1B,WGM12);
    1a5c:	2e b5       	in	r18, 0x2e	; 46
    1a5e:	28 60       	ori	r18, 0x08	; 8
    1a60:	2e bd       	out	0x2e, r18	; 46
		SET_BIT(TCCR1B,WGM13);
    1a62:	2e b5       	in	r18, 0x2e	; 46
    1a64:	20 61       	ori	r18, 0x10	; 16
    1a66:	2e bd       	out	0x2e, r18	; 46
		/* load a value in OCR1A,ICR1 */
		OCR1A=val*1000;
    1a68:	20 e0       	ldi	r18, 0x00	; 0
    1a6a:	30 e0       	ldi	r19, 0x00	; 0
    1a6c:	4a e7       	ldi	r20, 0x7A	; 122
    1a6e:	54 e4       	ldi	r21, 0x44	; 68
    1a70:	0e 94 34 13 	call	0x2668	; 0x2668 <__mulsf3>
    1a74:	0e 94 56 12 	call	0x24ac	; 0x24ac <__fixunssfsi>
    1a78:	dc 01       	movw	r26, r24
    1a7a:	cb 01       	movw	r24, r22
    1a7c:	9b bd       	out	0x2b, r25	; 43
    1a7e:	8a bd       	out	0x2a, r24	; 42
		ICR1=19999;
    1a80:	8f e1       	ldi	r24, 0x1F	; 31
    1a82:	9e e4       	ldi	r25, 0x4E	; 78
    1a84:	97 bd       	out	0x27, r25	; 39
    1a86:	86 bd       	out	0x26, r24	; 38
		/* select timer clock, no prescaling */ 
		SET_BIT(TCCR1B,CS10);
    1a88:	8e b5       	in	r24, 0x2e	; 46
    1a8a:	81 60       	ori	r24, 0x01	; 1
    1a8c:	8e bd       	out	0x2e, r24	; 46
		/* clear OC1A on compare match, set OC1A at BOTTOM,(non inverting mode)*/
		SET_BIT(TCCR1A,COM1A1);
    1a8e:	8f b5       	in	r24, 0x2f	; 47
    1a90:	80 68       	ori	r24, 0x80	; 128
    1a92:	8f bd       	out	0x2f, r24	; 47
	}
    1a94:	08 95       	ret

00001a96 <TMU_Init>:
static Str_TMU_OBJ * TMU_Internal_Buffer[Max_Timer_Number];
static u8 TMU_Internal_Buffer_Counter =0;
static u16 TMU_Res_MS = 0;
static u8 TMU_initalization = E_False;

TMU_ErrorTypes TMU_Init(u8 Timer_Channel , u16 Resolution){
    1a96:	e9 e9       	ldi	r30, 0x99	; 153
    1a98:	f0 e0       	ldi	r31, 0x00	; 0
    1a9a:	cf 01       	movw	r24, r30
    1a9c:	44 96       	adiw	r24, 0x14	; 20
	u8 i;
	
	for (i=0; i < Max_Timer_Number ; i++){
		TMU_Internal_Buffer[i]= NULL;
    1a9e:	11 92       	st	Z+, r1
    1aa0:	11 92       	st	Z+, r1
static u8 TMU_initalization = E_False;

TMU_ErrorTypes TMU_Init(u8 Timer_Channel , u16 Resolution){
	u8 i;
	
	for (i=0; i < Max_Timer_Number ; i++){
    1aa2:	e8 17       	cp	r30, r24
    1aa4:	f9 07       	cpc	r31, r25
    1aa6:	d9 f7       	brne	.-10     	; 0x1a9e <TMU_Init+0x8>
		TMU_Internal_Buffer[i]= NULL;
	}
	
	TMU_ErrorTypes s_ret_val =NO_ERRORS ;
	TMU_Res_MS = Resolution * TMU_Resolution; 
    1aa8:	cb 01       	movw	r24, r22
    1aaa:	88 0f       	add	r24, r24
    1aac:	99 1f       	adc	r25, r25
    1aae:	88 0f       	add	r24, r24
    1ab0:	99 1f       	adc	r25, r25
    1ab2:	68 0f       	add	r22, r24
    1ab4:	79 1f       	adc	r23, r25
    1ab6:	70 93 ae 00 	sts	0x00AE, r23
    1aba:	60 93 ad 00 	sts	0x00AD, r22
	TMU_initalization = E_True;
    1abe:	81 e0       	ldi	r24, 0x01	; 1
    1ac0:	80 93 af 00 	sts	0x00AF, r24
	

	
	return s_ret_val;
}
    1ac4:	80 e0       	ldi	r24, 0x00	; 0
    1ac6:	08 95       	ret

00001ac8 <TMU_Start_Timer>:

TMU_ErrorTypes TMU_Start_Timer(Str_TMU_OBJ *OBJ , u8 Type , u16 delay ,void (*CB_func)(void)){
    1ac8:	cf 93       	push	r28
	cli();
    1aca:	f8 94       	cli
	TMU_ErrorTypes S_ret_val = NO_ERRORS;
	if (TMU_initalization=E_True){
    1acc:	71 e0       	ldi	r23, 0x01	; 1
    1ace:	70 93 af 00 	sts	0x00AF, r23
		if (TMU_Internal_Buffer_Counter < Max_Timer_Number){
    1ad2:	70 91 b0 00 	lds	r23, 0x00B0
    1ad6:	7a 30       	cpi	r23, 0x0A	; 10
    1ad8:	00 f5       	brcc	.+64     	; 0x1b1a <TMU_Start_Timer+0x52>
			if ((OBJ!=NULL)&&((Type == Periodic)||(Type == One_Shot)) && (delay !=0)&&(CB_func != NULL)){
    1ada:	00 97       	sbiw	r24, 0x00	; 0
    1adc:	01 f1       	breq	.+64     	; 0x1b1e <TMU_Start_Timer+0x56>
    1ade:	62 30       	cpi	r22, 0x02	; 2
    1ae0:	00 f5       	brcc	.+64     	; 0x1b22 <TMU_Start_Timer+0x5a>
    1ae2:	41 15       	cp	r20, r1
    1ae4:	51 05       	cpc	r21, r1
    1ae6:	f9 f0       	breq	.+62     	; 0x1b26 <TMU_Start_Timer+0x5e>
    1ae8:	21 15       	cp	r18, r1
    1aea:	31 05       	cpc	r19, r1
    1aec:	f1 f0       	breq	.+60     	; 0x1b2a <TMU_Start_Timer+0x62>
				OBJ ->ptr_Delaycompletefun_User_CBK = CB_func;
    1aee:	fc 01       	movw	r30, r24
    1af0:	31 83       	std	Z+1, r19	; 0x01
    1af2:	20 83       	st	Z, r18
				OBJ ->Delay = delay;
    1af4:	53 83       	std	Z+3, r21	; 0x03
    1af6:	42 83       	std	Z+2, r20	; 0x02
				OBJ ->Periodicity = Type;
    1af8:	64 83       	std	Z+4, r22	; 0x04
				OBJ ->Remaining_Time = delay;
    1afa:	56 83       	std	Z+6, r21	; 0x06
    1afc:	45 83       	std	Z+5, r20	; 0x05
				OBJ ->index = TMU_Internal_Buffer_Counter;
    1afe:	77 83       	std	Z+7, r23	; 0x07
				TMU_Internal_Buffer[TMU_Internal_Buffer_Counter]=OBJ;
    1b00:	e7 2f       	mov	r30, r23
    1b02:	f0 e0       	ldi	r31, 0x00	; 0
    1b04:	ee 0f       	add	r30, r30
    1b06:	ff 1f       	adc	r31, r31
    1b08:	e7 56       	subi	r30, 0x67	; 103
    1b0a:	ff 4f       	sbci	r31, 0xFF	; 255
    1b0c:	91 83       	std	Z+1, r25	; 0x01
    1b0e:	80 83       	st	Z, r24
				TMU_Internal_Buffer_Counter++;
    1b10:	7f 5f       	subi	r23, 0xFF	; 255
    1b12:	70 93 b0 00 	sts	0x00B0, r23
	return s_ret_val;
}

TMU_ErrorTypes TMU_Start_Timer(Str_TMU_OBJ *OBJ , u8 Type , u16 delay ,void (*CB_func)(void)){
	cli();
	TMU_ErrorTypes S_ret_val = NO_ERRORS;
    1b16:	c0 e0       	ldi	r28, 0x00	; 0
				OBJ ->Delay = delay;
				OBJ ->Periodicity = Type;
				OBJ ->Remaining_Time = delay;
				OBJ ->index = TMU_Internal_Buffer_Counter;
				TMU_Internal_Buffer[TMU_Internal_Buffer_Counter]=OBJ;
				TMU_Internal_Buffer_Counter++;
    1b18:	09 c0       	rjmp	.+18     	; 0x1b2c <TMU_Start_Timer+0x64>
			}else{
				S_ret_val = INVALID_PARAMS;
			}
			
		}else{
			S_ret_val = MAX_NO_REACHED;
    1b1a:	c3 e0       	ldi	r28, 0x03	; 3
    1b1c:	07 c0       	rjmp	.+14     	; 0x1b2c <TMU_Start_Timer+0x64>
				OBJ ->Remaining_Time = delay;
				OBJ ->index = TMU_Internal_Buffer_Counter;
				TMU_Internal_Buffer[TMU_Internal_Buffer_Counter]=OBJ;
				TMU_Internal_Buffer_Counter++;
			}else{
				S_ret_val = INVALID_PARAMS;
    1b1e:	c2 e0       	ldi	r28, 0x02	; 2
    1b20:	05 c0       	rjmp	.+10     	; 0x1b2c <TMU_Start_Timer+0x64>
    1b22:	c2 e0       	ldi	r28, 0x02	; 2
    1b24:	03 c0       	rjmp	.+6      	; 0x1b2c <TMU_Start_Timer+0x64>
    1b26:	c2 e0       	ldi	r28, 0x02	; 2
    1b28:	01 c0       	rjmp	.+2      	; 0x1b2c <TMU_Start_Timer+0x64>
    1b2a:	c2 e0       	ldi	r28, 0x02	; 2
		}
	}else{
		S_ret_val = TIMER_NOT_INITIATED;
	}
	
	TMR2_Get_Configuration(NORMAL_Mode,TOIE2_enable,OCIE2_disable,NO_PRESCALING);
    1b2c:	80 e0       	ldi	r24, 0x00	; 0
    1b2e:	60 e0       	ldi	r22, 0x00	; 0
    1b30:	41 e0       	ldi	r20, 0x01	; 1
    1b32:	21 e0       	ldi	r18, 0x01	; 1
    1b34:	0e 94 2a 0b 	call	0x1654	; 0x1654 <TMR2_Get_Configuration>
	TMR2_Set_Counter_Value(55); 
    1b38:	87 e3       	ldi	r24, 0x37	; 55
    1b3a:	0e 94 85 0b 	call	0x170a	; 0x170a <TMR2_Set_Counter_Value>
	SET_BIT(myTIFR,myTOV2);
    1b3e:	88 b7       	in	r24, 0x38	; 56
    1b40:	80 64       	ori	r24, 0x40	; 64
    1b42:	88 bf       	out	0x38, r24	; 56
	sei();
    1b44:	78 94       	sei
	return S_ret_val;
	
}
    1b46:	8c 2f       	mov	r24, r28
    1b48:	cf 91       	pop	r28
    1b4a:	08 95       	ret

00001b4c <TMU_Stop_Timer>:

TMU_ErrorTypes TMU_Stop_Timer(Str_TMU_OBJ *OBJ){
    1b4c:	fc 01       	movw	r30, r24
	cli();
    1b4e:	f8 94       	cli
		TMU_ErrorTypes S_ret_val = NO_ERRORS;
		if (OBJ != NULL){
    1b50:	00 97       	sbiw	r24, 0x00	; 0
    1b52:	c9 f0       	breq	.+50     	; 0x1b86 <TMU_Stop_Timer+0x3a>
			OBJ->ptr_Delaycompletefun_User_CBK = NULL;
    1b54:	11 82       	std	Z+1, r1	; 0x01
    1b56:	10 82       	st	Z, r1
			OBJ->Delay = 0;
    1b58:	13 82       	std	Z+3, r1	; 0x03
    1b5a:	12 82       	std	Z+2, r1	; 0x02
			OBJ->Remaining_Time=0;
    1b5c:	16 82       	std	Z+6, r1	; 0x06
    1b5e:	15 82       	std	Z+5, r1	; 0x05
			OBJ->Periodicity = INVALID_TYPE;
    1b60:	82 e0       	ldi	r24, 0x02	; 2
    1b62:	84 83       	std	Z+4, r24	; 0x04
			TMU_Internal_Buffer[OBJ->index]=NULL;
    1b64:	a7 81       	ldd	r26, Z+7	; 0x07
    1b66:	b0 e0       	ldi	r27, 0x00	; 0
    1b68:	aa 0f       	add	r26, r26
    1b6a:	bb 1f       	adc	r27, r27
    1b6c:	a7 56       	subi	r26, 0x67	; 103
    1b6e:	bf 4f       	sbci	r27, 0xFF	; 255
    1b70:	11 96       	adiw	r26, 0x01	; 1
    1b72:	1c 92       	st	X, r1
    1b74:	1e 92       	st	-X, r1
			OBJ->index=0;
    1b76:	17 82       	std	Z+7, r1	; 0x07
			TMU_Internal_Buffer_Counter--;
    1b78:	80 91 b0 00 	lds	r24, 0x00B0
    1b7c:	81 50       	subi	r24, 0x01	; 1
    1b7e:	80 93 b0 00 	sts	0x00B0, r24
	
}

TMU_ErrorTypes TMU_Stop_Timer(Str_TMU_OBJ *OBJ){
	cli();
		TMU_ErrorTypes S_ret_val = NO_ERRORS;
    1b82:	80 e0       	ldi	r24, 0x00	; 0
    1b84:	01 c0       	rjmp	.+2      	; 0x1b88 <TMU_Stop_Timer+0x3c>
			OBJ->Periodicity = INVALID_TYPE;
			TMU_Internal_Buffer[OBJ->index]=NULL;
			OBJ->index=0;
			TMU_Internal_Buffer_Counter--;
		}else{
			S_ret_val =INVALID_PARAMS;
    1b86:	82 e0       	ldi	r24, 0x02	; 2
		}			
	sei();
    1b88:	78 94       	sei
	return S_ret_val;
}
    1b8a:	08 95       	ret

00001b8c <TMU_dispatch>:

TMU_ErrorTypes TMU_dispatch(void){
    1b8c:	ef 92       	push	r14
    1b8e:	ff 92       	push	r15
    1b90:	0f 93       	push	r16
    1b92:	1f 93       	push	r17
    1b94:	cf 93       	push	r28
    1b96:	df 93       	push	r29
	cli();
    1b98:	f8 94       	cli
		u8 i=0;
		TMU_ErrorTypes S_ret_val = NO_ERRORS;
		if(TMU_initalization==E_True){
    1b9a:	80 91 af 00 	lds	r24, 0x00AF
    1b9e:	81 30       	cpi	r24, 0x01	; 1
    1ba0:	71 f5       	brne	.+92     	; 0x1bfe <TMU_dispatch+0x72>
    1ba2:	c9 e9       	ldi	r28, 0x99	; 153
    1ba4:	d0 e0       	ldi	r29, 0x00	; 0
		}			
	sei();
	return S_ret_val;
}

TMU_ErrorTypes TMU_dispatch(void){
    1ba6:	0f 2e       	mov	r0, r31
    1ba8:	f4 e1       	ldi	r31, 0x14	; 20
    1baa:	ef 2e       	mov	r14, r31
    1bac:	ff 24       	eor	r15, r15
    1bae:	f0 2d       	mov	r31, r0
    1bb0:	ec 0e       	add	r14, r28
    1bb2:	fd 1e       	adc	r15, r29
	cli();
		u8 i=0;
		TMU_ErrorTypes S_ret_val = NO_ERRORS;
		if(TMU_initalization==E_True){
			for(i=0;i<Max_Timer_Number;i++){
				if(TMU_Internal_Buffer[i]!=NULL){
    1bb4:	e8 81       	ld	r30, Y
    1bb6:	f9 81       	ldd	r31, Y+1	; 0x01
    1bb8:	30 97       	sbiw	r30, 0x00	; 0
    1bba:	d9 f0       	breq	.+54     	; 0x1bf2 <TMU_dispatch+0x66>
					if (TMU_Internal_Buffer[i]->Remaining_Time <= 0){
    1bbc:	85 81       	ldd	r24, Z+5	; 0x05
    1bbe:	96 81       	ldd	r25, Z+6	; 0x06
    1bc0:	18 16       	cp	r1, r24
    1bc2:	19 06       	cpc	r1, r25
    1bc4:	b4 f0       	brlt	.+44     	; 0x1bf2 <TMU_dispatch+0x66>
						TMU_Internal_Buffer[i]->ptr_Delaycompletefun_User_CBK();
    1bc6:	01 90       	ld	r0, Z+
    1bc8:	f0 81       	ld	r31, Z
    1bca:	e0 2d       	mov	r30, r0
    1bcc:	09 95       	icall
						TMU_Internal_Buffer[i]->Remaining_Time += TMU_Internal_Buffer[i]->Delay ;
    1bce:	e8 81       	ld	r30, Y
    1bd0:	f9 81       	ldd	r31, Y+1	; 0x01
    1bd2:	85 81       	ldd	r24, Z+5	; 0x05
    1bd4:	96 81       	ldd	r25, Z+6	; 0x06
    1bd6:	22 81       	ldd	r18, Z+2	; 0x02
    1bd8:	33 81       	ldd	r19, Z+3	; 0x03
    1bda:	82 0f       	add	r24, r18
    1bdc:	93 1f       	adc	r25, r19
    1bde:	96 83       	std	Z+6, r25	; 0x06
    1be0:	85 83       	std	Z+5, r24	; 0x05
						if (TMU_Internal_Buffer[i]->Periodicity==One_Shot){
    1be2:	e8 81       	ld	r30, Y
    1be4:	f9 81       	ldd	r31, Y+1	; 0x01
    1be6:	84 81       	ldd	r24, Z+4	; 0x04
    1be8:	81 30       	cpi	r24, 0x01	; 1
    1bea:	19 f4       	brne	.+6      	; 0x1bf2 <TMU_dispatch+0x66>
							TMU_Stop_Timer(TMU_Internal_Buffer[i]);
    1bec:	cf 01       	movw	r24, r30
    1bee:	0e 94 a6 0d 	call	0x1b4c	; 0x1b4c <TMU_Stop_Timer>
    1bf2:	22 96       	adiw	r28, 0x02	; 2
TMU_ErrorTypes TMU_dispatch(void){
	cli();
		u8 i=0;
		TMU_ErrorTypes S_ret_val = NO_ERRORS;
		if(TMU_initalization==E_True){
			for(i=0;i<Max_Timer_Number;i++){
    1bf4:	ce 15       	cp	r28, r14
    1bf6:	df 05       	cpc	r29, r15
    1bf8:	e9 f6       	brne	.-70     	; 0x1bb4 <TMU_dispatch+0x28>
}

TMU_ErrorTypes TMU_dispatch(void){
	cli();
		u8 i=0;
		TMU_ErrorTypes S_ret_val = NO_ERRORS;
    1bfa:	80 e0       	ldi	r24, 0x00	; 0
    1bfc:	01 c0       	rjmp	.+2      	; 0x1c00 <TMU_dispatch+0x74>
					}
						
				}
			}
		}else{
			S_ret_val = TIMER_NOT_INITIATED;
    1bfe:	81 e0       	ldi	r24, 0x01	; 1
		}
	sei();
    1c00:	78 94       	sei
	return S_ret_val;	
}
    1c02:	df 91       	pop	r29
    1c04:	cf 91       	pop	r28
    1c06:	1f 91       	pop	r17
    1c08:	0f 91       	pop	r16
    1c0a:	ff 90       	pop	r15
    1c0c:	ef 90       	pop	r14
    1c0e:	08 95       	ret

00001c10 <TMU_DeInit>:

TMU_ErrorTypes TMU_DeInit(void){
	cli();
    1c10:	f8 94       	cli
		TMU_ErrorTypes S_ret_val = NO_ERRORS;
		myTCCR2=0;
    1c12:	15 bc       	out	0x25, r1	; 37
    1c14:	e9 e9       	ldi	r30, 0x99	; 153
    1c16:	f0 e0       	ldi	r31, 0x00	; 0
		}
	sei();
	return S_ret_val;	
}

TMU_ErrorTypes TMU_DeInit(void){
    1c18:	cf 01       	movw	r24, r30
    1c1a:	44 96       	adiw	r24, 0x14	; 20
	cli();
		TMU_ErrorTypes S_ret_val = NO_ERRORS;
		myTCCR2=0;
		u8 i;
		for	(i=0; i < Max_Timer_Number;i++){
			TMU_Internal_Buffer[i]=NULL;
    1c1c:	11 92       	st	Z+, r1
    1c1e:	11 92       	st	Z+, r1
TMU_ErrorTypes TMU_DeInit(void){
	cli();
		TMU_ErrorTypes S_ret_val = NO_ERRORS;
		myTCCR2=0;
		u8 i;
		for	(i=0; i < Max_Timer_Number;i++){
    1c20:	e8 17       	cp	r30, r24
    1c22:	f9 07       	cpc	r31, r25
    1c24:	d9 f7       	brne	.-10     	; 0x1c1c <TMU_DeInit+0xc>
			TMU_Internal_Buffer[i]=NULL;
		}			
	sei();
    1c26:	78 94       	sei
	return S_ret_val;
}
    1c28:	80 e0       	ldi	r24, 0x00	; 0
    1c2a:	08 95       	ret

00001c2c <__vector_5>:

u8 Counter = 0 ;
ISR(TIMER2_OVF_vect){
    1c2c:	1f 92       	push	r1
    1c2e:	0f 92       	push	r0
    1c30:	0f b6       	in	r0, 0x3f	; 63
    1c32:	0f 92       	push	r0
    1c34:	11 24       	eor	r1, r1
    1c36:	2f 93       	push	r18
    1c38:	3f 93       	push	r19
    1c3a:	4f 93       	push	r20
    1c3c:	5f 93       	push	r21
    1c3e:	6f 93       	push	r22
    1c40:	7f 93       	push	r23
    1c42:	8f 93       	push	r24
    1c44:	9f 93       	push	r25
    1c46:	af 93       	push	r26
    1c48:	bf 93       	push	r27
    1c4a:	ef 93       	push	r30
    1c4c:	ff 93       	push	r31
	u8 i;
	Counter ++;
    1c4e:	40 91 98 00 	lds	r20, 0x0098
    1c52:	4f 5f       	subi	r20, 0xFF	; 255
    1c54:	40 93 98 00 	sts	0x0098, r20
	if (TMU_Res_MS == Counter){
    1c58:	24 2f       	mov	r18, r20
    1c5a:	30 e0       	ldi	r19, 0x00	; 0
    1c5c:	80 91 ad 00 	lds	r24, 0x00AD
    1c60:	90 91 ae 00 	lds	r25, 0x00AE
    1c64:	28 17       	cp	r18, r24
    1c66:	39 07       	cpc	r19, r25
    1c68:	a9 f4       	brne	.+42     	; 0x1c94 <__vector_5+0x68>
    1c6a:	a9 e9       	ldi	r26, 0x99	; 153
    1c6c:	b0 e0       	ldi	r27, 0x00	; 0
	sei();
	return S_ret_val;
}

u8 Counter = 0 ;
ISR(TIMER2_OVF_vect){
    1c6e:	9d 01       	movw	r18, r26
    1c70:	2c 5e       	subi	r18, 0xEC	; 236
    1c72:	3f 4f       	sbci	r19, 0xFF	; 255
	Counter ++;
	if (TMU_Res_MS == Counter){
		for (i=0; i <Max_Timer_Number;i++){
			if (TMU_Internal_Buffer[i] != NULL){
				TMU_Internal_Buffer[i]->Remaining_Time--;
				Counter=0;
    1c74:	50 e0       	ldi	r21, 0x00	; 0
ISR(TIMER2_OVF_vect){
	u8 i;
	Counter ++;
	if (TMU_Res_MS == Counter){
		for (i=0; i <Max_Timer_Number;i++){
			if (TMU_Internal_Buffer[i] != NULL){
    1c76:	ed 91       	ld	r30, X+
    1c78:	fd 91       	ld	r31, X+
    1c7a:	30 97       	sbiw	r30, 0x00	; 0
    1c7c:	31 f0       	breq	.+12     	; 0x1c8a <__vector_5+0x5e>
				TMU_Internal_Buffer[i]->Remaining_Time--;
    1c7e:	85 81       	ldd	r24, Z+5	; 0x05
    1c80:	96 81       	ldd	r25, Z+6	; 0x06
    1c82:	01 97       	sbiw	r24, 0x01	; 1
    1c84:	96 83       	std	Z+6, r25	; 0x06
    1c86:	85 83       	std	Z+5, r24	; 0x05
				Counter=0;
    1c88:	45 2f       	mov	r20, r21
u8 Counter = 0 ;
ISR(TIMER2_OVF_vect){
	u8 i;
	Counter ++;
	if (TMU_Res_MS == Counter){
		for (i=0; i <Max_Timer_Number;i++){
    1c8a:	a2 17       	cp	r26, r18
    1c8c:	b3 07       	cpc	r27, r19
    1c8e:	99 f7       	brne	.-26     	; 0x1c76 <__vector_5+0x4a>
    1c90:	40 93 98 00 	sts	0x0098, r20
				Counter=0;
			}
		}
	
	}
	TMR2_Set_Counter_Value(55);
    1c94:	87 e3       	ldi	r24, 0x37	; 55
    1c96:	0e 94 85 0b 	call	0x170a	; 0x170a <TMR2_Set_Counter_Value>
	sei();
    1c9a:	78 94       	sei
}
    1c9c:	ff 91       	pop	r31
    1c9e:	ef 91       	pop	r30
    1ca0:	bf 91       	pop	r27
    1ca2:	af 91       	pop	r26
    1ca4:	9f 91       	pop	r25
    1ca6:	8f 91       	pop	r24
    1ca8:	7f 91       	pop	r23
    1caa:	6f 91       	pop	r22
    1cac:	5f 91       	pop	r21
    1cae:	4f 91       	pop	r20
    1cb0:	3f 91       	pop	r19
    1cb2:	2f 91       	pop	r18
    1cb4:	0f 90       	pop	r0
    1cb6:	0f be       	out	0x3f, r0	; 63
    1cb8:	0f 90       	pop	r0
    1cba:	1f 90       	pop	r1
    1cbc:	18 95       	reti

00001cbe <US_Get_Configuration>:
 */ 
#include "Ultasonic_ECU.h"
#define F_CPU 8000000UL
#include <util/delay.h>
void US_Get_Configuration (u8 TRIGGER_Port , u8 TRIGGER_Pin , u8 ECHO_Port , u8 ECHO_Pin){
	US_Config.Trigger_Port = TRIGGER_Port;
    1cbe:	80 93 c7 00 	sts	0x00C7, r24
	US_Config.Trigger_Pin = TRIGGER_Pin;
    1cc2:	60 93 c8 00 	sts	0x00C8, r22
	US_Config.Echo_Port = ECHO_Port;
    1cc6:	40 93 c9 00 	sts	0x00C9, r20
	US_Config.Echo_Pin = ECHO_Pin;
    1cca:	20 93 ca 00 	sts	0x00CA, r18
}
    1cce:	08 95       	ret

00001cd0 <US_vInit>:

void US_vInit (void){
/******************Adjust Trigger pin as Output*****************************/
	GPIO_vsetPIN_DIR(US_Config.Trigger_Port,US_Config.Trigger_Pin,1);
    1cd0:	60 91 c8 00 	lds	r22, 0x00C8
    1cd4:	80 91 c7 00 	lds	r24, 0x00C7
    1cd8:	90 e0       	ldi	r25, 0x00	; 0
    1cda:	70 e0       	ldi	r23, 0x00	; 0
    1cdc:	41 e0       	ldi	r20, 0x01	; 1
    1cde:	50 e0       	ldi	r21, 0x00	; 0
    1ce0:	0e 94 94 00 	call	0x128	; 0x128 <GPIO_vsetPIN_DIR>
/***************************************************************************/
/**********************Adjust Echo pin as Input*****************************/
	GPIO_vsetPIN_DIR(US_Config.Echo_Port,US_Config.Echo_Pin,0);
    1ce4:	60 91 ca 00 	lds	r22, 0x00CA
    1ce8:	80 91 c9 00 	lds	r24, 0x00C9
    1cec:	90 e0       	ldi	r25, 0x00	; 0
    1cee:	70 e0       	ldi	r23, 0x00	; 0
    1cf0:	40 e0       	ldi	r20, 0x00	; 0
    1cf2:	50 e0       	ldi	r21, 0x00	; 0
    1cf4:	0e 94 94 00 	call	0x128	; 0x128 <GPIO_vsetPIN_DIR>
/***************************************************************************/
}
    1cf8:	08 95       	ret

00001cfa <US_Read_Distance_cm>:

u16 US_Read_Distance_cm (void){
	u16 distance , On_Time ;
	u16 a, b , c  ;
	SET_BIT(myTIFR,myICF1);
    1cfa:	88 b7       	in	r24, 0x38	; 56
    1cfc:	80 62       	ori	r24, 0x20	; 32
    1cfe:	88 bf       	out	0x38, r24	; 56
	myTCCR1A=0;
    1d00:	1f bc       	out	0x2f, r1	; 47
	myTCCR1B=0xc1;  //1100 0001 (Enable for ICU , detect rising edge , No prescaling)
    1d02:	81 ec       	ldi	r24, 0xC1	; 193
    1d04:	8e bd       	out	0x2e, r24	; 46
	while(READ_BIT(myTIFR,myICF1)==0);
    1d06:	08 b6       	in	r0, 0x38	; 56
    1d08:	05 fe       	sbrs	r0, 5
    1d0a:	fd cf       	rjmp	.-6      	; 0x1d06 <US_Read_Distance_cm+0xc>
	a=ICR1;
    1d0c:	26 b5       	in	r18, 0x26	; 38
    1d0e:	37 b5       	in	r19, 0x27	; 39
	SET_BIT(myTIFR,myICF1);
    1d10:	88 b7       	in	r24, 0x38	; 56
    1d12:	80 62       	ori	r24, 0x20	; 32
    1d14:	88 bf       	out	0x38, r24	; 56
	myTCCR1B=0x81;  //1000 0001 (Enable for ICU , detect falling edge , No prescaling)
    1d16:	81 e8       	ldi	r24, 0x81	; 129
    1d18:	8e bd       	out	0x2e, r24	; 46
	while(READ_BIT(myTIFR,myICF1)==0);
    1d1a:	08 b6       	in	r0, 0x38	; 56
    1d1c:	05 fe       	sbrs	r0, 5
    1d1e:	fd cf       	rjmp	.-6      	; 0x1d1a <US_Read_Distance_cm+0x20>
	b=ICR1;
    1d20:	86 b5       	in	r24, 0x26	; 38
    1d22:	97 b5       	in	r25, 0x27	; 39
	
	SET_BIT(myTIFR,myICF1);
    1d24:	48 b7       	in	r20, 0x38	; 56
    1d26:	40 62       	ori	r20, 0x20	; 32
    1d28:	48 bf       	out	0x38, r20	; 56
	myTCCR1B=0xc1;  //1100 0001 (Enable for ICU , detect rising edge , No prescaling)
    1d2a:	41 ec       	ldi	r20, 0xC1	; 193
    1d2c:	4e bd       	out	0x2e, r20	; 46
	while(READ_BIT(myTIFR,myICF1)==0);
    1d2e:	08 b6       	in	r0, 0x38	; 56
    1d30:	05 fe       	sbrs	r0, 5
    1d32:	fd cf       	rjmp	.-6      	; 0x1d2e <US_Read_Distance_cm+0x34>
	c=ICR1;
    1d34:	46 b5       	in	r20, 0x26	; 38
    1d36:	57 b5       	in	r21, 0x27	; 39
	SET_BIT(myTIFR,myICF1);
    1d38:	e8 b7       	in	r30, 0x38	; 56
    1d3a:	e0 62       	ori	r30, 0x20	; 32
    1d3c:	e8 bf       	out	0x38, r30	; 56
	myTCCR1B=0;
    1d3e:	1e bc       	out	0x2e, r1	; 46
	if ((a<b) && (b<c)){
    1d40:	28 17       	cp	r18, r24
    1d42:	39 07       	cpc	r19, r25
    1d44:	30 f4       	brcc	.+12     	; 0x1d52 <US_Read_Distance_cm+0x58>
    1d46:	84 17       	cp	r24, r20
    1d48:	95 07       	cpc	r25, r21
    1d4a:	18 f4       	brcc	.+6      	; 0x1d52 <US_Read_Distance_cm+0x58>
		On_Time = b - a;
    1d4c:	bc 01       	movw	r22, r24
    1d4e:	62 1b       	sub	r22, r18
    1d50:	73 0b       	sbc	r23, r19
		
	}
	
	
	distance = (((f32)On_Time) * 34300) / (F_CPU * 2) ;
    1d52:	80 e0       	ldi	r24, 0x00	; 0
    1d54:	90 e0       	ldi	r25, 0x00	; 0
    1d56:	0e 94 82 12 	call	0x2504	; 0x2504 <__floatunsisf>
    1d5a:	20 e0       	ldi	r18, 0x00	; 0
    1d5c:	3c ef       	ldi	r19, 0xFC	; 252
    1d5e:	45 e0       	ldi	r20, 0x05	; 5
    1d60:	57 e4       	ldi	r21, 0x47	; 71
    1d62:	0e 94 34 13 	call	0x2668	; 0x2668 <__mulsf3>
    1d66:	20 e0       	ldi	r18, 0x00	; 0
    1d68:	34 e2       	ldi	r19, 0x24	; 36
    1d6a:	44 e7       	ldi	r20, 0x74	; 116
    1d6c:	5b e4       	ldi	r21, 0x4B	; 75
    1d6e:	0e 94 e9 11 	call	0x23d2	; 0x23d2 <__divsf3>
    1d72:	0e 94 56 12 	call	0x24ac	; 0x24ac <__fixunssfsi>
	return distance;
    1d76:	86 2f       	mov	r24, r22
    1d78:	97 2f       	mov	r25, r23
    1d7a:	08 95       	ret

00001d7c <USART_get_config>:
#define F_CPU 8000000UL

USART_Config *OBJECT;
void (*TX_CB_function)(void);
void (*RX_CB_function)(void);
usart_ErrorTypes USART_get_config (USART_Config *obj , u8 Synchronous , u8 Speed , u32 Baud_rate , u8 TX_Enable , u8 RX_Enable , u8 Size , u8 parity , u8 Stop_bit ){
    1d7c:	8f 92       	push	r8
    1d7e:	af 92       	push	r10
    1d80:	cf 92       	push	r12
    1d82:	ef 92       	push	r14
    1d84:	0f 93       	push	r16
    1d86:	1f 93       	push	r17
    1d88:	cf 93       	push	r28
    1d8a:	df 93       	push	r29
    1d8c:	cd b7       	in	r28, 0x3d	; 61
    1d8e:	de b7       	in	r29, 0x3e	; 62
	OBJECT = obj;
    1d90:	90 93 ce 00 	sts	0x00CE, r25
    1d94:	80 93 cd 00 	sts	0x00CD, r24
	usart_ErrorTypes s_ret_val = NO_USART_ERRORS;
	OBJECT->SYNCH_MODE = Synchronous;
    1d98:	fc 01       	movw	r30, r24
    1d9a:	60 83       	st	Z, r22
	OBJECT->SPEED_MODE = Speed;
    1d9c:	e0 91 cd 00 	lds	r30, 0x00CD
    1da0:	f0 91 ce 00 	lds	r31, 0x00CE
    1da4:	41 83       	std	Z+1, r20	; 0x01
	OBJECT->Baud_Rate =Baud_rate;
    1da6:	e0 91 cd 00 	lds	r30, 0x00CD
    1daa:	f0 91 ce 00 	lds	r31, 0x00CE
    1dae:	05 87       	std	Z+13, r16	; 0x0d
    1db0:	16 87       	std	Z+14, r17	; 0x0e
    1db2:	27 87       	std	Z+15, r18	; 0x0f
    1db4:	30 8b       	std	Z+16, r19	; 0x10
	OBJECT->Transmit = TX_Enable;
    1db6:	e2 82       	std	Z+2, r14	; 0x02
	OBJECT->Recieve = RX_Enable;
    1db8:	c3 82       	std	Z+3, r12	; 0x03
	OBJECT->Char_Size = Size;
    1dba:	a4 82       	std	Z+4, r10	; 0x04
	OBJECT->Parity_Mode = parity;
    1dbc:	85 82       	std	Z+5, r8	; 0x05
	OBJECT->Stop_Bit = Stop_bit;
    1dbe:	8b 85       	ldd	r24, Y+11	; 0x0b
    1dc0:	86 83       	std	Z+6, r24	; 0x06
	OBJECT->Recieve_INT=RECIEVE_INT_DISABLE;
    1dc2:	81 e0       	ldi	r24, 0x01	; 1
    1dc4:	80 87       	std	Z+8, r24	; 0x08
	OBJECT->Transmit_INT=TRANSMIT_INT_DISABLE;
    1dc6:	87 83       	std	Z+7, r24	; 0x07
	return s_ret_val;
}
    1dc8:	80 e0       	ldi	r24, 0x00	; 0
    1dca:	df 91       	pop	r29
    1dcc:	cf 91       	pop	r28
    1dce:	1f 91       	pop	r17
    1dd0:	0f 91       	pop	r16
    1dd2:	ef 90       	pop	r14
    1dd4:	cf 90       	pop	r12
    1dd6:	af 90       	pop	r10
    1dd8:	8f 90       	pop	r8
    1dda:	08 95       	ret

00001ddc <USART_get_INT_config>:


usart_ErrorTypes USART_get_INT_config (u8 TX_INT,u8 RX_INT, void (*TX_CB_func)(void) , void (*RX_CB_func)(void)){
	usart_ErrorTypes s_ret_val = NO_USART_ERRORS;
	if(OBJECT==0){
    1ddc:	e0 91 cd 00 	lds	r30, 0x00CD
    1de0:	f0 91 ce 00 	lds	r31, 0x00CE
    1de4:	30 97       	sbiw	r30, 0x00	; 0
    1de6:	71 f0       	breq	.+28     	; 0x1e04 <USART_get_INT_config+0x28>
		s_ret_val= DEVICE_NOT_INITIATED;
	}else{
		OBJECT->Transmit_INT=TX_INT;
    1de8:	87 83       	std	Z+7, r24	; 0x07
		OBJECT->Recieve_INT = RX_INT;
    1dea:	60 87       	std	Z+8, r22	; 0x08
		if (TX_CB_func==0 || RX_CB_func ==0){
    1dec:	41 15       	cp	r20, r1
    1dee:	51 05       	cpc	r21, r1
    1df0:	59 f0       	breq	.+22     	; 0x1e08 <USART_get_INT_config+0x2c>
    1df2:	21 15       	cp	r18, r1
    1df4:	31 05       	cpc	r19, r1
    1df6:	51 f0       	breq	.+20     	; 0x1e0c <USART_get_INT_config+0x30>
			s_ret_val = INVALID_PARAMS;
		}else{
			OBJECT->USART_Transmit_Complete_User_CBK= TX_CB_func;
    1df8:	54 87       	std	Z+12, r21	; 0x0c
    1dfa:	43 87       	std	Z+11, r20	; 0x0b
			OBJECT->USART_Recieve_Complete_User_CBK = RX_CB_func;
    1dfc:	32 87       	std	Z+10, r19	; 0x0a
    1dfe:	21 87       	std	Z+9, r18	; 0x09
	return s_ret_val;
}


usart_ErrorTypes USART_get_INT_config (u8 TX_INT,u8 RX_INT, void (*TX_CB_func)(void) , void (*RX_CB_func)(void)){
	usart_ErrorTypes s_ret_val = NO_USART_ERRORS;
    1e00:	80 e0       	ldi	r24, 0x00	; 0
    1e02:	08 95       	ret
	if(OBJECT==0){
		s_ret_val= DEVICE_NOT_INITIATED;
    1e04:	82 e0       	ldi	r24, 0x02	; 2
    1e06:	08 95       	ret
	}else{
		OBJECT->Transmit_INT=TX_INT;
		OBJECT->Recieve_INT = RX_INT;
		if (TX_CB_func==0 || RX_CB_func ==0){
			s_ret_val = INVALID_PARAMS;
    1e08:	81 e0       	ldi	r24, 0x01	; 1
    1e0a:	08 95       	ret
    1e0c:	81 e0       	ldi	r24, 0x01	; 1
			OBJECT->USART_Transmit_Complete_User_CBK= TX_CB_func;
			OBJECT->USART_Recieve_Complete_User_CBK = RX_CB_func;
		}
	}
	return s_ret_val;
}
    1e0e:	08 95       	ret

00001e10 <USART_Init>:

usart_ErrorTypes USART_Init(void){
	usart_ErrorTypes s_ret_val = NO_USART_ERRORS;
	u32 UBRR_Val;
	if (OBJECT ==0){
    1e10:	e0 91 cd 00 	lds	r30, 0x00CD
    1e14:	f0 91 ce 00 	lds	r31, 0x00CE
    1e18:	30 97       	sbiw	r30, 0x00	; 0
    1e1a:	09 f4       	brne	.+2      	; 0x1e1e <USART_Init+0xe>
    1e1c:	f9 c1       	rjmp	.+1010   	; 0x2210 <USART_Init+0x400>
		s_ret_val = DEVICE_NOT_INITIATED;
	}else{
		if (OBJECT->Transmit == USART_TRANSMIT_ENABLE ){
    1e1e:	22 81       	ldd	r18, Z+2	; 0x02
    1e20:	22 23       	and	r18, r18
    1e22:	09 f0       	breq	.+2      	; 0x1e26 <USART_Init+0x16>
    1e24:	f4 c0       	rjmp	.+488    	; 0x200e <USART_Init+0x1fe>
			/*********Set Baud Rate***********/
				if((OBJECT->SYNCH_MODE==ASYNC_MODE)&&(OBJECT->SPEED_MODE == USART_NORMAL_MODE)){
    1e26:	20 81       	ld	r18, Z
    1e28:	21 30       	cpi	r18, 0x01	; 1
    1e2a:	09 f0       	breq	.+2      	; 0x1e2e <USART_Init+0x1e>
    1e2c:	45 c0       	rjmp	.+138    	; 0x1eb8 <USART_Init+0xa8>
    1e2e:	31 81       	ldd	r19, Z+1	; 0x01
    1e30:	33 23       	and	r19, r19
    1e32:	11 f5       	brne	.+68     	; 0x1e78 <USART_Init+0x68>
					UBRR_Val = (u32)(((F_CPU)/(16*OBJECT->Baud_Rate))-1);
    1e34:	85 85       	ldd	r24, Z+13	; 0x0d
    1e36:	96 85       	ldd	r25, Z+14	; 0x0e
    1e38:	a7 85       	ldd	r26, Z+15	; 0x0f
    1e3a:	b0 89       	ldd	r27, Z+16	; 0x10
    1e3c:	88 0f       	add	r24, r24
    1e3e:	99 1f       	adc	r25, r25
    1e40:	aa 1f       	adc	r26, r26
    1e42:	bb 1f       	adc	r27, r27
    1e44:	88 0f       	add	r24, r24
    1e46:	99 1f       	adc	r25, r25
    1e48:	aa 1f       	adc	r26, r26
    1e4a:	bb 1f       	adc	r27, r27
    1e4c:	9c 01       	movw	r18, r24
    1e4e:	ad 01       	movw	r20, r26
    1e50:	22 0f       	add	r18, r18
    1e52:	33 1f       	adc	r19, r19
    1e54:	44 1f       	adc	r20, r20
    1e56:	55 1f       	adc	r21, r21
    1e58:	22 0f       	add	r18, r18
    1e5a:	33 1f       	adc	r19, r19
    1e5c:	44 1f       	adc	r20, r20
    1e5e:	55 1f       	adc	r21, r21
    1e60:	60 e0       	ldi	r22, 0x00	; 0
    1e62:	72 e1       	ldi	r23, 0x12	; 18
    1e64:	8a e7       	ldi	r24, 0x7A	; 122
    1e66:	90 e0       	ldi	r25, 0x00	; 0
    1e68:	0e 94 aa 13 	call	0x2754	; 0x2754 <__udivmodsi4>
    1e6c:	da 01       	movw	r26, r20
    1e6e:	c9 01       	movw	r24, r18
    1e70:	01 97       	sbiw	r24, 0x01	; 1
    1e72:	a1 09       	sbc	r26, r1
    1e74:	b1 09       	sbc	r27, r1
    1e76:	37 c0       	rjmp	.+110    	; 0x1ee6 <USART_Init+0xd6>
				}else if((OBJECT->SYNCH_MODE==ASYNC_MODE)&&(OBJECT->SPEED_MODE == USART_Double_SPEED_MODE)){
    1e78:	31 30       	cpi	r19, 0x01	; 1
    1e7a:	f1 f4       	brne	.+60     	; 0x1eb8 <USART_Init+0xa8>
					UBRR_Val = (u32)(((F_CPU)/(8*OBJECT->Baud_Rate))-1);
    1e7c:	85 85       	ldd	r24, Z+13	; 0x0d
    1e7e:	96 85       	ldd	r25, Z+14	; 0x0e
    1e80:	a7 85       	ldd	r26, Z+15	; 0x0f
    1e82:	b0 89       	ldd	r27, Z+16	; 0x10
    1e84:	88 0f       	add	r24, r24
    1e86:	99 1f       	adc	r25, r25
    1e88:	aa 1f       	adc	r26, r26
    1e8a:	bb 1f       	adc	r27, r27
    1e8c:	88 0f       	add	r24, r24
    1e8e:	99 1f       	adc	r25, r25
    1e90:	aa 1f       	adc	r26, r26
    1e92:	bb 1f       	adc	r27, r27
    1e94:	9c 01       	movw	r18, r24
    1e96:	ad 01       	movw	r20, r26
    1e98:	22 0f       	add	r18, r18
    1e9a:	33 1f       	adc	r19, r19
    1e9c:	44 1f       	adc	r20, r20
    1e9e:	55 1f       	adc	r21, r21
    1ea0:	60 e0       	ldi	r22, 0x00	; 0
    1ea2:	72 e1       	ldi	r23, 0x12	; 18
    1ea4:	8a e7       	ldi	r24, 0x7A	; 122
    1ea6:	90 e0       	ldi	r25, 0x00	; 0
    1ea8:	0e 94 aa 13 	call	0x2754	; 0x2754 <__udivmodsi4>
    1eac:	da 01       	movw	r26, r20
    1eae:	c9 01       	movw	r24, r18
    1eb0:	01 97       	sbiw	r24, 0x01	; 1
    1eb2:	a1 09       	sbc	r26, r1
    1eb4:	b1 09       	sbc	r27, r1
    1eb6:	17 c0       	rjmp	.+46     	; 0x1ee6 <USART_Init+0xd6>
				}else if(OBJECT->SYNCH_MODE==SYNC_MODE){
    1eb8:	22 23       	and	r18, r18
    1eba:	a9 f4       	brne	.+42     	; 0x1ee6 <USART_Init+0xd6>
					UBRR_Val = (u32)(((F_CPU)/(2*OBJECT->Baud_Rate))-1);
    1ebc:	85 85       	ldd	r24, Z+13	; 0x0d
    1ebe:	96 85       	ldd	r25, Z+14	; 0x0e
    1ec0:	a7 85       	ldd	r26, Z+15	; 0x0f
    1ec2:	b0 89       	ldd	r27, Z+16	; 0x10
    1ec4:	9c 01       	movw	r18, r24
    1ec6:	ad 01       	movw	r20, r26
    1ec8:	22 0f       	add	r18, r18
    1eca:	33 1f       	adc	r19, r19
    1ecc:	44 1f       	adc	r20, r20
    1ece:	55 1f       	adc	r21, r21
    1ed0:	60 e0       	ldi	r22, 0x00	; 0
    1ed2:	72 e1       	ldi	r23, 0x12	; 18
    1ed4:	8a e7       	ldi	r24, 0x7A	; 122
    1ed6:	90 e0       	ldi	r25, 0x00	; 0
    1ed8:	0e 94 aa 13 	call	0x2754	; 0x2754 <__udivmodsi4>
    1edc:	da 01       	movw	r26, r20
    1ede:	c9 01       	movw	r24, r18
    1ee0:	01 97       	sbiw	r24, 0x01	; 1
    1ee2:	a1 09       	sbc	r26, r1
    1ee4:	b1 09       	sbc	r27, r1
				}
				 UBRRH =(u8) (UBRR_Val>>8);
    1ee6:	49 2f       	mov	r20, r25
    1ee8:	5a 2f       	mov	r21, r26
    1eea:	6b 2f       	mov	r22, r27
    1eec:	77 27       	eor	r23, r23
    1eee:	40 bd       	out	0x20, r20	; 32
				 UBRRL =(u8) (UBRR_Val);
    1ef0:	89 b9       	out	0x09, r24	; 9
			/*******************************/
			/************** Enable transmitter **************/
				SET_BIT(UCSRB,TXEN);
    1ef2:	53 9a       	sbi	0x0a, 3	; 10
			/************************************************/
			/******************Char size*********************/
				switch(OBJECT->Char_Size){
    1ef4:	e0 91 cd 00 	lds	r30, 0x00CD
    1ef8:	f0 91 ce 00 	lds	r31, 0x00CE
    1efc:	24 81       	ldd	r18, Z+4	; 0x04
    1efe:	22 30       	cpi	r18, 0x02	; 2
    1f00:	e1 f0       	breq	.+56     	; 0x1f3a <USART_Init+0x12a>
    1f02:	23 30       	cpi	r18, 0x03	; 3
    1f04:	28 f4       	brcc	.+10     	; 0x1f10 <USART_Init+0x100>
    1f06:	22 23       	and	r18, r18
    1f08:	41 f0       	breq	.+16     	; 0x1f1a <USART_Init+0x10a>
    1f0a:	21 30       	cpi	r18, 0x01	; 1
    1f0c:	69 f5       	brne	.+90     	; 0x1f68 <USART_Init+0x158>
    1f0e:	0d c0       	rjmp	.+26     	; 0x1f2a <USART_Init+0x11a>
    1f10:	23 30       	cpi	r18, 0x03	; 3
    1f12:	d9 f0       	breq	.+54     	; 0x1f4a <USART_Init+0x13a>
    1f14:	24 30       	cpi	r18, 0x04	; 4
    1f16:	41 f5       	brne	.+80     	; 0x1f68 <USART_Init+0x158>
    1f18:	20 c0       	rjmp	.+64     	; 0x1f5a <USART_Init+0x14a>
					case (USART_5_BIT_CHAR) :
						CLR_BIT(UCSRB,UCSZ2);
    1f1a:	52 98       	cbi	0x0a, 2	; 10
						CLR_BIT(UCSRC,UCSZ1);
    1f1c:	20 b5       	in	r18, 0x20	; 32
    1f1e:	2b 7f       	andi	r18, 0xFB	; 251
    1f20:	20 bd       	out	0x20, r18	; 32
						CLR_BIT(UCSRC,UCSZ0);
    1f22:	20 b5       	in	r18, 0x20	; 32
    1f24:	2d 7f       	andi	r18, 0xFD	; 253
    1f26:	20 bd       	out	0x20, r18	; 32
						break;
    1f28:	1f c0       	rjmp	.+62     	; 0x1f68 <USART_Init+0x158>
					case (USART_6_BIT_CHAR) :
						CLR_BIT(UCSRB,UCSZ2);
    1f2a:	52 98       	cbi	0x0a, 2	; 10
						CLR_BIT(UCSRC,UCSZ1);
    1f2c:	20 b5       	in	r18, 0x20	; 32
    1f2e:	2b 7f       	andi	r18, 0xFB	; 251
    1f30:	20 bd       	out	0x20, r18	; 32
						SET_BIT(UCSRC,UCSZ0);
    1f32:	20 b5       	in	r18, 0x20	; 32
    1f34:	22 60       	ori	r18, 0x02	; 2
    1f36:	20 bd       	out	0x20, r18	; 32
						break;
    1f38:	17 c0       	rjmp	.+46     	; 0x1f68 <USART_Init+0x158>
					case (USART_7_BIT_CHAR) :
						CLR_BIT(UCSRB,UCSZ2);
    1f3a:	52 98       	cbi	0x0a, 2	; 10
						SET_BIT(UCSRC,UCSZ1);
    1f3c:	20 b5       	in	r18, 0x20	; 32
    1f3e:	24 60       	ori	r18, 0x04	; 4
    1f40:	20 bd       	out	0x20, r18	; 32
						CLR_BIT(UCSRC,UCSZ0);
    1f42:	20 b5       	in	r18, 0x20	; 32
    1f44:	2d 7f       	andi	r18, 0xFD	; 253
    1f46:	20 bd       	out	0x20, r18	; 32
						break;
    1f48:	0f c0       	rjmp	.+30     	; 0x1f68 <USART_Init+0x158>
					case (USART_8_BIT_CHAR) :
						CLR_BIT(UCSRB,UCSZ2);
    1f4a:	52 98       	cbi	0x0a, 2	; 10
						SET_BIT(UCSRC,UCSZ1);
    1f4c:	20 b5       	in	r18, 0x20	; 32
    1f4e:	24 60       	ori	r18, 0x04	; 4
    1f50:	20 bd       	out	0x20, r18	; 32
						SET_BIT(UCSRC,UCSZ0);
    1f52:	20 b5       	in	r18, 0x20	; 32
    1f54:	22 60       	ori	r18, 0x02	; 2
    1f56:	20 bd       	out	0x20, r18	; 32
						break;
    1f58:	07 c0       	rjmp	.+14     	; 0x1f68 <USART_Init+0x158>
					case (USART_9_BIT_CHAR) :
						SET_BIT(UCSRB,UCSZ2);
    1f5a:	52 9a       	sbi	0x0a, 2	; 10
						SET_BIT(UCSRC,UCSZ1);
    1f5c:	20 b5       	in	r18, 0x20	; 32
    1f5e:	24 60       	ori	r18, 0x04	; 4
    1f60:	20 bd       	out	0x20, r18	; 32
						SET_BIT(UCSRC,UCSZ0);
    1f62:	20 b5       	in	r18, 0x20	; 32
    1f64:	22 60       	ori	r18, 0x02	; 2
    1f66:	20 bd       	out	0x20, r18	; 32
						break;
					default: break;
				}
			/************************************************/
			/**************** Set Double speed***************/
				if((OBJECT->SYNCH_MODE==ASYNC_MODE)&&(OBJECT->SPEED_MODE == USART_Double_SPEED_MODE)){
    1f68:	e0 91 cd 00 	lds	r30, 0x00CD
    1f6c:	f0 91 ce 00 	lds	r31, 0x00CE
    1f70:	20 81       	ld	r18, Z
    1f72:	21 30       	cpi	r18, 0x01	; 1
    1f74:	21 f4       	brne	.+8      	; 0x1f7e <USART_Init+0x16e>
    1f76:	21 81       	ldd	r18, Z+1	; 0x01
    1f78:	21 30       	cpi	r18, 0x01	; 1
    1f7a:	09 f4       	brne	.+2      	; 0x1f7e <USART_Init+0x16e>
					SET_BIT(UCSRA,U2X);
    1f7c:	59 9a       	sbi	0x0b, 1	; 11
				}
			/***********************************************/
			/**************** Set Parity Bit***************/
				if (OBJECT->Parity_Mode==NO_PARITY){
    1f7e:	e0 91 cd 00 	lds	r30, 0x00CD
    1f82:	f0 91 ce 00 	lds	r31, 0x00CE
    1f86:	25 81       	ldd	r18, Z+5	; 0x05
    1f88:	22 23       	and	r18, r18
    1f8a:	39 f4       	brne	.+14     	; 0x1f9a <USART_Init+0x18a>
					CLR_BIT(UCSRC,UPM0);
    1f8c:	20 b5       	in	r18, 0x20	; 32
    1f8e:	2f 7e       	andi	r18, 0xEF	; 239
    1f90:	20 bd       	out	0x20, r18	; 32
					CLR_BIT(UCSRC,UPM1);
    1f92:	20 b5       	in	r18, 0x20	; 32
    1f94:	2f 7d       	andi	r18, 0xDF	; 223
    1f96:	20 bd       	out	0x20, r18	; 32
    1f98:	11 c0       	rjmp	.+34     	; 0x1fbc <USART_Init+0x1ac>
				}else if (OBJECT->Parity_Mode==EVEN_PARITY){
    1f9a:	21 30       	cpi	r18, 0x01	; 1
    1f9c:	39 f4       	brne	.+14     	; 0x1fac <USART_Init+0x19c>
					CLR_BIT(UCSRC,UPM0);
    1f9e:	20 b5       	in	r18, 0x20	; 32
    1fa0:	2f 7e       	andi	r18, 0xEF	; 239
    1fa2:	20 bd       	out	0x20, r18	; 32
					SET_BIT(UCSRC,UPM1);
    1fa4:	20 b5       	in	r18, 0x20	; 32
    1fa6:	20 62       	ori	r18, 0x20	; 32
    1fa8:	20 bd       	out	0x20, r18	; 32
    1faa:	08 c0       	rjmp	.+16     	; 0x1fbc <USART_Init+0x1ac>
			    }else if (OBJECT->Parity_Mode==ODD_PARITY){
    1fac:	22 30       	cpi	r18, 0x02	; 2
    1fae:	31 f4       	brne	.+12     	; 0x1fbc <USART_Init+0x1ac>
					SET_BIT(UCSRC,UPM0);
    1fb0:	20 b5       	in	r18, 0x20	; 32
    1fb2:	20 61       	ori	r18, 0x10	; 16
    1fb4:	20 bd       	out	0x20, r18	; 32
					SET_BIT(UCSRC,UPM1);
    1fb6:	20 b5       	in	r18, 0x20	; 32
    1fb8:	20 62       	ori	r18, 0x20	; 32
    1fba:	20 bd       	out	0x20, r18	; 32
				}
			/**********************************************/
			/**************** Set Stop Bit***************/
				if (OBJECT->Stop_Bit==ONE_STOP_BIT){
    1fbc:	e0 91 cd 00 	lds	r30, 0x00CD
    1fc0:	f0 91 ce 00 	lds	r31, 0x00CE
    1fc4:	26 81       	ldd	r18, Z+6	; 0x06
    1fc6:	22 23       	and	r18, r18
    1fc8:	21 f4       	brne	.+8      	; 0x1fd2 <USART_Init+0x1c2>
					CLR_BIT(UCSRC,USBS);
    1fca:	20 b5       	in	r18, 0x20	; 32
    1fcc:	27 7f       	andi	r18, 0xF7	; 247
    1fce:	20 bd       	out	0x20, r18	; 32
    1fd0:	05 c0       	rjmp	.+10     	; 0x1fdc <USART_Init+0x1cc>
				}else if(OBJECT->Stop_Bit==TWO_STOP_BIT ){
    1fd2:	21 30       	cpi	r18, 0x01	; 1
    1fd4:	19 f4       	brne	.+6      	; 0x1fdc <USART_Init+0x1cc>
					SET_BIT(UCSRC,USBS);
    1fd6:	20 b5       	in	r18, 0x20	; 32
    1fd8:	28 60       	ori	r18, 0x08	; 8
    1fda:	20 bd       	out	0x20, r18	; 32
				}
			/********************************************/
			/***************RECIEVER INT ENABLE**********/
				if (OBJECT->Recieve_INT==RECIEVE_INT_ENABLE){
    1fdc:	e0 91 cd 00 	lds	r30, 0x00CD
    1fe0:	f0 91 ce 00 	lds	r31, 0x00CE
    1fe4:	20 85       	ldd	r18, Z+8	; 0x08
    1fe6:	22 23       	and	r18, r18
    1fe8:	11 f4       	brne	.+4      	; 0x1fee <USART_Init+0x1de>
					SET_BIT(UCSRB,RXCIE);
    1fea:	57 9a       	sbi	0x0a, 7	; 10
    1fec:	03 c0       	rjmp	.+6      	; 0x1ff4 <USART_Init+0x1e4>
				}else if (OBJECT->Recieve_INT==RECIEVE_INT_DISABLE){
    1fee:	21 30       	cpi	r18, 0x01	; 1
    1ff0:	09 f4       	brne	.+2      	; 0x1ff4 <USART_Init+0x1e4>
					CLR_BIT(UCSRB,RXCIE);
    1ff2:	57 98       	cbi	0x0a, 7	; 10
				} 
			/********************************************/
			/***************Transmit INT ENABLE**********/
				if (OBJECT->Transmit_INT==TRANSMIT_INT_ENABLE){
    1ff4:	e0 91 cd 00 	lds	r30, 0x00CD
    1ff8:	f0 91 ce 00 	lds	r31, 0x00CE
    1ffc:	27 81       	ldd	r18, Z+7	; 0x07
    1ffe:	22 23       	and	r18, r18
    2000:	11 f4       	brne	.+4      	; 0x2006 <USART_Init+0x1f6>
					SET_BIT(UCSRB,TXCIE);
    2002:	56 9a       	sbi	0x0a, 6	; 10
    2004:	05 c0       	rjmp	.+10     	; 0x2010 <USART_Init+0x200>
				}else if (OBJECT->Transmit_INT==TRANSMIT_INT_DISABLE){
    2006:	21 30       	cpi	r18, 0x01	; 1
    2008:	19 f4       	brne	.+6      	; 0x2010 <USART_Init+0x200>
					CLR_BIT(UCSRB,TXCIE);
    200a:	56 98       	cbi	0x0a, 6	; 10
    200c:	01 c0       	rjmp	.+2      	; 0x2010 <USART_Init+0x200>
				}
			/********************************************/
		} 
		else{
			CLR_BIT(UCSRB,TXEN);
    200e:	53 98       	cbi	0x0a, 3	; 10
		}
		if (OBJECT->Recieve == USART_RECIEVE_ENABLE ){
    2010:	e0 91 cd 00 	lds	r30, 0x00CD
    2014:	f0 91 ce 00 	lds	r31, 0x00CE
    2018:	23 81       	ldd	r18, Z+3	; 0x03
    201a:	22 23       	and	r18, r18
    201c:	09 f0       	breq	.+2      	; 0x2020 <USART_Init+0x210>
    201e:	f5 c0       	rjmp	.+490    	; 0x220a <USART_Init+0x3fa>
			/*********Set Baud Rate***********/
			if((OBJECT->SYNCH_MODE==ASYNC_MODE)&&(OBJECT->SPEED_MODE == USART_NORMAL_MODE)){
    2020:	20 81       	ld	r18, Z
    2022:	21 30       	cpi	r18, 0x01	; 1
    2024:	09 f0       	breq	.+2      	; 0x2028 <USART_Init+0x218>
    2026:	45 c0       	rjmp	.+138    	; 0x20b2 <USART_Init+0x2a2>
    2028:	31 81       	ldd	r19, Z+1	; 0x01
    202a:	33 23       	and	r19, r19
    202c:	11 f5       	brne	.+68     	; 0x2072 <USART_Init+0x262>
				UBRR_Val = (u32)(((F_CPU)/(16*OBJECT->Baud_Rate))-1);
    202e:	85 85       	ldd	r24, Z+13	; 0x0d
    2030:	96 85       	ldd	r25, Z+14	; 0x0e
    2032:	a7 85       	ldd	r26, Z+15	; 0x0f
    2034:	b0 89       	ldd	r27, Z+16	; 0x10
    2036:	88 0f       	add	r24, r24
    2038:	99 1f       	adc	r25, r25
    203a:	aa 1f       	adc	r26, r26
    203c:	bb 1f       	adc	r27, r27
    203e:	88 0f       	add	r24, r24
    2040:	99 1f       	adc	r25, r25
    2042:	aa 1f       	adc	r26, r26
    2044:	bb 1f       	adc	r27, r27
    2046:	9c 01       	movw	r18, r24
    2048:	ad 01       	movw	r20, r26
    204a:	22 0f       	add	r18, r18
    204c:	33 1f       	adc	r19, r19
    204e:	44 1f       	adc	r20, r20
    2050:	55 1f       	adc	r21, r21
    2052:	22 0f       	add	r18, r18
    2054:	33 1f       	adc	r19, r19
    2056:	44 1f       	adc	r20, r20
    2058:	55 1f       	adc	r21, r21
    205a:	60 e0       	ldi	r22, 0x00	; 0
    205c:	72 e1       	ldi	r23, 0x12	; 18
    205e:	8a e7       	ldi	r24, 0x7A	; 122
    2060:	90 e0       	ldi	r25, 0x00	; 0
    2062:	0e 94 aa 13 	call	0x2754	; 0x2754 <__udivmodsi4>
    2066:	da 01       	movw	r26, r20
    2068:	c9 01       	movw	r24, r18
    206a:	01 97       	sbiw	r24, 0x01	; 1
    206c:	a1 09       	sbc	r26, r1
    206e:	b1 09       	sbc	r27, r1
    2070:	37 c0       	rjmp	.+110    	; 0x20e0 <USART_Init+0x2d0>
			}else if((OBJECT->SYNCH_MODE==ASYNC_MODE)&&(OBJECT->SPEED_MODE == USART_Double_SPEED_MODE)){
    2072:	31 30       	cpi	r19, 0x01	; 1
    2074:	f1 f4       	brne	.+60     	; 0x20b2 <USART_Init+0x2a2>
				UBRR_Val = (u32)(((F_CPU)/(8*OBJECT->Baud_Rate))-1);
    2076:	85 85       	ldd	r24, Z+13	; 0x0d
    2078:	96 85       	ldd	r25, Z+14	; 0x0e
    207a:	a7 85       	ldd	r26, Z+15	; 0x0f
    207c:	b0 89       	ldd	r27, Z+16	; 0x10
    207e:	88 0f       	add	r24, r24
    2080:	99 1f       	adc	r25, r25
    2082:	aa 1f       	adc	r26, r26
    2084:	bb 1f       	adc	r27, r27
    2086:	88 0f       	add	r24, r24
    2088:	99 1f       	adc	r25, r25
    208a:	aa 1f       	adc	r26, r26
    208c:	bb 1f       	adc	r27, r27
    208e:	9c 01       	movw	r18, r24
    2090:	ad 01       	movw	r20, r26
    2092:	22 0f       	add	r18, r18
    2094:	33 1f       	adc	r19, r19
    2096:	44 1f       	adc	r20, r20
    2098:	55 1f       	adc	r21, r21
    209a:	60 e0       	ldi	r22, 0x00	; 0
    209c:	72 e1       	ldi	r23, 0x12	; 18
    209e:	8a e7       	ldi	r24, 0x7A	; 122
    20a0:	90 e0       	ldi	r25, 0x00	; 0
    20a2:	0e 94 aa 13 	call	0x2754	; 0x2754 <__udivmodsi4>
    20a6:	da 01       	movw	r26, r20
    20a8:	c9 01       	movw	r24, r18
    20aa:	01 97       	sbiw	r24, 0x01	; 1
    20ac:	a1 09       	sbc	r26, r1
    20ae:	b1 09       	sbc	r27, r1
    20b0:	17 c0       	rjmp	.+46     	; 0x20e0 <USART_Init+0x2d0>
			}else if(OBJECT->SYNCH_MODE==SYNC_MODE){
    20b2:	22 23       	and	r18, r18
    20b4:	a9 f4       	brne	.+42     	; 0x20e0 <USART_Init+0x2d0>
				UBRR_Val = (u32)(((F_CPU)/(2*OBJECT->Baud_Rate))-1);
    20b6:	85 85       	ldd	r24, Z+13	; 0x0d
    20b8:	96 85       	ldd	r25, Z+14	; 0x0e
    20ba:	a7 85       	ldd	r26, Z+15	; 0x0f
    20bc:	b0 89       	ldd	r27, Z+16	; 0x10
    20be:	9c 01       	movw	r18, r24
    20c0:	ad 01       	movw	r20, r26
    20c2:	22 0f       	add	r18, r18
    20c4:	33 1f       	adc	r19, r19
    20c6:	44 1f       	adc	r20, r20
    20c8:	55 1f       	adc	r21, r21
    20ca:	60 e0       	ldi	r22, 0x00	; 0
    20cc:	72 e1       	ldi	r23, 0x12	; 18
    20ce:	8a e7       	ldi	r24, 0x7A	; 122
    20d0:	90 e0       	ldi	r25, 0x00	; 0
    20d2:	0e 94 aa 13 	call	0x2754	; 0x2754 <__udivmodsi4>
    20d6:	da 01       	movw	r26, r20
    20d8:	c9 01       	movw	r24, r18
    20da:	01 97       	sbiw	r24, 0x01	; 1
    20dc:	a1 09       	sbc	r26, r1
    20de:	b1 09       	sbc	r27, r1
			}
			UBRRH =(u8) (UBRR_Val>>8);
    20e0:	49 2f       	mov	r20, r25
    20e2:	5a 2f       	mov	r21, r26
    20e4:	6b 2f       	mov	r22, r27
    20e6:	77 27       	eor	r23, r23
    20e8:	40 bd       	out	0x20, r20	; 32
			UBRRL =(u8) (UBRR_Val);
    20ea:	89 b9       	out	0x09, r24	; 9
			/*******************************/
			/************** Enable Reciver **************/
				SET_BIT(UCSRB,RXEN);
    20ec:	54 9a       	sbi	0x0a, 4	; 10
			/************************************************/
			/******************Char size*********************/
			switch(OBJECT->Char_Size){
    20ee:	e0 91 cd 00 	lds	r30, 0x00CD
    20f2:	f0 91 ce 00 	lds	r31, 0x00CE
    20f6:	84 81       	ldd	r24, Z+4	; 0x04
    20f8:	82 30       	cpi	r24, 0x02	; 2
    20fa:	e1 f0       	breq	.+56     	; 0x2134 <USART_Init+0x324>
    20fc:	83 30       	cpi	r24, 0x03	; 3
    20fe:	28 f4       	brcc	.+10     	; 0x210a <USART_Init+0x2fa>
    2100:	88 23       	and	r24, r24
    2102:	41 f0       	breq	.+16     	; 0x2114 <USART_Init+0x304>
    2104:	81 30       	cpi	r24, 0x01	; 1
    2106:	69 f5       	brne	.+90     	; 0x2162 <USART_Init+0x352>
    2108:	0d c0       	rjmp	.+26     	; 0x2124 <USART_Init+0x314>
    210a:	83 30       	cpi	r24, 0x03	; 3
    210c:	d9 f0       	breq	.+54     	; 0x2144 <USART_Init+0x334>
    210e:	84 30       	cpi	r24, 0x04	; 4
    2110:	41 f5       	brne	.+80     	; 0x2162 <USART_Init+0x352>
    2112:	20 c0       	rjmp	.+64     	; 0x2154 <USART_Init+0x344>
				case (USART_5_BIT_CHAR) :
				CLR_BIT(UCSRB,UCSZ2);
    2114:	52 98       	cbi	0x0a, 2	; 10
				CLR_BIT(UCSRC,UCSZ1);
    2116:	80 b5       	in	r24, 0x20	; 32
    2118:	8b 7f       	andi	r24, 0xFB	; 251
    211a:	80 bd       	out	0x20, r24	; 32
				CLR_BIT(UCSRC,UCSZ0);
    211c:	80 b5       	in	r24, 0x20	; 32
    211e:	8d 7f       	andi	r24, 0xFD	; 253
    2120:	80 bd       	out	0x20, r24	; 32
				break;
    2122:	1f c0       	rjmp	.+62     	; 0x2162 <USART_Init+0x352>
				case (USART_6_BIT_CHAR) :
				CLR_BIT(UCSRB,UCSZ2);
    2124:	52 98       	cbi	0x0a, 2	; 10
				CLR_BIT(UCSRC,UCSZ1);
    2126:	80 b5       	in	r24, 0x20	; 32
    2128:	8b 7f       	andi	r24, 0xFB	; 251
    212a:	80 bd       	out	0x20, r24	; 32
				SET_BIT(UCSRC,UCSZ0);
    212c:	80 b5       	in	r24, 0x20	; 32
    212e:	82 60       	ori	r24, 0x02	; 2
    2130:	80 bd       	out	0x20, r24	; 32
				break;
    2132:	17 c0       	rjmp	.+46     	; 0x2162 <USART_Init+0x352>
				case (USART_7_BIT_CHAR) :
				CLR_BIT(UCSRB,UCSZ2);
    2134:	52 98       	cbi	0x0a, 2	; 10
				SET_BIT(UCSRC,UCSZ1);
    2136:	80 b5       	in	r24, 0x20	; 32
    2138:	84 60       	ori	r24, 0x04	; 4
    213a:	80 bd       	out	0x20, r24	; 32
				CLR_BIT(UCSRC,UCSZ0);
    213c:	80 b5       	in	r24, 0x20	; 32
    213e:	8d 7f       	andi	r24, 0xFD	; 253
    2140:	80 bd       	out	0x20, r24	; 32
				break;
    2142:	0f c0       	rjmp	.+30     	; 0x2162 <USART_Init+0x352>
				case (USART_8_BIT_CHAR) :
				CLR_BIT(UCSRB,UCSZ2);
    2144:	52 98       	cbi	0x0a, 2	; 10
				SET_BIT(UCSRC,UCSZ1);
    2146:	80 b5       	in	r24, 0x20	; 32
    2148:	84 60       	ori	r24, 0x04	; 4
    214a:	80 bd       	out	0x20, r24	; 32
				SET_BIT(UCSRC,UCSZ0);
    214c:	80 b5       	in	r24, 0x20	; 32
    214e:	82 60       	ori	r24, 0x02	; 2
    2150:	80 bd       	out	0x20, r24	; 32
				break;
    2152:	07 c0       	rjmp	.+14     	; 0x2162 <USART_Init+0x352>
				case (USART_9_BIT_CHAR) :
				SET_BIT(UCSRB,UCSZ2);
    2154:	52 9a       	sbi	0x0a, 2	; 10
				SET_BIT(UCSRC,UCSZ1);
    2156:	80 b5       	in	r24, 0x20	; 32
    2158:	84 60       	ori	r24, 0x04	; 4
    215a:	80 bd       	out	0x20, r24	; 32
				SET_BIT(UCSRC,UCSZ0);
    215c:	80 b5       	in	r24, 0x20	; 32
    215e:	82 60       	ori	r24, 0x02	; 2
    2160:	80 bd       	out	0x20, r24	; 32
				break;
				default: break;
			}
			/************************************************/
			/**************** Set Double speed***************/
			if((OBJECT->SYNCH_MODE==ASYNC_MODE)&&(OBJECT->SPEED_MODE == USART_Double_SPEED_MODE)){
    2162:	e0 91 cd 00 	lds	r30, 0x00CD
    2166:	f0 91 ce 00 	lds	r31, 0x00CE
    216a:	80 81       	ld	r24, Z
    216c:	81 30       	cpi	r24, 0x01	; 1
    216e:	21 f4       	brne	.+8      	; 0x2178 <USART_Init+0x368>
    2170:	81 81       	ldd	r24, Z+1	; 0x01
    2172:	81 30       	cpi	r24, 0x01	; 1
    2174:	09 f4       	brne	.+2      	; 0x2178 <USART_Init+0x368>
				SET_BIT(UCSRA,U2X);
    2176:	59 9a       	sbi	0x0b, 1	; 11
			}
			/***********************************************/
			/**************** Set Parity Bit***************/
			if (OBJECT->Parity_Mode==NO_PARITY){
    2178:	e0 91 cd 00 	lds	r30, 0x00CD
    217c:	f0 91 ce 00 	lds	r31, 0x00CE
    2180:	85 81       	ldd	r24, Z+5	; 0x05
    2182:	88 23       	and	r24, r24
    2184:	39 f4       	brne	.+14     	; 0x2194 <USART_Init+0x384>
				CLR_BIT(UCSRC,UPM0);
    2186:	80 b5       	in	r24, 0x20	; 32
    2188:	8f 7e       	andi	r24, 0xEF	; 239
    218a:	80 bd       	out	0x20, r24	; 32
				CLR_BIT(UCSRC,UPM1);
    218c:	80 b5       	in	r24, 0x20	; 32
    218e:	8f 7d       	andi	r24, 0xDF	; 223
    2190:	80 bd       	out	0x20, r24	; 32
    2192:	11 c0       	rjmp	.+34     	; 0x21b6 <USART_Init+0x3a6>
			}else if (OBJECT->Parity_Mode==EVEN_PARITY){
    2194:	81 30       	cpi	r24, 0x01	; 1
    2196:	39 f4       	brne	.+14     	; 0x21a6 <USART_Init+0x396>
				CLR_BIT(UCSRC,UPM0);
    2198:	80 b5       	in	r24, 0x20	; 32
    219a:	8f 7e       	andi	r24, 0xEF	; 239
    219c:	80 bd       	out	0x20, r24	; 32
				SET_BIT(UCSRC,UPM1);
    219e:	80 b5       	in	r24, 0x20	; 32
    21a0:	80 62       	ori	r24, 0x20	; 32
    21a2:	80 bd       	out	0x20, r24	; 32
    21a4:	08 c0       	rjmp	.+16     	; 0x21b6 <USART_Init+0x3a6>
			}else if (OBJECT->Parity_Mode==ODD_PARITY){
    21a6:	82 30       	cpi	r24, 0x02	; 2
    21a8:	31 f4       	brne	.+12     	; 0x21b6 <USART_Init+0x3a6>
				SET_BIT(UCSRC,UPM0);
    21aa:	80 b5       	in	r24, 0x20	; 32
    21ac:	80 61       	ori	r24, 0x10	; 16
    21ae:	80 bd       	out	0x20, r24	; 32
				SET_BIT(UCSRC,UPM1);
    21b0:	80 b5       	in	r24, 0x20	; 32
    21b2:	80 62       	ori	r24, 0x20	; 32
    21b4:	80 bd       	out	0x20, r24	; 32
			}
			/**********************************************/
			/**************** Set Stop Bit***************/
			if (OBJECT->Stop_Bit==ONE_STOP_BIT){
    21b6:	e0 91 cd 00 	lds	r30, 0x00CD
    21ba:	f0 91 ce 00 	lds	r31, 0x00CE
    21be:	86 81       	ldd	r24, Z+6	; 0x06
    21c0:	88 23       	and	r24, r24
    21c2:	21 f4       	brne	.+8      	; 0x21cc <USART_Init+0x3bc>
				CLR_BIT(UCSRC,USBS);
    21c4:	80 b5       	in	r24, 0x20	; 32
    21c6:	87 7f       	andi	r24, 0xF7	; 247
    21c8:	80 bd       	out	0x20, r24	; 32
    21ca:	05 c0       	rjmp	.+10     	; 0x21d6 <USART_Init+0x3c6>
			}else if(OBJECT->Stop_Bit==TWO_STOP_BIT ){
    21cc:	81 30       	cpi	r24, 0x01	; 1
    21ce:	19 f4       	brne	.+6      	; 0x21d6 <USART_Init+0x3c6>
				SET_BIT(UCSRC,USBS);
    21d0:	80 b5       	in	r24, 0x20	; 32
    21d2:	88 60       	ori	r24, 0x08	; 8
    21d4:	80 bd       	out	0x20, r24	; 32
			}
			/********************************************/
			/***************RECIEVER INT ENABLE**********/
			if (OBJECT->Recieve_INT==RECIEVE_INT_ENABLE){
    21d6:	e0 91 cd 00 	lds	r30, 0x00CD
    21da:	f0 91 ce 00 	lds	r31, 0x00CE
    21de:	80 85       	ldd	r24, Z+8	; 0x08
    21e0:	88 23       	and	r24, r24
    21e2:	11 f4       	brne	.+4      	; 0x21e8 <USART_Init+0x3d8>
				SET_BIT(UCSRB,RXCIE);
    21e4:	57 9a       	sbi	0x0a, 7	; 10
    21e6:	03 c0       	rjmp	.+6      	; 0x21ee <USART_Init+0x3de>
			}else if (OBJECT->Recieve_INT==RECIEVE_INT_DISABLE){
    21e8:	81 30       	cpi	r24, 0x01	; 1
    21ea:	09 f4       	brne	.+2      	; 0x21ee <USART_Init+0x3de>
				CLR_BIT(UCSRB,RXCIE);
    21ec:	57 98       	cbi	0x0a, 7	; 10
			}
			/********************************************/
			/***************Transmit INT ENABLE**********/
			if (OBJECT->Transmit_INT==TRANSMIT_INT_ENABLE){
    21ee:	e0 91 cd 00 	lds	r30, 0x00CD
    21f2:	f0 91 ce 00 	lds	r31, 0x00CE
    21f6:	87 81       	ldd	r24, Z+7	; 0x07
    21f8:	88 23       	and	r24, r24
    21fa:	11 f4       	brne	.+4      	; 0x2200 <USART_Init+0x3f0>
				SET_BIT(UCSRB,TXCIE);
    21fc:	56 9a       	sbi	0x0a, 6	; 10
    21fe:	08 95       	ret
			}else if (OBJECT->Transmit_INT==TRANSMIT_INT_DISABLE){
    2200:	81 30       	cpi	r24, 0x01	; 1
    2202:	41 f4       	brne	.+16     	; 0x2214 <USART_Init+0x404>
				CLR_BIT(UCSRB,TXCIE);
    2204:	56 98       	cbi	0x0a, 6	; 10
	}
	return s_ret_val;
}

usart_ErrorTypes USART_Init(void){
	usart_ErrorTypes s_ret_val = NO_USART_ERRORS;
    2206:	80 e0       	ldi	r24, 0x00	; 0
    2208:	08 95       	ret
				CLR_BIT(UCSRB,TXCIE);
			}
			/********************************************/
		}
		else{
			CLR_BIT(UCSRB,RXEN);
    220a:	54 98       	cbi	0x0a, 4	; 10
	}
	return s_ret_val;
}

usart_ErrorTypes USART_Init(void){
	usart_ErrorTypes s_ret_val = NO_USART_ERRORS;
    220c:	80 e0       	ldi	r24, 0x00	; 0
    220e:	08 95       	ret
	u32 UBRR_Val;
	if (OBJECT ==0){
		s_ret_val = DEVICE_NOT_INITIATED;
    2210:	82 e0       	ldi	r24, 0x02	; 2
    2212:	08 95       	ret
	}
	return s_ret_val;
}

usart_ErrorTypes USART_Init(void){
	usart_ErrorTypes s_ret_val = NO_USART_ERRORS;
    2214:	80 e0       	ldi	r24, 0x00	; 0
			CLR_BIT(UCSRB,RXEN);
		}
	}
	
	return s_ret_val;
}
    2216:	08 95       	ret

00002218 <USART_Transmit>:

void USART_Transmit(u16 data){
	/* Wait for empty transmit buffer */
		while(IS_BIT_CLR(UCSRA,UDRE));
    2218:	5d 9b       	sbis	0x0b, 5	; 11
    221a:	fe cf       	rjmp	.-4      	; 0x2218 <USART_Transmit>
	/**********************************/
	/***********if the data to be transmitted is 9 bits, write the MSB first*****************/
		if (OBJECT->Char_Size==USART_9_BIT_CHAR){
    221c:	e0 91 cd 00 	lds	r30, 0x00CD
    2220:	f0 91 ce 00 	lds	r31, 0x00CE
    2224:	24 81       	ldd	r18, Z+4	; 0x04
    2226:	24 30       	cpi	r18, 0x04	; 4
    2228:	21 f4       	brne	.+8      	; 0x2232 <USART_Transmit+0x1a>
			UCSRB |= ((data>>8)&1);
    222a:	2a b1       	in	r18, 0x0a	; 10
    222c:	91 70       	andi	r25, 0x01	; 1
    222e:	92 2b       	or	r25, r18
    2230:	9a b9       	out	0x0a, r25	; 10
		}
	/***************************************************************************************/
	/* Put data into buffer, sends the data */
		UDR = (u8)data;
    2232:	8c b9       	out	0x0c, r24	; 12
	/****************************************/		
}
    2234:	08 95       	ret

00002236 <USART_Receive>:

u8 USART_Receive(u16 *Ptr_To_Val){
    2236:	fc 01       	movw	r30, r24
	u8 local_ParityError =0 ;// 0 Means Error
	*Ptr_To_Val = 0x00;
    2238:	11 82       	std	Z+1, r1	; 0x01
    223a:	10 82       	st	Z, r1
	/* Wait for data to be received */
		while(IS_BIT_CLR(UCSRA,RXC));
    223c:	5f 9b       	sbis	0x0b, 7	; 11
    223e:	fe cf       	rjmp	.-4      	; 0x223c <USART_Receive+0x6>
	/*******************************/
	/****************Check if parity error is not ON********/
		if (READ_BIT(UCSRA,PE) !=1){
    2240:	5a 99       	sbic	0x0b, 2	; 11
    2242:	19 c0       	rjmp	.+50     	; 0x2276 <USART_Receive+0x40>
			/***********if the data to be recieved is 9 bits, get the MSB first*****************/
				if (OBJECT->Char_Size==USART_9_BIT_CHAR){
    2244:	a0 91 cd 00 	lds	r26, 0x00CD
    2248:	b0 91 ce 00 	lds	r27, 0x00CE
    224c:	14 96       	adiw	r26, 0x04	; 4
    224e:	8c 91       	ld	r24, X
    2250:	14 97       	sbiw	r26, 0x04	; 4
    2252:	84 30       	cpi	r24, 0x04	; 4
    2254:	31 f4       	brne	.+12     	; 0x2262 <USART_Receive+0x2c>
					*Ptr_To_Val = (READ_BIT(UCSRB,TXB8)<<8);
    2256:	8a b1       	in	r24, 0x0a	; 10
    2258:	90 e0       	ldi	r25, 0x00	; 0
    225a:	81 70       	andi	r24, 0x01	; 1
    225c:	90 70       	andi	r25, 0x00	; 0
    225e:	10 82       	st	Z, r1
    2260:	81 83       	std	Z+1, r24	; 0x01
				}
			/***********************************************************************************/
			/* Get and return received data from buffer */
				*Ptr_To_Val |=UDR;
    2262:	2c b1       	in	r18, 0x0c	; 12
    2264:	30 e0       	ldi	r19, 0x00	; 0
    2266:	80 81       	ld	r24, Z
    2268:	91 81       	ldd	r25, Z+1	; 0x01
    226a:	82 2b       	or	r24, r18
    226c:	93 2b       	or	r25, r19
    226e:	91 83       	std	Z+1, r25	; 0x01
    2270:	80 83       	st	Z, r24
				local_ParityError=1;
    2272:	81 e0       	ldi	r24, 0x01	; 1
    2274:	08 95       	ret
		UDR = (u8)data;
	/****************************************/		
}

u8 USART_Receive(u16 *Ptr_To_Val){
	u8 local_ParityError =0 ;// 0 Means Error
    2276:	80 e0       	ldi	r24, 0x00	; 0
			/* Get and return received data from buffer */
				*Ptr_To_Val |=UDR;
				local_ParityError=1;
		}
	return local_ParityError;
    2278:	08 95       	ret

0000227a <UART_vInit>:
 *  Author: Mahmoud Ayman
 */ 
#include "USART_MCAL.h"
#define F_CPU 8000000UL
#include <util/delay.h>
void UART_vInit(u32 baud){
    227a:	dc 01       	movw	r26, r24
    227c:	cb 01       	movw	r24, r22
	/*1 - Choose baud rate that will be used by sender and receiver by writing to UBRRL/UBRRH*/
	u16 UBRR ;
	UBRR=(F_CPU/(16*baud))-1 ;
    227e:	88 0f       	add	r24, r24
    2280:	99 1f       	adc	r25, r25
    2282:	aa 1f       	adc	r26, r26
    2284:	bb 1f       	adc	r27, r27
    2286:	88 0f       	add	r24, r24
    2288:	99 1f       	adc	r25, r25
    228a:	aa 1f       	adc	r26, r26
    228c:	bb 1f       	adc	r27, r27
    228e:	9c 01       	movw	r18, r24
    2290:	ad 01       	movw	r20, r26
    2292:	22 0f       	add	r18, r18
    2294:	33 1f       	adc	r19, r19
    2296:	44 1f       	adc	r20, r20
    2298:	55 1f       	adc	r21, r21
    229a:	22 0f       	add	r18, r18
    229c:	33 1f       	adc	r19, r19
    229e:	44 1f       	adc	r20, r20
    22a0:	55 1f       	adc	r21, r21
    22a2:	60 e0       	ldi	r22, 0x00	; 0
    22a4:	72 e1       	ldi	r23, 0x12	; 18
    22a6:	8a e7       	ldi	r24, 0x7A	; 122
    22a8:	90 e0       	ldi	r25, 0x00	; 0
    22aa:	0e 94 aa 13 	call	0x2754	; 0x2754 <__udivmodsi4>
    22ae:	21 50       	subi	r18, 0x01	; 1
    22b0:	30 40       	sbci	r19, 0x00	; 0
	UBRRH=(u8)(UBRR>>8);
    22b2:	30 bd       	out	0x20, r19	; 32
	UBRRL=(u8)UBRR;
    22b4:	29 b9       	out	0x09, r18	; 9
	/*2 - Enable USART Sender & Receiver*/
	SET_BIT(UCSRB,TXEN);
    22b6:	53 9a       	sbi	0x0a, 3	; 10
	SET_BIT(UCSRB,RXEN);
    22b8:	54 9a       	sbi	0x0a, 4	; 10
	/*3 - Choose number of data bits to be sent,parity and stop bits from UCSRC
	, We will work with 8 bits data,1 stop bit and no parity bits*/
	UCSRC=(1<<URSEL)|(1<<UCSZ0)|(1<<UCSZ1);
    22ba:	86 e8       	ldi	r24, 0x86	; 134
    22bc:	80 bd       	out	0x20, r24	; 32
}
    22be:	08 95       	ret

000022c0 <UART_vSendData>:
void UART_vSendData(u8 data){
	/*Wait for UDR transmit buffer to be empty*/
	while(READ_BIT(UCSRA,UDRE)==0);
    22c0:	5d 9b       	sbis	0x0b, 5	; 11
    22c2:	fe cf       	rjmp	.-4      	; 0x22c0 <UART_vSendData>
	/*Put data to UDR transmit buffer transmit*/
	UDR=data ;
    22c4:	8c b9       	out	0x0c, r24	; 12
}
    22c6:	08 95       	ret

000022c8 <UART_u8ReceiveData>:
u8 UART_u8ReceiveData(void){
	/*Wait for UDR receive buffer to be filled with data*/
	while(READ_BIT(UCSRA,RXC)==0);
    22c8:	5f 9b       	sbis	0x0b, 7	; 11
    22ca:	fe cf       	rjmp	.-4      	; 0x22c8 <UART_u8ReceiveData>
	/*Receive data from UDR receive buffer*/
	return UDR ;
    22cc:	8c b1       	in	r24, 0x0c	; 12
} 
    22ce:	08 95       	ret

000022d0 <UART_vSendstring>:
void UART_vSendstring( u8 *ptr){ 
    22d0:	cf 93       	push	r28
    22d2:	df 93       	push	r29
    22d4:	ec 01       	movw	r28, r24
	while(*ptr!=0){
    22d6:	88 81       	ld	r24, Y
    22d8:	88 23       	and	r24, r24
    22da:	79 f0       	breq	.+30     	; 0x22fa <UART_vSendstring+0x2a>
	/*Wait for UDR receive buffer to be filled with data*/
	while(READ_BIT(UCSRA,RXC)==0);
	/*Receive data from UDR receive buffer*/
	return UDR ;
} 
void UART_vSendstring( u8 *ptr){ 
    22dc:	21 96       	adiw	r28, 0x01	; 1
	while(*ptr!=0){
		UART_vSendData(*ptr);
    22de:	0e 94 60 11 	call	0x22c0	; 0x22c0 <UART_vSendData>
    22e2:	8f ef       	ldi	r24, 0xFF	; 255
    22e4:	90 e7       	ldi	r25, 0x70	; 112
    22e6:	a2 e0       	ldi	r26, 0x02	; 2
    22e8:	81 50       	subi	r24, 0x01	; 1
    22ea:	90 40       	sbci	r25, 0x00	; 0
    22ec:	a0 40       	sbci	r26, 0x00	; 0
    22ee:	e1 f7       	brne	.-8      	; 0x22e8 <UART_vSendstring+0x18>
    22f0:	00 c0       	rjmp	.+0      	; 0x22f2 <UART_vSendstring+0x22>
    22f2:	00 00       	nop
	while(READ_BIT(UCSRA,RXC)==0);
	/*Receive data from UDR receive buffer*/
	return UDR ;
} 
void UART_vSendstring( u8 *ptr){ 
	while(*ptr!=0){
    22f4:	89 91       	ld	r24, Y+
    22f6:	88 23       	and	r24, r24
    22f8:	91 f7       	brne	.-28     	; 0x22de <UART_vSendstring+0xe>
		UART_vSendData(*ptr);
		ptr++;
		_delay_ms(100);
	}
    22fa:	df 91       	pop	r29
    22fc:	cf 91       	pop	r28
    22fe:	08 95       	ret

00002300 <__subsf3>:
    2300:	50 58       	subi	r21, 0x80	; 128

00002302 <__addsf3>:
    2302:	bb 27       	eor	r27, r27
    2304:	aa 27       	eor	r26, r26
    2306:	0e d0       	rcall	.+28     	; 0x2324 <__addsf3x>
    2308:	75 c1       	rjmp	.+746    	; 0x25f4 <__fp_round>
    230a:	66 d1       	rcall	.+716    	; 0x25d8 <__fp_pscA>
    230c:	30 f0       	brcs	.+12     	; 0x231a <__addsf3+0x18>
    230e:	6b d1       	rcall	.+726    	; 0x25e6 <__fp_pscB>
    2310:	20 f0       	brcs	.+8      	; 0x231a <__addsf3+0x18>
    2312:	31 f4       	brne	.+12     	; 0x2320 <__addsf3+0x1e>
    2314:	9f 3f       	cpi	r25, 0xFF	; 255
    2316:	11 f4       	brne	.+4      	; 0x231c <__addsf3+0x1a>
    2318:	1e f4       	brtc	.+6      	; 0x2320 <__addsf3+0x1e>
    231a:	5b c1       	rjmp	.+694    	; 0x25d2 <__fp_nan>
    231c:	0e f4       	brtc	.+2      	; 0x2320 <__addsf3+0x1e>
    231e:	e0 95       	com	r30
    2320:	e7 fb       	bst	r30, 7
    2322:	51 c1       	rjmp	.+674    	; 0x25c6 <__fp_inf>

00002324 <__addsf3x>:
    2324:	e9 2f       	mov	r30, r25
    2326:	77 d1       	rcall	.+750    	; 0x2616 <__fp_split3>
    2328:	80 f3       	brcs	.-32     	; 0x230a <__addsf3+0x8>
    232a:	ba 17       	cp	r27, r26
    232c:	62 07       	cpc	r22, r18
    232e:	73 07       	cpc	r23, r19
    2330:	84 07       	cpc	r24, r20
    2332:	95 07       	cpc	r25, r21
    2334:	18 f0       	brcs	.+6      	; 0x233c <__addsf3x+0x18>
    2336:	71 f4       	brne	.+28     	; 0x2354 <__addsf3x+0x30>
    2338:	9e f5       	brtc	.+102    	; 0x23a0 <__addsf3x+0x7c>
    233a:	8f c1       	rjmp	.+798    	; 0x265a <__fp_zero>
    233c:	0e f4       	brtc	.+2      	; 0x2340 <__addsf3x+0x1c>
    233e:	e0 95       	com	r30
    2340:	0b 2e       	mov	r0, r27
    2342:	ba 2f       	mov	r27, r26
    2344:	a0 2d       	mov	r26, r0
    2346:	0b 01       	movw	r0, r22
    2348:	b9 01       	movw	r22, r18
    234a:	90 01       	movw	r18, r0
    234c:	0c 01       	movw	r0, r24
    234e:	ca 01       	movw	r24, r20
    2350:	a0 01       	movw	r20, r0
    2352:	11 24       	eor	r1, r1
    2354:	ff 27       	eor	r31, r31
    2356:	59 1b       	sub	r21, r25
    2358:	99 f0       	breq	.+38     	; 0x2380 <__addsf3x+0x5c>
    235a:	59 3f       	cpi	r21, 0xF9	; 249
    235c:	50 f4       	brcc	.+20     	; 0x2372 <__addsf3x+0x4e>
    235e:	50 3e       	cpi	r21, 0xE0	; 224
    2360:	68 f1       	brcs	.+90     	; 0x23bc <__addsf3x+0x98>
    2362:	1a 16       	cp	r1, r26
    2364:	f0 40       	sbci	r31, 0x00	; 0
    2366:	a2 2f       	mov	r26, r18
    2368:	23 2f       	mov	r18, r19
    236a:	34 2f       	mov	r19, r20
    236c:	44 27       	eor	r20, r20
    236e:	58 5f       	subi	r21, 0xF8	; 248
    2370:	f3 cf       	rjmp	.-26     	; 0x2358 <__addsf3x+0x34>
    2372:	46 95       	lsr	r20
    2374:	37 95       	ror	r19
    2376:	27 95       	ror	r18
    2378:	a7 95       	ror	r26
    237a:	f0 40       	sbci	r31, 0x00	; 0
    237c:	53 95       	inc	r21
    237e:	c9 f7       	brne	.-14     	; 0x2372 <__addsf3x+0x4e>
    2380:	7e f4       	brtc	.+30     	; 0x23a0 <__addsf3x+0x7c>
    2382:	1f 16       	cp	r1, r31
    2384:	ba 0b       	sbc	r27, r26
    2386:	62 0b       	sbc	r22, r18
    2388:	73 0b       	sbc	r23, r19
    238a:	84 0b       	sbc	r24, r20
    238c:	ba f0       	brmi	.+46     	; 0x23bc <__addsf3x+0x98>
    238e:	91 50       	subi	r25, 0x01	; 1
    2390:	a1 f0       	breq	.+40     	; 0x23ba <__addsf3x+0x96>
    2392:	ff 0f       	add	r31, r31
    2394:	bb 1f       	adc	r27, r27
    2396:	66 1f       	adc	r22, r22
    2398:	77 1f       	adc	r23, r23
    239a:	88 1f       	adc	r24, r24
    239c:	c2 f7       	brpl	.-16     	; 0x238e <__addsf3x+0x6a>
    239e:	0e c0       	rjmp	.+28     	; 0x23bc <__addsf3x+0x98>
    23a0:	ba 0f       	add	r27, r26
    23a2:	62 1f       	adc	r22, r18
    23a4:	73 1f       	adc	r23, r19
    23a6:	84 1f       	adc	r24, r20
    23a8:	48 f4       	brcc	.+18     	; 0x23bc <__addsf3x+0x98>
    23aa:	87 95       	ror	r24
    23ac:	77 95       	ror	r23
    23ae:	67 95       	ror	r22
    23b0:	b7 95       	ror	r27
    23b2:	f7 95       	ror	r31
    23b4:	9e 3f       	cpi	r25, 0xFE	; 254
    23b6:	08 f0       	brcs	.+2      	; 0x23ba <__addsf3x+0x96>
    23b8:	b3 cf       	rjmp	.-154    	; 0x2320 <__addsf3+0x1e>
    23ba:	93 95       	inc	r25
    23bc:	88 0f       	add	r24, r24
    23be:	08 f0       	brcs	.+2      	; 0x23c2 <__addsf3x+0x9e>
    23c0:	99 27       	eor	r25, r25
    23c2:	ee 0f       	add	r30, r30
    23c4:	97 95       	ror	r25
    23c6:	87 95       	ror	r24
    23c8:	08 95       	ret

000023ca <__cmpsf2>:
    23ca:	d9 d0       	rcall	.+434    	; 0x257e <__fp_cmp>
    23cc:	08 f4       	brcc	.+2      	; 0x23d0 <__cmpsf2+0x6>
    23ce:	81 e0       	ldi	r24, 0x01	; 1
    23d0:	08 95       	ret

000023d2 <__divsf3>:
    23d2:	0c d0       	rcall	.+24     	; 0x23ec <__divsf3x>
    23d4:	0f c1       	rjmp	.+542    	; 0x25f4 <__fp_round>
    23d6:	07 d1       	rcall	.+526    	; 0x25e6 <__fp_pscB>
    23d8:	40 f0       	brcs	.+16     	; 0x23ea <__divsf3+0x18>
    23da:	fe d0       	rcall	.+508    	; 0x25d8 <__fp_pscA>
    23dc:	30 f0       	brcs	.+12     	; 0x23ea <__divsf3+0x18>
    23de:	21 f4       	brne	.+8      	; 0x23e8 <__divsf3+0x16>
    23e0:	5f 3f       	cpi	r21, 0xFF	; 255
    23e2:	19 f0       	breq	.+6      	; 0x23ea <__divsf3+0x18>
    23e4:	f0 c0       	rjmp	.+480    	; 0x25c6 <__fp_inf>
    23e6:	51 11       	cpse	r21, r1
    23e8:	39 c1       	rjmp	.+626    	; 0x265c <__fp_szero>
    23ea:	f3 c0       	rjmp	.+486    	; 0x25d2 <__fp_nan>

000023ec <__divsf3x>:
    23ec:	14 d1       	rcall	.+552    	; 0x2616 <__fp_split3>
    23ee:	98 f3       	brcs	.-26     	; 0x23d6 <__divsf3+0x4>

000023f0 <__divsf3_pse>:
    23f0:	99 23       	and	r25, r25
    23f2:	c9 f3       	breq	.-14     	; 0x23e6 <__divsf3+0x14>
    23f4:	55 23       	and	r21, r21
    23f6:	b1 f3       	breq	.-20     	; 0x23e4 <__divsf3+0x12>
    23f8:	95 1b       	sub	r25, r21
    23fa:	55 0b       	sbc	r21, r21
    23fc:	bb 27       	eor	r27, r27
    23fe:	aa 27       	eor	r26, r26
    2400:	62 17       	cp	r22, r18
    2402:	73 07       	cpc	r23, r19
    2404:	84 07       	cpc	r24, r20
    2406:	38 f0       	brcs	.+14     	; 0x2416 <__divsf3_pse+0x26>
    2408:	9f 5f       	subi	r25, 0xFF	; 255
    240a:	5f 4f       	sbci	r21, 0xFF	; 255
    240c:	22 0f       	add	r18, r18
    240e:	33 1f       	adc	r19, r19
    2410:	44 1f       	adc	r20, r20
    2412:	aa 1f       	adc	r26, r26
    2414:	a9 f3       	breq	.-22     	; 0x2400 <__divsf3_pse+0x10>
    2416:	33 d0       	rcall	.+102    	; 0x247e <__divsf3_pse+0x8e>
    2418:	0e 2e       	mov	r0, r30
    241a:	3a f0       	brmi	.+14     	; 0x242a <__divsf3_pse+0x3a>
    241c:	e0 e8       	ldi	r30, 0x80	; 128
    241e:	30 d0       	rcall	.+96     	; 0x2480 <__divsf3_pse+0x90>
    2420:	91 50       	subi	r25, 0x01	; 1
    2422:	50 40       	sbci	r21, 0x00	; 0
    2424:	e6 95       	lsr	r30
    2426:	00 1c       	adc	r0, r0
    2428:	ca f7       	brpl	.-14     	; 0x241c <__divsf3_pse+0x2c>
    242a:	29 d0       	rcall	.+82     	; 0x247e <__divsf3_pse+0x8e>
    242c:	fe 2f       	mov	r31, r30
    242e:	27 d0       	rcall	.+78     	; 0x247e <__divsf3_pse+0x8e>
    2430:	66 0f       	add	r22, r22
    2432:	77 1f       	adc	r23, r23
    2434:	88 1f       	adc	r24, r24
    2436:	bb 1f       	adc	r27, r27
    2438:	26 17       	cp	r18, r22
    243a:	37 07       	cpc	r19, r23
    243c:	48 07       	cpc	r20, r24
    243e:	ab 07       	cpc	r26, r27
    2440:	b0 e8       	ldi	r27, 0x80	; 128
    2442:	09 f0       	breq	.+2      	; 0x2446 <__divsf3_pse+0x56>
    2444:	bb 0b       	sbc	r27, r27
    2446:	80 2d       	mov	r24, r0
    2448:	bf 01       	movw	r22, r30
    244a:	ff 27       	eor	r31, r31
    244c:	93 58       	subi	r25, 0x83	; 131
    244e:	5f 4f       	sbci	r21, 0xFF	; 255
    2450:	2a f0       	brmi	.+10     	; 0x245c <__divsf3_pse+0x6c>
    2452:	9e 3f       	cpi	r25, 0xFE	; 254
    2454:	51 05       	cpc	r21, r1
    2456:	68 f0       	brcs	.+26     	; 0x2472 <__divsf3_pse+0x82>
    2458:	b6 c0       	rjmp	.+364    	; 0x25c6 <__fp_inf>
    245a:	00 c1       	rjmp	.+512    	; 0x265c <__fp_szero>
    245c:	5f 3f       	cpi	r21, 0xFF	; 255
    245e:	ec f3       	brlt	.-6      	; 0x245a <__divsf3_pse+0x6a>
    2460:	98 3e       	cpi	r25, 0xE8	; 232
    2462:	dc f3       	brlt	.-10     	; 0x245a <__divsf3_pse+0x6a>
    2464:	86 95       	lsr	r24
    2466:	77 95       	ror	r23
    2468:	67 95       	ror	r22
    246a:	b7 95       	ror	r27
    246c:	f7 95       	ror	r31
    246e:	9f 5f       	subi	r25, 0xFF	; 255
    2470:	c9 f7       	brne	.-14     	; 0x2464 <__divsf3_pse+0x74>
    2472:	88 0f       	add	r24, r24
    2474:	91 1d       	adc	r25, r1
    2476:	96 95       	lsr	r25
    2478:	87 95       	ror	r24
    247a:	97 f9       	bld	r25, 7
    247c:	08 95       	ret
    247e:	e1 e0       	ldi	r30, 0x01	; 1
    2480:	66 0f       	add	r22, r22
    2482:	77 1f       	adc	r23, r23
    2484:	88 1f       	adc	r24, r24
    2486:	bb 1f       	adc	r27, r27
    2488:	62 17       	cp	r22, r18
    248a:	73 07       	cpc	r23, r19
    248c:	84 07       	cpc	r24, r20
    248e:	ba 07       	cpc	r27, r26
    2490:	20 f0       	brcs	.+8      	; 0x249a <__divsf3_pse+0xaa>
    2492:	62 1b       	sub	r22, r18
    2494:	73 0b       	sbc	r23, r19
    2496:	84 0b       	sbc	r24, r20
    2498:	ba 0b       	sbc	r27, r26
    249a:	ee 1f       	adc	r30, r30
    249c:	88 f7       	brcc	.-30     	; 0x2480 <__divsf3_pse+0x90>
    249e:	e0 95       	com	r30
    24a0:	08 95       	ret

000024a2 <__fixsfsi>:
    24a2:	04 d0       	rcall	.+8      	; 0x24ac <__fixunssfsi>
    24a4:	68 94       	set
    24a6:	b1 11       	cpse	r27, r1
    24a8:	d9 c0       	rjmp	.+434    	; 0x265c <__fp_szero>
    24aa:	08 95       	ret

000024ac <__fixunssfsi>:
    24ac:	bc d0       	rcall	.+376    	; 0x2626 <__fp_splitA>
    24ae:	88 f0       	brcs	.+34     	; 0x24d2 <__fixunssfsi+0x26>
    24b0:	9f 57       	subi	r25, 0x7F	; 127
    24b2:	90 f0       	brcs	.+36     	; 0x24d8 <__fixunssfsi+0x2c>
    24b4:	b9 2f       	mov	r27, r25
    24b6:	99 27       	eor	r25, r25
    24b8:	b7 51       	subi	r27, 0x17	; 23
    24ba:	a0 f0       	brcs	.+40     	; 0x24e4 <__fixunssfsi+0x38>
    24bc:	d1 f0       	breq	.+52     	; 0x24f2 <__fixunssfsi+0x46>
    24be:	66 0f       	add	r22, r22
    24c0:	77 1f       	adc	r23, r23
    24c2:	88 1f       	adc	r24, r24
    24c4:	99 1f       	adc	r25, r25
    24c6:	1a f0       	brmi	.+6      	; 0x24ce <__fixunssfsi+0x22>
    24c8:	ba 95       	dec	r27
    24ca:	c9 f7       	brne	.-14     	; 0x24be <__fixunssfsi+0x12>
    24cc:	12 c0       	rjmp	.+36     	; 0x24f2 <__fixunssfsi+0x46>
    24ce:	b1 30       	cpi	r27, 0x01	; 1
    24d0:	81 f0       	breq	.+32     	; 0x24f2 <__fixunssfsi+0x46>
    24d2:	c3 d0       	rcall	.+390    	; 0x265a <__fp_zero>
    24d4:	b1 e0       	ldi	r27, 0x01	; 1
    24d6:	08 95       	ret
    24d8:	c0 c0       	rjmp	.+384    	; 0x265a <__fp_zero>
    24da:	67 2f       	mov	r22, r23
    24dc:	78 2f       	mov	r23, r24
    24de:	88 27       	eor	r24, r24
    24e0:	b8 5f       	subi	r27, 0xF8	; 248
    24e2:	39 f0       	breq	.+14     	; 0x24f2 <__fixunssfsi+0x46>
    24e4:	b9 3f       	cpi	r27, 0xF9	; 249
    24e6:	cc f3       	brlt	.-14     	; 0x24da <__fixunssfsi+0x2e>
    24e8:	86 95       	lsr	r24
    24ea:	77 95       	ror	r23
    24ec:	67 95       	ror	r22
    24ee:	b3 95       	inc	r27
    24f0:	d9 f7       	brne	.-10     	; 0x24e8 <__fixunssfsi+0x3c>
    24f2:	3e f4       	brtc	.+14     	; 0x2502 <__fixunssfsi+0x56>
    24f4:	90 95       	com	r25
    24f6:	80 95       	com	r24
    24f8:	70 95       	com	r23
    24fa:	61 95       	neg	r22
    24fc:	7f 4f       	sbci	r23, 0xFF	; 255
    24fe:	8f 4f       	sbci	r24, 0xFF	; 255
    2500:	9f 4f       	sbci	r25, 0xFF	; 255
    2502:	08 95       	ret

00002504 <__floatunsisf>:
    2504:	e8 94       	clt
    2506:	09 c0       	rjmp	.+18     	; 0x251a <__floatsisf+0x12>

00002508 <__floatsisf>:
    2508:	97 fb       	bst	r25, 7
    250a:	3e f4       	brtc	.+14     	; 0x251a <__floatsisf+0x12>
    250c:	90 95       	com	r25
    250e:	80 95       	com	r24
    2510:	70 95       	com	r23
    2512:	61 95       	neg	r22
    2514:	7f 4f       	sbci	r23, 0xFF	; 255
    2516:	8f 4f       	sbci	r24, 0xFF	; 255
    2518:	9f 4f       	sbci	r25, 0xFF	; 255
    251a:	99 23       	and	r25, r25
    251c:	a9 f0       	breq	.+42     	; 0x2548 <__floatsisf+0x40>
    251e:	f9 2f       	mov	r31, r25
    2520:	96 e9       	ldi	r25, 0x96	; 150
    2522:	bb 27       	eor	r27, r27
    2524:	93 95       	inc	r25
    2526:	f6 95       	lsr	r31
    2528:	87 95       	ror	r24
    252a:	77 95       	ror	r23
    252c:	67 95       	ror	r22
    252e:	b7 95       	ror	r27
    2530:	f1 11       	cpse	r31, r1
    2532:	f8 cf       	rjmp	.-16     	; 0x2524 <__floatsisf+0x1c>
    2534:	fa f4       	brpl	.+62     	; 0x2574 <__floatsisf+0x6c>
    2536:	bb 0f       	add	r27, r27
    2538:	11 f4       	brne	.+4      	; 0x253e <__floatsisf+0x36>
    253a:	60 ff       	sbrs	r22, 0
    253c:	1b c0       	rjmp	.+54     	; 0x2574 <__floatsisf+0x6c>
    253e:	6f 5f       	subi	r22, 0xFF	; 255
    2540:	7f 4f       	sbci	r23, 0xFF	; 255
    2542:	8f 4f       	sbci	r24, 0xFF	; 255
    2544:	9f 4f       	sbci	r25, 0xFF	; 255
    2546:	16 c0       	rjmp	.+44     	; 0x2574 <__floatsisf+0x6c>
    2548:	88 23       	and	r24, r24
    254a:	11 f0       	breq	.+4      	; 0x2550 <__floatsisf+0x48>
    254c:	96 e9       	ldi	r25, 0x96	; 150
    254e:	11 c0       	rjmp	.+34     	; 0x2572 <__floatsisf+0x6a>
    2550:	77 23       	and	r23, r23
    2552:	21 f0       	breq	.+8      	; 0x255c <__floatsisf+0x54>
    2554:	9e e8       	ldi	r25, 0x8E	; 142
    2556:	87 2f       	mov	r24, r23
    2558:	76 2f       	mov	r23, r22
    255a:	05 c0       	rjmp	.+10     	; 0x2566 <__floatsisf+0x5e>
    255c:	66 23       	and	r22, r22
    255e:	71 f0       	breq	.+28     	; 0x257c <__floatsisf+0x74>
    2560:	96 e8       	ldi	r25, 0x86	; 134
    2562:	86 2f       	mov	r24, r22
    2564:	70 e0       	ldi	r23, 0x00	; 0
    2566:	60 e0       	ldi	r22, 0x00	; 0
    2568:	2a f0       	brmi	.+10     	; 0x2574 <__floatsisf+0x6c>
    256a:	9a 95       	dec	r25
    256c:	66 0f       	add	r22, r22
    256e:	77 1f       	adc	r23, r23
    2570:	88 1f       	adc	r24, r24
    2572:	da f7       	brpl	.-10     	; 0x256a <__floatsisf+0x62>
    2574:	88 0f       	add	r24, r24
    2576:	96 95       	lsr	r25
    2578:	87 95       	ror	r24
    257a:	97 f9       	bld	r25, 7
    257c:	08 95       	ret

0000257e <__fp_cmp>:
    257e:	99 0f       	add	r25, r25
    2580:	00 08       	sbc	r0, r0
    2582:	55 0f       	add	r21, r21
    2584:	aa 0b       	sbc	r26, r26
    2586:	e0 e8       	ldi	r30, 0x80	; 128
    2588:	fe ef       	ldi	r31, 0xFE	; 254
    258a:	16 16       	cp	r1, r22
    258c:	17 06       	cpc	r1, r23
    258e:	e8 07       	cpc	r30, r24
    2590:	f9 07       	cpc	r31, r25
    2592:	c0 f0       	brcs	.+48     	; 0x25c4 <__fp_cmp+0x46>
    2594:	12 16       	cp	r1, r18
    2596:	13 06       	cpc	r1, r19
    2598:	e4 07       	cpc	r30, r20
    259a:	f5 07       	cpc	r31, r21
    259c:	98 f0       	brcs	.+38     	; 0x25c4 <__fp_cmp+0x46>
    259e:	62 1b       	sub	r22, r18
    25a0:	73 0b       	sbc	r23, r19
    25a2:	84 0b       	sbc	r24, r20
    25a4:	95 0b       	sbc	r25, r21
    25a6:	39 f4       	brne	.+14     	; 0x25b6 <__fp_cmp+0x38>
    25a8:	0a 26       	eor	r0, r26
    25aa:	61 f0       	breq	.+24     	; 0x25c4 <__fp_cmp+0x46>
    25ac:	23 2b       	or	r18, r19
    25ae:	24 2b       	or	r18, r20
    25b0:	25 2b       	or	r18, r21
    25b2:	21 f4       	brne	.+8      	; 0x25bc <__fp_cmp+0x3e>
    25b4:	08 95       	ret
    25b6:	0a 26       	eor	r0, r26
    25b8:	09 f4       	brne	.+2      	; 0x25bc <__fp_cmp+0x3e>
    25ba:	a1 40       	sbci	r26, 0x01	; 1
    25bc:	a6 95       	lsr	r26
    25be:	8f ef       	ldi	r24, 0xFF	; 255
    25c0:	81 1d       	adc	r24, r1
    25c2:	81 1d       	adc	r24, r1
    25c4:	08 95       	ret

000025c6 <__fp_inf>:
    25c6:	97 f9       	bld	r25, 7
    25c8:	9f 67       	ori	r25, 0x7F	; 127
    25ca:	80 e8       	ldi	r24, 0x80	; 128
    25cc:	70 e0       	ldi	r23, 0x00	; 0
    25ce:	60 e0       	ldi	r22, 0x00	; 0
    25d0:	08 95       	ret

000025d2 <__fp_nan>:
    25d2:	9f ef       	ldi	r25, 0xFF	; 255
    25d4:	80 ec       	ldi	r24, 0xC0	; 192
    25d6:	08 95       	ret

000025d8 <__fp_pscA>:
    25d8:	00 24       	eor	r0, r0
    25da:	0a 94       	dec	r0
    25dc:	16 16       	cp	r1, r22
    25de:	17 06       	cpc	r1, r23
    25e0:	18 06       	cpc	r1, r24
    25e2:	09 06       	cpc	r0, r25
    25e4:	08 95       	ret

000025e6 <__fp_pscB>:
    25e6:	00 24       	eor	r0, r0
    25e8:	0a 94       	dec	r0
    25ea:	12 16       	cp	r1, r18
    25ec:	13 06       	cpc	r1, r19
    25ee:	14 06       	cpc	r1, r20
    25f0:	05 06       	cpc	r0, r21
    25f2:	08 95       	ret

000025f4 <__fp_round>:
    25f4:	09 2e       	mov	r0, r25
    25f6:	03 94       	inc	r0
    25f8:	00 0c       	add	r0, r0
    25fa:	11 f4       	brne	.+4      	; 0x2600 <__fp_round+0xc>
    25fc:	88 23       	and	r24, r24
    25fe:	52 f0       	brmi	.+20     	; 0x2614 <__fp_round+0x20>
    2600:	bb 0f       	add	r27, r27
    2602:	40 f4       	brcc	.+16     	; 0x2614 <__fp_round+0x20>
    2604:	bf 2b       	or	r27, r31
    2606:	11 f4       	brne	.+4      	; 0x260c <__fp_round+0x18>
    2608:	60 ff       	sbrs	r22, 0
    260a:	04 c0       	rjmp	.+8      	; 0x2614 <__fp_round+0x20>
    260c:	6f 5f       	subi	r22, 0xFF	; 255
    260e:	7f 4f       	sbci	r23, 0xFF	; 255
    2610:	8f 4f       	sbci	r24, 0xFF	; 255
    2612:	9f 4f       	sbci	r25, 0xFF	; 255
    2614:	08 95       	ret

00002616 <__fp_split3>:
    2616:	57 fd       	sbrc	r21, 7
    2618:	90 58       	subi	r25, 0x80	; 128
    261a:	44 0f       	add	r20, r20
    261c:	55 1f       	adc	r21, r21
    261e:	59 f0       	breq	.+22     	; 0x2636 <__fp_splitA+0x10>
    2620:	5f 3f       	cpi	r21, 0xFF	; 255
    2622:	71 f0       	breq	.+28     	; 0x2640 <__fp_splitA+0x1a>
    2624:	47 95       	ror	r20

00002626 <__fp_splitA>:
    2626:	88 0f       	add	r24, r24
    2628:	97 fb       	bst	r25, 7
    262a:	99 1f       	adc	r25, r25
    262c:	61 f0       	breq	.+24     	; 0x2646 <__fp_splitA+0x20>
    262e:	9f 3f       	cpi	r25, 0xFF	; 255
    2630:	79 f0       	breq	.+30     	; 0x2650 <__fp_splitA+0x2a>
    2632:	87 95       	ror	r24
    2634:	08 95       	ret
    2636:	12 16       	cp	r1, r18
    2638:	13 06       	cpc	r1, r19
    263a:	14 06       	cpc	r1, r20
    263c:	55 1f       	adc	r21, r21
    263e:	f2 cf       	rjmp	.-28     	; 0x2624 <__fp_split3+0xe>
    2640:	46 95       	lsr	r20
    2642:	f1 df       	rcall	.-30     	; 0x2626 <__fp_splitA>
    2644:	08 c0       	rjmp	.+16     	; 0x2656 <__fp_splitA+0x30>
    2646:	16 16       	cp	r1, r22
    2648:	17 06       	cpc	r1, r23
    264a:	18 06       	cpc	r1, r24
    264c:	99 1f       	adc	r25, r25
    264e:	f1 cf       	rjmp	.-30     	; 0x2632 <__fp_splitA+0xc>
    2650:	86 95       	lsr	r24
    2652:	71 05       	cpc	r23, r1
    2654:	61 05       	cpc	r22, r1
    2656:	08 94       	sec
    2658:	08 95       	ret

0000265a <__fp_zero>:
    265a:	e8 94       	clt

0000265c <__fp_szero>:
    265c:	bb 27       	eor	r27, r27
    265e:	66 27       	eor	r22, r22
    2660:	77 27       	eor	r23, r23
    2662:	cb 01       	movw	r24, r22
    2664:	97 f9       	bld	r25, 7
    2666:	08 95       	ret

00002668 <__mulsf3>:
    2668:	0b d0       	rcall	.+22     	; 0x2680 <__mulsf3x>
    266a:	c4 cf       	rjmp	.-120    	; 0x25f4 <__fp_round>
    266c:	b5 df       	rcall	.-150    	; 0x25d8 <__fp_pscA>
    266e:	28 f0       	brcs	.+10     	; 0x267a <__mulsf3+0x12>
    2670:	ba df       	rcall	.-140    	; 0x25e6 <__fp_pscB>
    2672:	18 f0       	brcs	.+6      	; 0x267a <__mulsf3+0x12>
    2674:	95 23       	and	r25, r21
    2676:	09 f0       	breq	.+2      	; 0x267a <__mulsf3+0x12>
    2678:	a6 cf       	rjmp	.-180    	; 0x25c6 <__fp_inf>
    267a:	ab cf       	rjmp	.-170    	; 0x25d2 <__fp_nan>
    267c:	11 24       	eor	r1, r1
    267e:	ee cf       	rjmp	.-36     	; 0x265c <__fp_szero>

00002680 <__mulsf3x>:
    2680:	ca df       	rcall	.-108    	; 0x2616 <__fp_split3>
    2682:	a0 f3       	brcs	.-24     	; 0x266c <__mulsf3+0x4>

00002684 <__mulsf3_pse>:
    2684:	95 9f       	mul	r25, r21
    2686:	d1 f3       	breq	.-12     	; 0x267c <__mulsf3+0x14>
    2688:	95 0f       	add	r25, r21
    268a:	50 e0       	ldi	r21, 0x00	; 0
    268c:	55 1f       	adc	r21, r21
    268e:	62 9f       	mul	r22, r18
    2690:	f0 01       	movw	r30, r0
    2692:	72 9f       	mul	r23, r18
    2694:	bb 27       	eor	r27, r27
    2696:	f0 0d       	add	r31, r0
    2698:	b1 1d       	adc	r27, r1
    269a:	63 9f       	mul	r22, r19
    269c:	aa 27       	eor	r26, r26
    269e:	f0 0d       	add	r31, r0
    26a0:	b1 1d       	adc	r27, r1
    26a2:	aa 1f       	adc	r26, r26
    26a4:	64 9f       	mul	r22, r20
    26a6:	66 27       	eor	r22, r22
    26a8:	b0 0d       	add	r27, r0
    26aa:	a1 1d       	adc	r26, r1
    26ac:	66 1f       	adc	r22, r22
    26ae:	82 9f       	mul	r24, r18
    26b0:	22 27       	eor	r18, r18
    26b2:	b0 0d       	add	r27, r0
    26b4:	a1 1d       	adc	r26, r1
    26b6:	62 1f       	adc	r22, r18
    26b8:	73 9f       	mul	r23, r19
    26ba:	b0 0d       	add	r27, r0
    26bc:	a1 1d       	adc	r26, r1
    26be:	62 1f       	adc	r22, r18
    26c0:	83 9f       	mul	r24, r19
    26c2:	a0 0d       	add	r26, r0
    26c4:	61 1d       	adc	r22, r1
    26c6:	22 1f       	adc	r18, r18
    26c8:	74 9f       	mul	r23, r20
    26ca:	33 27       	eor	r19, r19
    26cc:	a0 0d       	add	r26, r0
    26ce:	61 1d       	adc	r22, r1
    26d0:	23 1f       	adc	r18, r19
    26d2:	84 9f       	mul	r24, r20
    26d4:	60 0d       	add	r22, r0
    26d6:	21 1d       	adc	r18, r1
    26d8:	82 2f       	mov	r24, r18
    26da:	76 2f       	mov	r23, r22
    26dc:	6a 2f       	mov	r22, r26
    26de:	11 24       	eor	r1, r1
    26e0:	9f 57       	subi	r25, 0x7F	; 127
    26e2:	50 40       	sbci	r21, 0x00	; 0
    26e4:	8a f0       	brmi	.+34     	; 0x2708 <__mulsf3_pse+0x84>
    26e6:	e1 f0       	breq	.+56     	; 0x2720 <__mulsf3_pse+0x9c>
    26e8:	88 23       	and	r24, r24
    26ea:	4a f0       	brmi	.+18     	; 0x26fe <__mulsf3_pse+0x7a>
    26ec:	ee 0f       	add	r30, r30
    26ee:	ff 1f       	adc	r31, r31
    26f0:	bb 1f       	adc	r27, r27
    26f2:	66 1f       	adc	r22, r22
    26f4:	77 1f       	adc	r23, r23
    26f6:	88 1f       	adc	r24, r24
    26f8:	91 50       	subi	r25, 0x01	; 1
    26fa:	50 40       	sbci	r21, 0x00	; 0
    26fc:	a9 f7       	brne	.-22     	; 0x26e8 <__mulsf3_pse+0x64>
    26fe:	9e 3f       	cpi	r25, 0xFE	; 254
    2700:	51 05       	cpc	r21, r1
    2702:	70 f0       	brcs	.+28     	; 0x2720 <__mulsf3_pse+0x9c>
    2704:	60 cf       	rjmp	.-320    	; 0x25c6 <__fp_inf>
    2706:	aa cf       	rjmp	.-172    	; 0x265c <__fp_szero>
    2708:	5f 3f       	cpi	r21, 0xFF	; 255
    270a:	ec f3       	brlt	.-6      	; 0x2706 <__mulsf3_pse+0x82>
    270c:	98 3e       	cpi	r25, 0xE8	; 232
    270e:	dc f3       	brlt	.-10     	; 0x2706 <__mulsf3_pse+0x82>
    2710:	86 95       	lsr	r24
    2712:	77 95       	ror	r23
    2714:	67 95       	ror	r22
    2716:	b7 95       	ror	r27
    2718:	f7 95       	ror	r31
    271a:	e7 95       	ror	r30
    271c:	9f 5f       	subi	r25, 0xFF	; 255
    271e:	c1 f7       	brne	.-16     	; 0x2710 <__mulsf3_pse+0x8c>
    2720:	fe 2b       	or	r31, r30
    2722:	88 0f       	add	r24, r24
    2724:	91 1d       	adc	r25, r1
    2726:	96 95       	lsr	r25
    2728:	87 95       	ror	r24
    272a:	97 f9       	bld	r25, 7
    272c:	08 95       	ret

0000272e <__divmodhi4>:
    272e:	97 fb       	bst	r25, 7
    2730:	09 2e       	mov	r0, r25
    2732:	07 26       	eor	r0, r23
    2734:	0a d0       	rcall	.+20     	; 0x274a <__divmodhi4_neg1>
    2736:	77 fd       	sbrc	r23, 7
    2738:	04 d0       	rcall	.+8      	; 0x2742 <__divmodhi4_neg2>
    273a:	2e d0       	rcall	.+92     	; 0x2798 <__udivmodhi4>
    273c:	06 d0       	rcall	.+12     	; 0x274a <__divmodhi4_neg1>
    273e:	00 20       	and	r0, r0
    2740:	1a f4       	brpl	.+6      	; 0x2748 <__divmodhi4_exit>

00002742 <__divmodhi4_neg2>:
    2742:	70 95       	com	r23
    2744:	61 95       	neg	r22
    2746:	7f 4f       	sbci	r23, 0xFF	; 255

00002748 <__divmodhi4_exit>:
    2748:	08 95       	ret

0000274a <__divmodhi4_neg1>:
    274a:	f6 f7       	brtc	.-4      	; 0x2748 <__divmodhi4_exit>
    274c:	90 95       	com	r25
    274e:	81 95       	neg	r24
    2750:	9f 4f       	sbci	r25, 0xFF	; 255
    2752:	08 95       	ret

00002754 <__udivmodsi4>:
    2754:	a1 e2       	ldi	r26, 0x21	; 33
    2756:	1a 2e       	mov	r1, r26
    2758:	aa 1b       	sub	r26, r26
    275a:	bb 1b       	sub	r27, r27
    275c:	fd 01       	movw	r30, r26
    275e:	0d c0       	rjmp	.+26     	; 0x277a <__udivmodsi4_ep>

00002760 <__udivmodsi4_loop>:
    2760:	aa 1f       	adc	r26, r26
    2762:	bb 1f       	adc	r27, r27
    2764:	ee 1f       	adc	r30, r30
    2766:	ff 1f       	adc	r31, r31
    2768:	a2 17       	cp	r26, r18
    276a:	b3 07       	cpc	r27, r19
    276c:	e4 07       	cpc	r30, r20
    276e:	f5 07       	cpc	r31, r21
    2770:	20 f0       	brcs	.+8      	; 0x277a <__udivmodsi4_ep>
    2772:	a2 1b       	sub	r26, r18
    2774:	b3 0b       	sbc	r27, r19
    2776:	e4 0b       	sbc	r30, r20
    2778:	f5 0b       	sbc	r31, r21

0000277a <__udivmodsi4_ep>:
    277a:	66 1f       	adc	r22, r22
    277c:	77 1f       	adc	r23, r23
    277e:	88 1f       	adc	r24, r24
    2780:	99 1f       	adc	r25, r25
    2782:	1a 94       	dec	r1
    2784:	69 f7       	brne	.-38     	; 0x2760 <__udivmodsi4_loop>
    2786:	60 95       	com	r22
    2788:	70 95       	com	r23
    278a:	80 95       	com	r24
    278c:	90 95       	com	r25
    278e:	9b 01       	movw	r18, r22
    2790:	ac 01       	movw	r20, r24
    2792:	bd 01       	movw	r22, r26
    2794:	cf 01       	movw	r24, r30
    2796:	08 95       	ret

00002798 <__udivmodhi4>:
    2798:	aa 1b       	sub	r26, r26
    279a:	bb 1b       	sub	r27, r27
    279c:	51 e1       	ldi	r21, 0x11	; 17
    279e:	07 c0       	rjmp	.+14     	; 0x27ae <__udivmodhi4_ep>

000027a0 <__udivmodhi4_loop>:
    27a0:	aa 1f       	adc	r26, r26
    27a2:	bb 1f       	adc	r27, r27
    27a4:	a6 17       	cp	r26, r22
    27a6:	b7 07       	cpc	r27, r23
    27a8:	10 f0       	brcs	.+4      	; 0x27ae <__udivmodhi4_ep>
    27aa:	a6 1b       	sub	r26, r22
    27ac:	b7 0b       	sbc	r27, r23

000027ae <__udivmodhi4_ep>:
    27ae:	88 1f       	adc	r24, r24
    27b0:	99 1f       	adc	r25, r25
    27b2:	5a 95       	dec	r21
    27b4:	a9 f7       	brne	.-22     	; 0x27a0 <__udivmodhi4_loop>
    27b6:	80 95       	com	r24
    27b8:	90 95       	com	r25
    27ba:	bc 01       	movw	r22, r24
    27bc:	cd 01       	movw	r24, r26
    27be:	08 95       	ret

000027c0 <sprintf>:
    27c0:	ae e0       	ldi	r26, 0x0E	; 14
    27c2:	b0 e0       	ldi	r27, 0x00	; 0
    27c4:	e6 ee       	ldi	r30, 0xE6	; 230
    27c6:	f3 e1       	ldi	r31, 0x13	; 19
    27c8:	0c 94 8e 16 	jmp	0x2d1c	; 0x2d1c <__prologue_saves__+0x1c>
    27cc:	0d 89       	ldd	r16, Y+21	; 0x15
    27ce:	1e 89       	ldd	r17, Y+22	; 0x16
    27d0:	86 e0       	ldi	r24, 0x06	; 6
    27d2:	8c 83       	std	Y+4, r24	; 0x04
    27d4:	1a 83       	std	Y+2, r17	; 0x02
    27d6:	09 83       	std	Y+1, r16	; 0x01
    27d8:	8f ef       	ldi	r24, 0xFF	; 255
    27da:	9f e7       	ldi	r25, 0x7F	; 127
    27dc:	9e 83       	std	Y+6, r25	; 0x06
    27de:	8d 83       	std	Y+5, r24	; 0x05
    27e0:	ae 01       	movw	r20, r28
    27e2:	47 5e       	subi	r20, 0xE7	; 231
    27e4:	5f 4f       	sbci	r21, 0xFF	; 255
    27e6:	ce 01       	movw	r24, r28
    27e8:	01 96       	adiw	r24, 0x01	; 1
    27ea:	6f 89       	ldd	r22, Y+23	; 0x17
    27ec:	78 8d       	ldd	r23, Y+24	; 0x18
    27ee:	0e 94 02 14 	call	0x2804	; 0x2804 <vfprintf>
    27f2:	ef 81       	ldd	r30, Y+7	; 0x07
    27f4:	f8 85       	ldd	r31, Y+8	; 0x08
    27f6:	e0 0f       	add	r30, r16
    27f8:	f1 1f       	adc	r31, r17
    27fa:	10 82       	st	Z, r1
    27fc:	2e 96       	adiw	r28, 0x0e	; 14
    27fe:	e4 e0       	ldi	r30, 0x04	; 4
    2800:	0c 94 aa 16 	jmp	0x2d54	; 0x2d54 <__epilogue_restores__+0x1c>

00002804 <vfprintf>:
    2804:	ad e0       	ldi	r26, 0x0D	; 13
    2806:	b0 e0       	ldi	r27, 0x00	; 0
    2808:	e8 e0       	ldi	r30, 0x08	; 8
    280a:	f4 e1       	ldi	r31, 0x14	; 20
    280c:	0c 94 80 16 	jmp	0x2d00	; 0x2d00 <__prologue_saves__>
    2810:	3c 01       	movw	r6, r24
    2812:	7d 87       	std	Y+13, r23	; 0x0d
    2814:	6c 87       	std	Y+12, r22	; 0x0c
    2816:	5a 01       	movw	r10, r20
    2818:	fc 01       	movw	r30, r24
    281a:	17 82       	std	Z+7, r1	; 0x07
    281c:	16 82       	std	Z+6, r1	; 0x06
    281e:	83 81       	ldd	r24, Z+3	; 0x03
    2820:	81 ff       	sbrs	r24, 1
    2822:	c8 c1       	rjmp	.+912    	; 0x2bb4 <vfprintf+0x3b0>
    2824:	2e 01       	movw	r4, r28
    2826:	08 94       	sec
    2828:	41 1c       	adc	r4, r1
    282a:	51 1c       	adc	r5, r1
    282c:	f3 01       	movw	r30, r6
    282e:	93 81       	ldd	r25, Z+3	; 0x03
    2830:	ec 85       	ldd	r30, Y+12	; 0x0c
    2832:	fd 85       	ldd	r31, Y+13	; 0x0d
    2834:	93 fd       	sbrc	r25, 3
    2836:	85 91       	lpm	r24, Z+
    2838:	93 ff       	sbrs	r25, 3
    283a:	81 91       	ld	r24, Z+
    283c:	fd 87       	std	Y+13, r31	; 0x0d
    283e:	ec 87       	std	Y+12, r30	; 0x0c
    2840:	88 23       	and	r24, r24
    2842:	09 f4       	brne	.+2      	; 0x2846 <vfprintf+0x42>
    2844:	b3 c1       	rjmp	.+870    	; 0x2bac <vfprintf+0x3a8>
    2846:	85 32       	cpi	r24, 0x25	; 37
    2848:	41 f4       	brne	.+16     	; 0x285a <vfprintf+0x56>
    284a:	93 fd       	sbrc	r25, 3
    284c:	85 91       	lpm	r24, Z+
    284e:	93 ff       	sbrs	r25, 3
    2850:	81 91       	ld	r24, Z+
    2852:	fd 87       	std	Y+13, r31	; 0x0d
    2854:	ec 87       	std	Y+12, r30	; 0x0c
    2856:	85 32       	cpi	r24, 0x25	; 37
    2858:	29 f4       	brne	.+10     	; 0x2864 <vfprintf+0x60>
    285a:	90 e0       	ldi	r25, 0x00	; 0
    285c:	b3 01       	movw	r22, r6
    285e:	0e 94 f6 15 	call	0x2bec	; 0x2bec <fputc>
    2862:	e4 cf       	rjmp	.-56     	; 0x282c <vfprintf+0x28>
    2864:	ff 24       	eor	r15, r15
    2866:	ee 24       	eor	r14, r14
    2868:	10 e0       	ldi	r17, 0x00	; 0
    286a:	10 32       	cpi	r17, 0x20	; 32
    286c:	b0 f4       	brcc	.+44     	; 0x289a <vfprintf+0x96>
    286e:	8b 32       	cpi	r24, 0x2B	; 43
    2870:	69 f0       	breq	.+26     	; 0x288c <vfprintf+0x88>
    2872:	8c 32       	cpi	r24, 0x2C	; 44
    2874:	28 f4       	brcc	.+10     	; 0x2880 <vfprintf+0x7c>
    2876:	80 32       	cpi	r24, 0x20	; 32
    2878:	51 f0       	breq	.+20     	; 0x288e <vfprintf+0x8a>
    287a:	83 32       	cpi	r24, 0x23	; 35
    287c:	71 f4       	brne	.+28     	; 0x289a <vfprintf+0x96>
    287e:	0b c0       	rjmp	.+22     	; 0x2896 <vfprintf+0x92>
    2880:	8d 32       	cpi	r24, 0x2D	; 45
    2882:	39 f0       	breq	.+14     	; 0x2892 <vfprintf+0x8e>
    2884:	80 33       	cpi	r24, 0x30	; 48
    2886:	49 f4       	brne	.+18     	; 0x289a <vfprintf+0x96>
    2888:	11 60       	ori	r17, 0x01	; 1
    288a:	2c c0       	rjmp	.+88     	; 0x28e4 <vfprintf+0xe0>
    288c:	12 60       	ori	r17, 0x02	; 2
    288e:	14 60       	ori	r17, 0x04	; 4
    2890:	29 c0       	rjmp	.+82     	; 0x28e4 <vfprintf+0xe0>
    2892:	18 60       	ori	r17, 0x08	; 8
    2894:	27 c0       	rjmp	.+78     	; 0x28e4 <vfprintf+0xe0>
    2896:	10 61       	ori	r17, 0x10	; 16
    2898:	25 c0       	rjmp	.+74     	; 0x28e4 <vfprintf+0xe0>
    289a:	17 fd       	sbrc	r17, 7
    289c:	2e c0       	rjmp	.+92     	; 0x28fa <vfprintf+0xf6>
    289e:	28 2f       	mov	r18, r24
    28a0:	20 53       	subi	r18, 0x30	; 48
    28a2:	2a 30       	cpi	r18, 0x0A	; 10
    28a4:	98 f4       	brcc	.+38     	; 0x28cc <vfprintf+0xc8>
    28a6:	16 ff       	sbrs	r17, 6
    28a8:	08 c0       	rjmp	.+16     	; 0x28ba <vfprintf+0xb6>
    28aa:	8f 2d       	mov	r24, r15
    28ac:	88 0f       	add	r24, r24
    28ae:	f8 2e       	mov	r15, r24
    28b0:	ff 0c       	add	r15, r15
    28b2:	ff 0c       	add	r15, r15
    28b4:	f8 0e       	add	r15, r24
    28b6:	f2 0e       	add	r15, r18
    28b8:	15 c0       	rjmp	.+42     	; 0x28e4 <vfprintf+0xe0>
    28ba:	8e 2d       	mov	r24, r14
    28bc:	88 0f       	add	r24, r24
    28be:	e8 2e       	mov	r14, r24
    28c0:	ee 0c       	add	r14, r14
    28c2:	ee 0c       	add	r14, r14
    28c4:	e8 0e       	add	r14, r24
    28c6:	e2 0e       	add	r14, r18
    28c8:	10 62       	ori	r17, 0x20	; 32
    28ca:	0c c0       	rjmp	.+24     	; 0x28e4 <vfprintf+0xe0>
    28cc:	8e 32       	cpi	r24, 0x2E	; 46
    28ce:	21 f4       	brne	.+8      	; 0x28d8 <vfprintf+0xd4>
    28d0:	16 fd       	sbrc	r17, 6
    28d2:	6c c1       	rjmp	.+728    	; 0x2bac <vfprintf+0x3a8>
    28d4:	10 64       	ori	r17, 0x40	; 64
    28d6:	06 c0       	rjmp	.+12     	; 0x28e4 <vfprintf+0xe0>
    28d8:	8c 36       	cpi	r24, 0x6C	; 108
    28da:	11 f4       	brne	.+4      	; 0x28e0 <vfprintf+0xdc>
    28dc:	10 68       	ori	r17, 0x80	; 128
    28de:	02 c0       	rjmp	.+4      	; 0x28e4 <vfprintf+0xe0>
    28e0:	88 36       	cpi	r24, 0x68	; 104
    28e2:	59 f4       	brne	.+22     	; 0x28fa <vfprintf+0xf6>
    28e4:	ec 85       	ldd	r30, Y+12	; 0x0c
    28e6:	fd 85       	ldd	r31, Y+13	; 0x0d
    28e8:	93 fd       	sbrc	r25, 3
    28ea:	85 91       	lpm	r24, Z+
    28ec:	93 ff       	sbrs	r25, 3
    28ee:	81 91       	ld	r24, Z+
    28f0:	fd 87       	std	Y+13, r31	; 0x0d
    28f2:	ec 87       	std	Y+12, r30	; 0x0c
    28f4:	88 23       	and	r24, r24
    28f6:	09 f0       	breq	.+2      	; 0x28fa <vfprintf+0xf6>
    28f8:	b8 cf       	rjmp	.-144    	; 0x286a <vfprintf+0x66>
    28fa:	98 2f       	mov	r25, r24
    28fc:	95 54       	subi	r25, 0x45	; 69
    28fe:	93 30       	cpi	r25, 0x03	; 3
    2900:	18 f0       	brcs	.+6      	; 0x2908 <vfprintf+0x104>
    2902:	90 52       	subi	r25, 0x20	; 32
    2904:	93 30       	cpi	r25, 0x03	; 3
    2906:	38 f4       	brcc	.+14     	; 0x2916 <vfprintf+0x112>
    2908:	24 e0       	ldi	r18, 0x04	; 4
    290a:	30 e0       	ldi	r19, 0x00	; 0
    290c:	a2 0e       	add	r10, r18
    290e:	b3 1e       	adc	r11, r19
    2910:	3f e3       	ldi	r19, 0x3F	; 63
    2912:	39 83       	std	Y+1, r19	; 0x01
    2914:	0f c0       	rjmp	.+30     	; 0x2934 <vfprintf+0x130>
    2916:	83 36       	cpi	r24, 0x63	; 99
    2918:	31 f0       	breq	.+12     	; 0x2926 <vfprintf+0x122>
    291a:	83 37       	cpi	r24, 0x73	; 115
    291c:	81 f0       	breq	.+32     	; 0x293e <vfprintf+0x13a>
    291e:	83 35       	cpi	r24, 0x53	; 83
    2920:	09 f0       	breq	.+2      	; 0x2924 <vfprintf+0x120>
    2922:	5a c0       	rjmp	.+180    	; 0x29d8 <vfprintf+0x1d4>
    2924:	22 c0       	rjmp	.+68     	; 0x296a <vfprintf+0x166>
    2926:	f5 01       	movw	r30, r10
    2928:	80 81       	ld	r24, Z
    292a:	89 83       	std	Y+1, r24	; 0x01
    292c:	22 e0       	ldi	r18, 0x02	; 2
    292e:	30 e0       	ldi	r19, 0x00	; 0
    2930:	a2 0e       	add	r10, r18
    2932:	b3 1e       	adc	r11, r19
    2934:	21 e0       	ldi	r18, 0x01	; 1
    2936:	c2 2e       	mov	r12, r18
    2938:	d1 2c       	mov	r13, r1
    293a:	42 01       	movw	r8, r4
    293c:	14 c0       	rjmp	.+40     	; 0x2966 <vfprintf+0x162>
    293e:	92 e0       	ldi	r25, 0x02	; 2
    2940:	29 2e       	mov	r2, r25
    2942:	31 2c       	mov	r3, r1
    2944:	2a 0c       	add	r2, r10
    2946:	3b 1c       	adc	r3, r11
    2948:	f5 01       	movw	r30, r10
    294a:	80 80       	ld	r8, Z
    294c:	91 80       	ldd	r9, Z+1	; 0x01
    294e:	16 ff       	sbrs	r17, 6
    2950:	03 c0       	rjmp	.+6      	; 0x2958 <vfprintf+0x154>
    2952:	6f 2d       	mov	r22, r15
    2954:	70 e0       	ldi	r23, 0x00	; 0
    2956:	02 c0       	rjmp	.+4      	; 0x295c <vfprintf+0x158>
    2958:	6f ef       	ldi	r22, 0xFF	; 255
    295a:	7f ef       	ldi	r23, 0xFF	; 255
    295c:	c4 01       	movw	r24, r8
    295e:	0e 94 eb 15 	call	0x2bd6	; 0x2bd6 <strnlen>
    2962:	6c 01       	movw	r12, r24
    2964:	51 01       	movw	r10, r2
    2966:	1f 77       	andi	r17, 0x7F	; 127
    2968:	15 c0       	rjmp	.+42     	; 0x2994 <vfprintf+0x190>
    296a:	82 e0       	ldi	r24, 0x02	; 2
    296c:	28 2e       	mov	r2, r24
    296e:	31 2c       	mov	r3, r1
    2970:	2a 0c       	add	r2, r10
    2972:	3b 1c       	adc	r3, r11
    2974:	f5 01       	movw	r30, r10
    2976:	80 80       	ld	r8, Z
    2978:	91 80       	ldd	r9, Z+1	; 0x01
    297a:	16 ff       	sbrs	r17, 6
    297c:	03 c0       	rjmp	.+6      	; 0x2984 <vfprintf+0x180>
    297e:	6f 2d       	mov	r22, r15
    2980:	70 e0       	ldi	r23, 0x00	; 0
    2982:	02 c0       	rjmp	.+4      	; 0x2988 <vfprintf+0x184>
    2984:	6f ef       	ldi	r22, 0xFF	; 255
    2986:	7f ef       	ldi	r23, 0xFF	; 255
    2988:	c4 01       	movw	r24, r8
    298a:	0e 94 e0 15 	call	0x2bc0	; 0x2bc0 <strnlen_P>
    298e:	6c 01       	movw	r12, r24
    2990:	10 68       	ori	r17, 0x80	; 128
    2992:	51 01       	movw	r10, r2
    2994:	13 fd       	sbrc	r17, 3
    2996:	1c c0       	rjmp	.+56     	; 0x29d0 <vfprintf+0x1cc>
    2998:	06 c0       	rjmp	.+12     	; 0x29a6 <vfprintf+0x1a2>
    299a:	80 e2       	ldi	r24, 0x20	; 32
    299c:	90 e0       	ldi	r25, 0x00	; 0
    299e:	b3 01       	movw	r22, r6
    29a0:	0e 94 f6 15 	call	0x2bec	; 0x2bec <fputc>
    29a4:	ea 94       	dec	r14
    29a6:	8e 2d       	mov	r24, r14
    29a8:	90 e0       	ldi	r25, 0x00	; 0
    29aa:	c8 16       	cp	r12, r24
    29ac:	d9 06       	cpc	r13, r25
    29ae:	a8 f3       	brcs	.-22     	; 0x299a <vfprintf+0x196>
    29b0:	0f c0       	rjmp	.+30     	; 0x29d0 <vfprintf+0x1cc>
    29b2:	f4 01       	movw	r30, r8
    29b4:	17 fd       	sbrc	r17, 7
    29b6:	85 91       	lpm	r24, Z+
    29b8:	17 ff       	sbrs	r17, 7
    29ba:	81 91       	ld	r24, Z+
    29bc:	4f 01       	movw	r8, r30
    29be:	90 e0       	ldi	r25, 0x00	; 0
    29c0:	b3 01       	movw	r22, r6
    29c2:	0e 94 f6 15 	call	0x2bec	; 0x2bec <fputc>
    29c6:	e1 10       	cpse	r14, r1
    29c8:	ea 94       	dec	r14
    29ca:	08 94       	sec
    29cc:	c1 08       	sbc	r12, r1
    29ce:	d1 08       	sbc	r13, r1
    29d0:	c1 14       	cp	r12, r1
    29d2:	d1 04       	cpc	r13, r1
    29d4:	71 f7       	brne	.-36     	; 0x29b2 <vfprintf+0x1ae>
    29d6:	e7 c0       	rjmp	.+462    	; 0x2ba6 <vfprintf+0x3a2>
    29d8:	84 36       	cpi	r24, 0x64	; 100
    29da:	11 f0       	breq	.+4      	; 0x29e0 <vfprintf+0x1dc>
    29dc:	89 36       	cpi	r24, 0x69	; 105
    29de:	51 f5       	brne	.+84     	; 0x2a34 <vfprintf+0x230>
    29e0:	f5 01       	movw	r30, r10
    29e2:	17 ff       	sbrs	r17, 7
    29e4:	07 c0       	rjmp	.+14     	; 0x29f4 <vfprintf+0x1f0>
    29e6:	80 81       	ld	r24, Z
    29e8:	91 81       	ldd	r25, Z+1	; 0x01
    29ea:	a2 81       	ldd	r26, Z+2	; 0x02
    29ec:	b3 81       	ldd	r27, Z+3	; 0x03
    29ee:	24 e0       	ldi	r18, 0x04	; 4
    29f0:	30 e0       	ldi	r19, 0x00	; 0
    29f2:	08 c0       	rjmp	.+16     	; 0x2a04 <vfprintf+0x200>
    29f4:	80 81       	ld	r24, Z
    29f6:	91 81       	ldd	r25, Z+1	; 0x01
    29f8:	aa 27       	eor	r26, r26
    29fa:	97 fd       	sbrc	r25, 7
    29fc:	a0 95       	com	r26
    29fe:	ba 2f       	mov	r27, r26
    2a00:	22 e0       	ldi	r18, 0x02	; 2
    2a02:	30 e0       	ldi	r19, 0x00	; 0
    2a04:	a2 0e       	add	r10, r18
    2a06:	b3 1e       	adc	r11, r19
    2a08:	01 2f       	mov	r16, r17
    2a0a:	0f 76       	andi	r16, 0x6F	; 111
    2a0c:	b7 ff       	sbrs	r27, 7
    2a0e:	08 c0       	rjmp	.+16     	; 0x2a20 <vfprintf+0x21c>
    2a10:	b0 95       	com	r27
    2a12:	a0 95       	com	r26
    2a14:	90 95       	com	r25
    2a16:	81 95       	neg	r24
    2a18:	9f 4f       	sbci	r25, 0xFF	; 255
    2a1a:	af 4f       	sbci	r26, 0xFF	; 255
    2a1c:	bf 4f       	sbci	r27, 0xFF	; 255
    2a1e:	00 68       	ori	r16, 0x80	; 128
    2a20:	bc 01       	movw	r22, r24
    2a22:	cd 01       	movw	r24, r26
    2a24:	a2 01       	movw	r20, r4
    2a26:	2a e0       	ldi	r18, 0x0A	; 10
    2a28:	30 e0       	ldi	r19, 0x00	; 0
    2a2a:	0e 94 22 16 	call	0x2c44	; 0x2c44 <__ultoa_invert>
    2a2e:	d8 2e       	mov	r13, r24
    2a30:	d4 18       	sub	r13, r4
    2a32:	3f c0       	rjmp	.+126    	; 0x2ab2 <vfprintf+0x2ae>
    2a34:	85 37       	cpi	r24, 0x75	; 117
    2a36:	21 f4       	brne	.+8      	; 0x2a40 <vfprintf+0x23c>
    2a38:	1f 7e       	andi	r17, 0xEF	; 239
    2a3a:	2a e0       	ldi	r18, 0x0A	; 10
    2a3c:	30 e0       	ldi	r19, 0x00	; 0
    2a3e:	20 c0       	rjmp	.+64     	; 0x2a80 <vfprintf+0x27c>
    2a40:	19 7f       	andi	r17, 0xF9	; 249
    2a42:	8f 36       	cpi	r24, 0x6F	; 111
    2a44:	a9 f0       	breq	.+42     	; 0x2a70 <vfprintf+0x26c>
    2a46:	80 37       	cpi	r24, 0x70	; 112
    2a48:	20 f4       	brcc	.+8      	; 0x2a52 <vfprintf+0x24e>
    2a4a:	88 35       	cpi	r24, 0x58	; 88
    2a4c:	09 f0       	breq	.+2      	; 0x2a50 <vfprintf+0x24c>
    2a4e:	ae c0       	rjmp	.+348    	; 0x2bac <vfprintf+0x3a8>
    2a50:	0b c0       	rjmp	.+22     	; 0x2a68 <vfprintf+0x264>
    2a52:	80 37       	cpi	r24, 0x70	; 112
    2a54:	21 f0       	breq	.+8      	; 0x2a5e <vfprintf+0x25a>
    2a56:	88 37       	cpi	r24, 0x78	; 120
    2a58:	09 f0       	breq	.+2      	; 0x2a5c <vfprintf+0x258>
    2a5a:	a8 c0       	rjmp	.+336    	; 0x2bac <vfprintf+0x3a8>
    2a5c:	01 c0       	rjmp	.+2      	; 0x2a60 <vfprintf+0x25c>
    2a5e:	10 61       	ori	r17, 0x10	; 16
    2a60:	14 ff       	sbrs	r17, 4
    2a62:	09 c0       	rjmp	.+18     	; 0x2a76 <vfprintf+0x272>
    2a64:	14 60       	ori	r17, 0x04	; 4
    2a66:	07 c0       	rjmp	.+14     	; 0x2a76 <vfprintf+0x272>
    2a68:	14 ff       	sbrs	r17, 4
    2a6a:	08 c0       	rjmp	.+16     	; 0x2a7c <vfprintf+0x278>
    2a6c:	16 60       	ori	r17, 0x06	; 6
    2a6e:	06 c0       	rjmp	.+12     	; 0x2a7c <vfprintf+0x278>
    2a70:	28 e0       	ldi	r18, 0x08	; 8
    2a72:	30 e0       	ldi	r19, 0x00	; 0
    2a74:	05 c0       	rjmp	.+10     	; 0x2a80 <vfprintf+0x27c>
    2a76:	20 e1       	ldi	r18, 0x10	; 16
    2a78:	30 e0       	ldi	r19, 0x00	; 0
    2a7a:	02 c0       	rjmp	.+4      	; 0x2a80 <vfprintf+0x27c>
    2a7c:	20 e1       	ldi	r18, 0x10	; 16
    2a7e:	32 e0       	ldi	r19, 0x02	; 2
    2a80:	f5 01       	movw	r30, r10
    2a82:	17 ff       	sbrs	r17, 7
    2a84:	07 c0       	rjmp	.+14     	; 0x2a94 <vfprintf+0x290>
    2a86:	60 81       	ld	r22, Z
    2a88:	71 81       	ldd	r23, Z+1	; 0x01
    2a8a:	82 81       	ldd	r24, Z+2	; 0x02
    2a8c:	93 81       	ldd	r25, Z+3	; 0x03
    2a8e:	44 e0       	ldi	r20, 0x04	; 4
    2a90:	50 e0       	ldi	r21, 0x00	; 0
    2a92:	06 c0       	rjmp	.+12     	; 0x2aa0 <vfprintf+0x29c>
    2a94:	60 81       	ld	r22, Z
    2a96:	71 81       	ldd	r23, Z+1	; 0x01
    2a98:	80 e0       	ldi	r24, 0x00	; 0
    2a9a:	90 e0       	ldi	r25, 0x00	; 0
    2a9c:	42 e0       	ldi	r20, 0x02	; 2
    2a9e:	50 e0       	ldi	r21, 0x00	; 0
    2aa0:	a4 0e       	add	r10, r20
    2aa2:	b5 1e       	adc	r11, r21
    2aa4:	a2 01       	movw	r20, r4
    2aa6:	0e 94 22 16 	call	0x2c44	; 0x2c44 <__ultoa_invert>
    2aaa:	d8 2e       	mov	r13, r24
    2aac:	d4 18       	sub	r13, r4
    2aae:	01 2f       	mov	r16, r17
    2ab0:	0f 77       	andi	r16, 0x7F	; 127
    2ab2:	06 ff       	sbrs	r16, 6
    2ab4:	09 c0       	rjmp	.+18     	; 0x2ac8 <vfprintf+0x2c4>
    2ab6:	0e 7f       	andi	r16, 0xFE	; 254
    2ab8:	df 14       	cp	r13, r15
    2aba:	30 f4       	brcc	.+12     	; 0x2ac8 <vfprintf+0x2c4>
    2abc:	04 ff       	sbrs	r16, 4
    2abe:	06 c0       	rjmp	.+12     	; 0x2acc <vfprintf+0x2c8>
    2ac0:	02 fd       	sbrc	r16, 2
    2ac2:	04 c0       	rjmp	.+8      	; 0x2acc <vfprintf+0x2c8>
    2ac4:	0f 7e       	andi	r16, 0xEF	; 239
    2ac6:	02 c0       	rjmp	.+4      	; 0x2acc <vfprintf+0x2c8>
    2ac8:	1d 2d       	mov	r17, r13
    2aca:	01 c0       	rjmp	.+2      	; 0x2ace <vfprintf+0x2ca>
    2acc:	1f 2d       	mov	r17, r15
    2ace:	80 2f       	mov	r24, r16
    2ad0:	90 e0       	ldi	r25, 0x00	; 0
    2ad2:	04 ff       	sbrs	r16, 4
    2ad4:	0c c0       	rjmp	.+24     	; 0x2aee <vfprintf+0x2ea>
    2ad6:	fe 01       	movw	r30, r28
    2ad8:	ed 0d       	add	r30, r13
    2ada:	f1 1d       	adc	r31, r1
    2adc:	20 81       	ld	r18, Z
    2ade:	20 33       	cpi	r18, 0x30	; 48
    2ae0:	11 f4       	brne	.+4      	; 0x2ae6 <vfprintf+0x2e2>
    2ae2:	09 7e       	andi	r16, 0xE9	; 233
    2ae4:	09 c0       	rjmp	.+18     	; 0x2af8 <vfprintf+0x2f4>
    2ae6:	02 ff       	sbrs	r16, 2
    2ae8:	06 c0       	rjmp	.+12     	; 0x2af6 <vfprintf+0x2f2>
    2aea:	1e 5f       	subi	r17, 0xFE	; 254
    2aec:	05 c0       	rjmp	.+10     	; 0x2af8 <vfprintf+0x2f4>
    2aee:	86 78       	andi	r24, 0x86	; 134
    2af0:	90 70       	andi	r25, 0x00	; 0
    2af2:	00 97       	sbiw	r24, 0x00	; 0
    2af4:	09 f0       	breq	.+2      	; 0x2af8 <vfprintf+0x2f4>
    2af6:	1f 5f       	subi	r17, 0xFF	; 255
    2af8:	80 2e       	mov	r8, r16
    2afa:	99 24       	eor	r9, r9
    2afc:	03 fd       	sbrc	r16, 3
    2afe:	12 c0       	rjmp	.+36     	; 0x2b24 <vfprintf+0x320>
    2b00:	00 ff       	sbrs	r16, 0
    2b02:	0d c0       	rjmp	.+26     	; 0x2b1e <vfprintf+0x31a>
    2b04:	fd 2c       	mov	r15, r13
    2b06:	1e 15       	cp	r17, r14
    2b08:	50 f4       	brcc	.+20     	; 0x2b1e <vfprintf+0x31a>
    2b0a:	fe 0c       	add	r15, r14
    2b0c:	f1 1a       	sub	r15, r17
    2b0e:	1e 2d       	mov	r17, r14
    2b10:	06 c0       	rjmp	.+12     	; 0x2b1e <vfprintf+0x31a>
    2b12:	80 e2       	ldi	r24, 0x20	; 32
    2b14:	90 e0       	ldi	r25, 0x00	; 0
    2b16:	b3 01       	movw	r22, r6
    2b18:	0e 94 f6 15 	call	0x2bec	; 0x2bec <fputc>
    2b1c:	1f 5f       	subi	r17, 0xFF	; 255
    2b1e:	1e 15       	cp	r17, r14
    2b20:	c0 f3       	brcs	.-16     	; 0x2b12 <vfprintf+0x30e>
    2b22:	04 c0       	rjmp	.+8      	; 0x2b2c <vfprintf+0x328>
    2b24:	1e 15       	cp	r17, r14
    2b26:	10 f4       	brcc	.+4      	; 0x2b2c <vfprintf+0x328>
    2b28:	e1 1a       	sub	r14, r17
    2b2a:	01 c0       	rjmp	.+2      	; 0x2b2e <vfprintf+0x32a>
    2b2c:	ee 24       	eor	r14, r14
    2b2e:	84 fe       	sbrs	r8, 4
    2b30:	0f c0       	rjmp	.+30     	; 0x2b50 <vfprintf+0x34c>
    2b32:	80 e3       	ldi	r24, 0x30	; 48
    2b34:	90 e0       	ldi	r25, 0x00	; 0
    2b36:	b3 01       	movw	r22, r6
    2b38:	0e 94 f6 15 	call	0x2bec	; 0x2bec <fputc>
    2b3c:	82 fe       	sbrs	r8, 2
    2b3e:	1f c0       	rjmp	.+62     	; 0x2b7e <vfprintf+0x37a>
    2b40:	81 fe       	sbrs	r8, 1
    2b42:	03 c0       	rjmp	.+6      	; 0x2b4a <vfprintf+0x346>
    2b44:	88 e5       	ldi	r24, 0x58	; 88
    2b46:	90 e0       	ldi	r25, 0x00	; 0
    2b48:	10 c0       	rjmp	.+32     	; 0x2b6a <vfprintf+0x366>
    2b4a:	88 e7       	ldi	r24, 0x78	; 120
    2b4c:	90 e0       	ldi	r25, 0x00	; 0
    2b4e:	0d c0       	rjmp	.+26     	; 0x2b6a <vfprintf+0x366>
    2b50:	c4 01       	movw	r24, r8
    2b52:	86 78       	andi	r24, 0x86	; 134
    2b54:	90 70       	andi	r25, 0x00	; 0
    2b56:	00 97       	sbiw	r24, 0x00	; 0
    2b58:	91 f0       	breq	.+36     	; 0x2b7e <vfprintf+0x37a>
    2b5a:	81 fc       	sbrc	r8, 1
    2b5c:	02 c0       	rjmp	.+4      	; 0x2b62 <vfprintf+0x35e>
    2b5e:	80 e2       	ldi	r24, 0x20	; 32
    2b60:	01 c0       	rjmp	.+2      	; 0x2b64 <vfprintf+0x360>
    2b62:	8b e2       	ldi	r24, 0x2B	; 43
    2b64:	07 fd       	sbrc	r16, 7
    2b66:	8d e2       	ldi	r24, 0x2D	; 45
    2b68:	90 e0       	ldi	r25, 0x00	; 0
    2b6a:	b3 01       	movw	r22, r6
    2b6c:	0e 94 f6 15 	call	0x2bec	; 0x2bec <fputc>
    2b70:	06 c0       	rjmp	.+12     	; 0x2b7e <vfprintf+0x37a>
    2b72:	80 e3       	ldi	r24, 0x30	; 48
    2b74:	90 e0       	ldi	r25, 0x00	; 0
    2b76:	b3 01       	movw	r22, r6
    2b78:	0e 94 f6 15 	call	0x2bec	; 0x2bec <fputc>
    2b7c:	fa 94       	dec	r15
    2b7e:	df 14       	cp	r13, r15
    2b80:	c0 f3       	brcs	.-16     	; 0x2b72 <vfprintf+0x36e>
    2b82:	da 94       	dec	r13
    2b84:	f2 01       	movw	r30, r4
    2b86:	ed 0d       	add	r30, r13
    2b88:	f1 1d       	adc	r31, r1
    2b8a:	80 81       	ld	r24, Z
    2b8c:	90 e0       	ldi	r25, 0x00	; 0
    2b8e:	b3 01       	movw	r22, r6
    2b90:	0e 94 f6 15 	call	0x2bec	; 0x2bec <fputc>
    2b94:	dd 20       	and	r13, r13
    2b96:	a9 f7       	brne	.-22     	; 0x2b82 <vfprintf+0x37e>
    2b98:	06 c0       	rjmp	.+12     	; 0x2ba6 <vfprintf+0x3a2>
    2b9a:	80 e2       	ldi	r24, 0x20	; 32
    2b9c:	90 e0       	ldi	r25, 0x00	; 0
    2b9e:	b3 01       	movw	r22, r6
    2ba0:	0e 94 f6 15 	call	0x2bec	; 0x2bec <fputc>
    2ba4:	ea 94       	dec	r14
    2ba6:	ee 20       	and	r14, r14
    2ba8:	c1 f7       	brne	.-16     	; 0x2b9a <vfprintf+0x396>
    2baa:	40 ce       	rjmp	.-896    	; 0x282c <vfprintf+0x28>
    2bac:	f3 01       	movw	r30, r6
    2bae:	86 81       	ldd	r24, Z+6	; 0x06
    2bb0:	97 81       	ldd	r25, Z+7	; 0x07
    2bb2:	02 c0       	rjmp	.+4      	; 0x2bb8 <vfprintf+0x3b4>
    2bb4:	8f ef       	ldi	r24, 0xFF	; 255
    2bb6:	9f ef       	ldi	r25, 0xFF	; 255
    2bb8:	2d 96       	adiw	r28, 0x0d	; 13
    2bba:	e2 e1       	ldi	r30, 0x12	; 18
    2bbc:	0c 94 9c 16 	jmp	0x2d38	; 0x2d38 <__epilogue_restores__>

00002bc0 <strnlen_P>:
    2bc0:	fc 01       	movw	r30, r24
    2bc2:	05 90       	lpm	r0, Z+
    2bc4:	61 50       	subi	r22, 0x01	; 1
    2bc6:	70 40       	sbci	r23, 0x00	; 0
    2bc8:	01 10       	cpse	r0, r1
    2bca:	d8 f7       	brcc	.-10     	; 0x2bc2 <strnlen_P+0x2>
    2bcc:	80 95       	com	r24
    2bce:	90 95       	com	r25
    2bd0:	8e 0f       	add	r24, r30
    2bd2:	9f 1f       	adc	r25, r31
    2bd4:	08 95       	ret

00002bd6 <strnlen>:
    2bd6:	fc 01       	movw	r30, r24
    2bd8:	61 50       	subi	r22, 0x01	; 1
    2bda:	70 40       	sbci	r23, 0x00	; 0
    2bdc:	01 90       	ld	r0, Z+
    2bde:	01 10       	cpse	r0, r1
    2be0:	d8 f7       	brcc	.-10     	; 0x2bd8 <strnlen+0x2>
    2be2:	80 95       	com	r24
    2be4:	90 95       	com	r25
    2be6:	8e 0f       	add	r24, r30
    2be8:	9f 1f       	adc	r25, r31
    2bea:	08 95       	ret

00002bec <fputc>:
    2bec:	0f 93       	push	r16
    2bee:	1f 93       	push	r17
    2bf0:	cf 93       	push	r28
    2bf2:	df 93       	push	r29
    2bf4:	8c 01       	movw	r16, r24
    2bf6:	eb 01       	movw	r28, r22
    2bf8:	8b 81       	ldd	r24, Y+3	; 0x03
    2bfa:	81 ff       	sbrs	r24, 1
    2bfc:	1b c0       	rjmp	.+54     	; 0x2c34 <fputc+0x48>
    2bfe:	82 ff       	sbrs	r24, 2
    2c00:	0d c0       	rjmp	.+26     	; 0x2c1c <fputc+0x30>
    2c02:	2e 81       	ldd	r18, Y+6	; 0x06
    2c04:	3f 81       	ldd	r19, Y+7	; 0x07
    2c06:	8c 81       	ldd	r24, Y+4	; 0x04
    2c08:	9d 81       	ldd	r25, Y+5	; 0x05
    2c0a:	28 17       	cp	r18, r24
    2c0c:	39 07       	cpc	r19, r25
    2c0e:	64 f4       	brge	.+24     	; 0x2c28 <fputc+0x3c>
    2c10:	e8 81       	ld	r30, Y
    2c12:	f9 81       	ldd	r31, Y+1	; 0x01
    2c14:	01 93       	st	Z+, r16
    2c16:	f9 83       	std	Y+1, r31	; 0x01
    2c18:	e8 83       	st	Y, r30
    2c1a:	06 c0       	rjmp	.+12     	; 0x2c28 <fputc+0x3c>
    2c1c:	e8 85       	ldd	r30, Y+8	; 0x08
    2c1e:	f9 85       	ldd	r31, Y+9	; 0x09
    2c20:	80 2f       	mov	r24, r16
    2c22:	09 95       	icall
    2c24:	00 97       	sbiw	r24, 0x00	; 0
    2c26:	31 f4       	brne	.+12     	; 0x2c34 <fputc+0x48>
    2c28:	8e 81       	ldd	r24, Y+6	; 0x06
    2c2a:	9f 81       	ldd	r25, Y+7	; 0x07
    2c2c:	01 96       	adiw	r24, 0x01	; 1
    2c2e:	9f 83       	std	Y+7, r25	; 0x07
    2c30:	8e 83       	std	Y+6, r24	; 0x06
    2c32:	02 c0       	rjmp	.+4      	; 0x2c38 <fputc+0x4c>
    2c34:	0f ef       	ldi	r16, 0xFF	; 255
    2c36:	1f ef       	ldi	r17, 0xFF	; 255
    2c38:	c8 01       	movw	r24, r16
    2c3a:	df 91       	pop	r29
    2c3c:	cf 91       	pop	r28
    2c3e:	1f 91       	pop	r17
    2c40:	0f 91       	pop	r16
    2c42:	08 95       	ret

00002c44 <__ultoa_invert>:
    2c44:	fa 01       	movw	r30, r20
    2c46:	aa 27       	eor	r26, r26
    2c48:	28 30       	cpi	r18, 0x08	; 8
    2c4a:	51 f1       	breq	.+84     	; 0x2ca0 <__ultoa_invert+0x5c>
    2c4c:	20 31       	cpi	r18, 0x10	; 16
    2c4e:	81 f1       	breq	.+96     	; 0x2cb0 <__ultoa_invert+0x6c>
    2c50:	e8 94       	clt
    2c52:	6f 93       	push	r22
    2c54:	6e 7f       	andi	r22, 0xFE	; 254
    2c56:	6e 5f       	subi	r22, 0xFE	; 254
    2c58:	7f 4f       	sbci	r23, 0xFF	; 255
    2c5a:	8f 4f       	sbci	r24, 0xFF	; 255
    2c5c:	9f 4f       	sbci	r25, 0xFF	; 255
    2c5e:	af 4f       	sbci	r26, 0xFF	; 255
    2c60:	b1 e0       	ldi	r27, 0x01	; 1
    2c62:	3e d0       	rcall	.+124    	; 0x2ce0 <__ultoa_invert+0x9c>
    2c64:	b4 e0       	ldi	r27, 0x04	; 4
    2c66:	3c d0       	rcall	.+120    	; 0x2ce0 <__ultoa_invert+0x9c>
    2c68:	67 0f       	add	r22, r23
    2c6a:	78 1f       	adc	r23, r24
    2c6c:	89 1f       	adc	r24, r25
    2c6e:	9a 1f       	adc	r25, r26
    2c70:	a1 1d       	adc	r26, r1
    2c72:	68 0f       	add	r22, r24
    2c74:	79 1f       	adc	r23, r25
    2c76:	8a 1f       	adc	r24, r26
    2c78:	91 1d       	adc	r25, r1
    2c7a:	a1 1d       	adc	r26, r1
    2c7c:	6a 0f       	add	r22, r26
    2c7e:	71 1d       	adc	r23, r1
    2c80:	81 1d       	adc	r24, r1
    2c82:	91 1d       	adc	r25, r1
    2c84:	a1 1d       	adc	r26, r1
    2c86:	20 d0       	rcall	.+64     	; 0x2cc8 <__ultoa_invert+0x84>
    2c88:	09 f4       	brne	.+2      	; 0x2c8c <__ultoa_invert+0x48>
    2c8a:	68 94       	set
    2c8c:	3f 91       	pop	r19
    2c8e:	2a e0       	ldi	r18, 0x0A	; 10
    2c90:	26 9f       	mul	r18, r22
    2c92:	11 24       	eor	r1, r1
    2c94:	30 19       	sub	r19, r0
    2c96:	30 5d       	subi	r19, 0xD0	; 208
    2c98:	31 93       	st	Z+, r19
    2c9a:	de f6       	brtc	.-74     	; 0x2c52 <__ultoa_invert+0xe>
    2c9c:	cf 01       	movw	r24, r30
    2c9e:	08 95       	ret
    2ca0:	46 2f       	mov	r20, r22
    2ca2:	47 70       	andi	r20, 0x07	; 7
    2ca4:	40 5d       	subi	r20, 0xD0	; 208
    2ca6:	41 93       	st	Z+, r20
    2ca8:	b3 e0       	ldi	r27, 0x03	; 3
    2caa:	0f d0       	rcall	.+30     	; 0x2cca <__ultoa_invert+0x86>
    2cac:	c9 f7       	brne	.-14     	; 0x2ca0 <__ultoa_invert+0x5c>
    2cae:	f6 cf       	rjmp	.-20     	; 0x2c9c <__ultoa_invert+0x58>
    2cb0:	46 2f       	mov	r20, r22
    2cb2:	4f 70       	andi	r20, 0x0F	; 15
    2cb4:	40 5d       	subi	r20, 0xD0	; 208
    2cb6:	4a 33       	cpi	r20, 0x3A	; 58
    2cb8:	18 f0       	brcs	.+6      	; 0x2cc0 <__ultoa_invert+0x7c>
    2cba:	49 5d       	subi	r20, 0xD9	; 217
    2cbc:	31 fd       	sbrc	r19, 1
    2cbe:	40 52       	subi	r20, 0x20	; 32
    2cc0:	41 93       	st	Z+, r20
    2cc2:	02 d0       	rcall	.+4      	; 0x2cc8 <__ultoa_invert+0x84>
    2cc4:	a9 f7       	brne	.-22     	; 0x2cb0 <__ultoa_invert+0x6c>
    2cc6:	ea cf       	rjmp	.-44     	; 0x2c9c <__ultoa_invert+0x58>
    2cc8:	b4 e0       	ldi	r27, 0x04	; 4
    2cca:	a6 95       	lsr	r26
    2ccc:	97 95       	ror	r25
    2cce:	87 95       	ror	r24
    2cd0:	77 95       	ror	r23
    2cd2:	67 95       	ror	r22
    2cd4:	ba 95       	dec	r27
    2cd6:	c9 f7       	brne	.-14     	; 0x2cca <__ultoa_invert+0x86>
    2cd8:	00 97       	sbiw	r24, 0x00	; 0
    2cda:	61 05       	cpc	r22, r1
    2cdc:	71 05       	cpc	r23, r1
    2cde:	08 95       	ret
    2ce0:	9b 01       	movw	r18, r22
    2ce2:	ac 01       	movw	r20, r24
    2ce4:	0a 2e       	mov	r0, r26
    2ce6:	06 94       	lsr	r0
    2ce8:	57 95       	ror	r21
    2cea:	47 95       	ror	r20
    2cec:	37 95       	ror	r19
    2cee:	27 95       	ror	r18
    2cf0:	ba 95       	dec	r27
    2cf2:	c9 f7       	brne	.-14     	; 0x2ce6 <__ultoa_invert+0xa2>
    2cf4:	62 0f       	add	r22, r18
    2cf6:	73 1f       	adc	r23, r19
    2cf8:	84 1f       	adc	r24, r20
    2cfa:	95 1f       	adc	r25, r21
    2cfc:	a0 1d       	adc	r26, r0
    2cfe:	08 95       	ret

00002d00 <__prologue_saves__>:
    2d00:	2f 92       	push	r2
    2d02:	3f 92       	push	r3
    2d04:	4f 92       	push	r4
    2d06:	5f 92       	push	r5
    2d08:	6f 92       	push	r6
    2d0a:	7f 92       	push	r7
    2d0c:	8f 92       	push	r8
    2d0e:	9f 92       	push	r9
    2d10:	af 92       	push	r10
    2d12:	bf 92       	push	r11
    2d14:	cf 92       	push	r12
    2d16:	df 92       	push	r13
    2d18:	ef 92       	push	r14
    2d1a:	ff 92       	push	r15
    2d1c:	0f 93       	push	r16
    2d1e:	1f 93       	push	r17
    2d20:	cf 93       	push	r28
    2d22:	df 93       	push	r29
    2d24:	cd b7       	in	r28, 0x3d	; 61
    2d26:	de b7       	in	r29, 0x3e	; 62
    2d28:	ca 1b       	sub	r28, r26
    2d2a:	db 0b       	sbc	r29, r27
    2d2c:	0f b6       	in	r0, 0x3f	; 63
    2d2e:	f8 94       	cli
    2d30:	de bf       	out	0x3e, r29	; 62
    2d32:	0f be       	out	0x3f, r0	; 63
    2d34:	cd bf       	out	0x3d, r28	; 61
    2d36:	09 94       	ijmp

00002d38 <__epilogue_restores__>:
    2d38:	2a 88       	ldd	r2, Y+18	; 0x12
    2d3a:	39 88       	ldd	r3, Y+17	; 0x11
    2d3c:	48 88       	ldd	r4, Y+16	; 0x10
    2d3e:	5f 84       	ldd	r5, Y+15	; 0x0f
    2d40:	6e 84       	ldd	r6, Y+14	; 0x0e
    2d42:	7d 84       	ldd	r7, Y+13	; 0x0d
    2d44:	8c 84       	ldd	r8, Y+12	; 0x0c
    2d46:	9b 84       	ldd	r9, Y+11	; 0x0b
    2d48:	aa 84       	ldd	r10, Y+10	; 0x0a
    2d4a:	b9 84       	ldd	r11, Y+9	; 0x09
    2d4c:	c8 84       	ldd	r12, Y+8	; 0x08
    2d4e:	df 80       	ldd	r13, Y+7	; 0x07
    2d50:	ee 80       	ldd	r14, Y+6	; 0x06
    2d52:	fd 80       	ldd	r15, Y+5	; 0x05
    2d54:	0c 81       	ldd	r16, Y+4	; 0x04
    2d56:	1b 81       	ldd	r17, Y+3	; 0x03
    2d58:	aa 81       	ldd	r26, Y+2	; 0x02
    2d5a:	b9 81       	ldd	r27, Y+1	; 0x01
    2d5c:	ce 0f       	add	r28, r30
    2d5e:	d1 1d       	adc	r29, r1
    2d60:	0f b6       	in	r0, 0x3f	; 63
    2d62:	f8 94       	cli
    2d64:	de bf       	out	0x3e, r29	; 62
    2d66:	0f be       	out	0x3f, r0	; 63
    2d68:	cd bf       	out	0x3d, r28	; 61
    2d6a:	ed 01       	movw	r28, r26
    2d6c:	08 95       	ret

00002d6e <_exit>:
    2d6e:	f8 94       	cli

00002d70 <__stop_program>:
    2d70:	ff cf       	rjmp	.-2      	; 0x2d70 <__stop_program>
