
driver.elf:     file format elf32-avr

Sections:
Idx Name          Size      VMA       LMA       File off  Algn
  0 .text         000021c8  00000000  00000000  00000094  2**1
                  CONTENTS, ALLOC, LOAD, READONLY, CODE
  1 .data         0000003e  00800060  000021c8  0000225c  2**0
                  CONTENTS, ALLOC, LOAD, DATA
  2 .bss          0000001e  0080009e  0080009e  0000229a  2**0
                  ALLOC
  3 .stab         00002994  00000000  00000000  0000229c  2**2
                  CONTENTS, READONLY, DEBUGGING
  4 .stabstr      0000089b  00000000  00000000  00004c30  2**0
                  CONTENTS, READONLY, DEBUGGING
  5 .debug_aranges 00000160  00000000  00000000  000054d0  2**3
                  CONTENTS, READONLY, DEBUGGING
  6 .debug_info   00000d48  00000000  00000000  00005630  2**0
                  CONTENTS, READONLY, DEBUGGING
  7 .debug_abbrev 000003d7  00000000  00000000  00006378  2**0
                  CONTENTS, READONLY, DEBUGGING
  8 .debug_line   0000098d  00000000  00000000  0000674f  2**0
                  CONTENTS, READONLY, DEBUGGING
  9 .debug_frame  000000b4  00000000  00000000  000070dc  2**2
                  CONTENTS, READONLY, DEBUGGING
 10 .debug_str    000001da  00000000  00000000  00007190  2**0
                  CONTENTS, READONLY, DEBUGGING
 11 .debug_loc    000005b5  00000000  00000000  0000736a  2**0
                  CONTENTS, READONLY, DEBUGGING
 12 .debug_ranges 00000030  00000000  00000000  0000791f  2**0
                  CONTENTS, READONLY, DEBUGGING

Disassembly of section .text:

00000000 <__vectors>:
       0:	0c 94 2a 00 	jmp	0x54	; 0x54 <__ctors_end>
       4:	0c 94 47 00 	jmp	0x8e	; 0x8e <__bad_interrupt>
       8:	0c 94 47 00 	jmp	0x8e	; 0x8e <__bad_interrupt>
       c:	0c 94 47 00 	jmp	0x8e	; 0x8e <__bad_interrupt>
      10:	0c 94 74 09 	jmp	0x12e8	; 0x12e8 <__vector_4>
      14:	0c 94 9b 09 	jmp	0x1336	; 0x1336 <__vector_5>
      18:	0c 94 47 00 	jmp	0x8e	; 0x8e <__bad_interrupt>
      1c:	0c 94 47 00 	jmp	0x8e	; 0x8e <__bad_interrupt>
      20:	0c 94 47 00 	jmp	0x8e	; 0x8e <__bad_interrupt>
      24:	0c 94 47 00 	jmp	0x8e	; 0x8e <__bad_interrupt>
      28:	0c 94 a0 08 	jmp	0x1140	; 0x1140 <__vector_10>
      2c:	0c 94 c7 08 	jmp	0x118e	; 0x118e <__vector_11>
      30:	0c 94 47 00 	jmp	0x8e	; 0x8e <__bad_interrupt>
      34:	0c 94 47 00 	jmp	0x8e	; 0x8e <__bad_interrupt>
      38:	0c 94 47 00 	jmp	0x8e	; 0x8e <__bad_interrupt>
      3c:	0c 94 47 00 	jmp	0x8e	; 0x8e <__bad_interrupt>
      40:	0c 94 47 00 	jmp	0x8e	; 0x8e <__bad_interrupt>
      44:	0c 94 47 00 	jmp	0x8e	; 0x8e <__bad_interrupt>
      48:	0c 94 47 00 	jmp	0x8e	; 0x8e <__bad_interrupt>
      4c:	0c 94 47 00 	jmp	0x8e	; 0x8e <__bad_interrupt>
      50:	0c 94 47 00 	jmp	0x8e	; 0x8e <__bad_interrupt>

00000054 <__ctors_end>:
      54:	11 24       	eor	r1, r1
      56:	1f be       	out	0x3f, r1	; 63
      58:	cf e5       	ldi	r28, 0x5F	; 95
      5a:	d8 e0       	ldi	r29, 0x08	; 8
      5c:	de bf       	out	0x3e, r29	; 62
      5e:	cd bf       	out	0x3d, r28	; 61

00000060 <__do_copy_data>:
      60:	10 e0       	ldi	r17, 0x00	; 0
      62:	a0 e6       	ldi	r26, 0x60	; 96
      64:	b0 e0       	ldi	r27, 0x00	; 0
      66:	e8 ec       	ldi	r30, 0xC8	; 200
      68:	f1 e2       	ldi	r31, 0x21	; 33
      6a:	02 c0       	rjmp	.+4      	; 0x70 <__do_copy_data+0x10>
      6c:	05 90       	lpm	r0, Z+
      6e:	0d 92       	st	X+, r0
      70:	ae 39       	cpi	r26, 0x9E	; 158
      72:	b1 07       	cpc	r27, r17
      74:	d9 f7       	brne	.-10     	; 0x6c <__do_copy_data+0xc>

00000076 <__do_clear_bss>:
      76:	10 e0       	ldi	r17, 0x00	; 0
      78:	ae e9       	ldi	r26, 0x9E	; 158
      7a:	b0 e0       	ldi	r27, 0x00	; 0
      7c:	01 c0       	rjmp	.+2      	; 0x80 <.do_clear_bss_start>

0000007e <.do_clear_bss_loop>:
      7e:	1d 92       	st	X+, r1

00000080 <.do_clear_bss_start>:
      80:	ac 3b       	cpi	r26, 0xBC	; 188
      82:	b1 07       	cpc	r27, r17
      84:	e1 f7       	brne	.-8      	; 0x7e <.do_clear_bss_loop>
      86:	0e 94 5c 0b 	call	0x16b8	; 0x16b8 <main>
      8a:	0c 94 e2 10 	jmp	0x21c4	; 0x21c4 <_exit>

0000008e <__bad_interrupt>:
      8e:	0c 94 00 00 	jmp	0	; 0x0 <__vectors>

00000092 <ADC_vInit>:
      92:	3e 9a       	sbi	0x07, 6	; 7
      94:	3f 9a       	sbi	0x07, 7	; 7
      96:	37 9a       	sbi	0x06, 7	; 6
      98:	32 9a       	sbi	0x06, 2	; 6
      9a:	31 9a       	sbi	0x06, 1	; 6
      9c:	30 98       	cbi	0x06, 0	; 6
      9e:	08 95       	ret

000000a0 <ADC_u16Read_Single_Endded>:
      a0:	97 b1       	in	r25, 0x07	; 7
      a2:	90 7e       	andi	r25, 0xE0	; 224
      a4:	97 b9       	out	0x07, r25	; 7
      a6:	97 b1       	in	r25, 0x07	; 7
      a8:	87 70       	andi	r24, 0x07	; 7
      aa:	89 2b       	or	r24, r25
      ac:	87 b9       	out	0x07, r24	; 7
      ae:	36 9a       	sbi	0x06, 6	; 6
      b0:	34 9b       	sbis	0x06, 4	; 6
      b2:	fe cf       	rjmp	.-4      	; 0xb0 <ADC_u16Read_Single_Endded+0x10>
      b4:	34 9a       	sbi	0x06, 4	; 6
      b6:	84 b1       	in	r24, 0x04	; 4
      b8:	90 e0       	ldi	r25, 0x00	; 0
      ba:	45 b1       	in	r20, 0x05	; 5
      bc:	34 2f       	mov	r19, r20
      be:	20 e0       	ldi	r18, 0x00	; 0
      c0:	82 2b       	or	r24, r18
      c2:	93 2b       	or	r25, r19
      c4:	08 95       	ret

000000c6 <button_vInit>:
      c6:	40 e0       	ldi	r20, 0x00	; 0
      c8:	0e 94 7c 00 	call	0xf8	; 0xf8 <GPIO_vsetPIN_DIR>
      cc:	08 95       	ret

000000ce <button_u8read>:
      ce:	0e 94 3a 01 	call	0x274	; 0x274 <GPIO_u8read_PIN>
      d2:	08 95       	ret

000000d4 <EEPROM_Write>:
      d4:	8e bb       	out	0x1e, r24	; 30
      d6:	9f bb       	out	0x1f, r25	; 31
      d8:	6d bb       	out	0x1d, r22	; 29
      da:	e2 9a       	sbi	0x1c, 2	; 28
      dc:	e1 9a       	sbi	0x1c, 1	; 28
      de:	e1 99       	sbic	0x1c, 1	; 28
      e0:	fe cf       	rjmp	.-4      	; 0xde <EEPROM_Write+0xa>
      e2:	08 95       	ret

000000e4 <EEPROM_Read>:
      e4:	8e bb       	out	0x1e, r24	; 30
      e6:	9f bb       	out	0x1f, r25	; 31
      e8:	e0 9a       	sbi	0x1c, 0	; 28
      ea:	8d b3       	in	r24, 0x1d	; 29
      ec:	08 95       	ret

000000ee <GPIO_voidInit>:
      ee:	1a ba       	out	0x1a, r1	; 26
      f0:	17 ba       	out	0x17, r1	; 23
      f2:	14 ba       	out	0x14, r1	; 20
      f4:	11 ba       	out	0x11, r1	; 17
      f6:	08 95       	ret

000000f8 <GPIO_vsetPIN_DIR>:
      f8:	84 34       	cpi	r24, 0x44	; 68
      fa:	09 f4       	brne	.+2      	; 0xfe <GPIO_vsetPIN_DIR+0x6>
      fc:	4b c0       	rjmp	.+150    	; 0x194 <GPIO_vsetPIN_DIR+0x9c>
      fe:	85 34       	cpi	r24, 0x45	; 69
     100:	40 f4       	brcc	.+16     	; 0x112 <GPIO_vsetPIN_DIR+0x1a>
     102:	82 34       	cpi	r24, 0x42	; 66
     104:	29 f1       	breq	.+74     	; 0x150 <GPIO_vsetPIN_DIR+0x58>
     106:	83 34       	cpi	r24, 0x43	; 67
     108:	a0 f5       	brcc	.+104    	; 0x172 <GPIO_vsetPIN_DIR+0x7a>
     10a:	81 34       	cpi	r24, 0x41	; 65
     10c:	09 f0       	breq	.+2      	; 0x110 <GPIO_vsetPIN_DIR+0x18>
     10e:	52 c0       	rjmp	.+164    	; 0x1b4 <GPIO_vsetPIN_DIR+0xbc>
     110:	0e c0       	rjmp	.+28     	; 0x12e <GPIO_vsetPIN_DIR+0x36>
     112:	82 36       	cpi	r24, 0x62	; 98
     114:	e9 f0       	breq	.+58     	; 0x150 <GPIO_vsetPIN_DIR+0x58>
     116:	83 36       	cpi	r24, 0x63	; 99
     118:	20 f4       	brcc	.+8      	; 0x122 <GPIO_vsetPIN_DIR+0x2a>
     11a:	81 36       	cpi	r24, 0x61	; 97
     11c:	09 f0       	breq	.+2      	; 0x120 <GPIO_vsetPIN_DIR+0x28>
     11e:	4a c0       	rjmp	.+148    	; 0x1b4 <GPIO_vsetPIN_DIR+0xbc>
     120:	06 c0       	rjmp	.+12     	; 0x12e <GPIO_vsetPIN_DIR+0x36>
     122:	83 36       	cpi	r24, 0x63	; 99
     124:	31 f1       	breq	.+76     	; 0x172 <GPIO_vsetPIN_DIR+0x7a>
     126:	84 36       	cpi	r24, 0x64	; 100
     128:	09 f0       	breq	.+2      	; 0x12c <GPIO_vsetPIN_DIR+0x34>
     12a:	44 c0       	rjmp	.+136    	; 0x1b4 <GPIO_vsetPIN_DIR+0xbc>
     12c:	33 c0       	rjmp	.+102    	; 0x194 <GPIO_vsetPIN_DIR+0x9c>
     12e:	2a b3       	in	r18, 0x1a	; 26
     130:	81 e0       	ldi	r24, 0x01	; 1
     132:	90 e0       	ldi	r25, 0x00	; 0
     134:	02 c0       	rjmp	.+4      	; 0x13a <GPIO_vsetPIN_DIR+0x42>
     136:	88 0f       	add	r24, r24
     138:	99 1f       	adc	r25, r25
     13a:	6a 95       	dec	r22
     13c:	e2 f7       	brpl	.-8      	; 0x136 <GPIO_vsetPIN_DIR+0x3e>
     13e:	41 30       	cpi	r20, 0x01	; 1
     140:	19 f4       	brne	.+6      	; 0x148 <GPIO_vsetPIN_DIR+0x50>
     142:	28 2b       	or	r18, r24
     144:	2a bb       	out	0x1a, r18	; 26
     146:	08 95       	ret
     148:	80 95       	com	r24
     14a:	82 23       	and	r24, r18
     14c:	8a bb       	out	0x1a, r24	; 26
     14e:	08 95       	ret
     150:	27 b3       	in	r18, 0x17	; 23
     152:	81 e0       	ldi	r24, 0x01	; 1
     154:	90 e0       	ldi	r25, 0x00	; 0
     156:	02 c0       	rjmp	.+4      	; 0x15c <GPIO_vsetPIN_DIR+0x64>
     158:	88 0f       	add	r24, r24
     15a:	99 1f       	adc	r25, r25
     15c:	6a 95       	dec	r22
     15e:	e2 f7       	brpl	.-8      	; 0x158 <GPIO_vsetPIN_DIR+0x60>
     160:	41 30       	cpi	r20, 0x01	; 1
     162:	19 f4       	brne	.+6      	; 0x16a <GPIO_vsetPIN_DIR+0x72>
     164:	28 2b       	or	r18, r24
     166:	27 bb       	out	0x17, r18	; 23
     168:	08 95       	ret
     16a:	80 95       	com	r24
     16c:	82 23       	and	r24, r18
     16e:	87 bb       	out	0x17, r24	; 23
     170:	08 95       	ret
     172:	24 b3       	in	r18, 0x14	; 20
     174:	81 e0       	ldi	r24, 0x01	; 1
     176:	90 e0       	ldi	r25, 0x00	; 0
     178:	02 c0       	rjmp	.+4      	; 0x17e <GPIO_vsetPIN_DIR+0x86>
     17a:	88 0f       	add	r24, r24
     17c:	99 1f       	adc	r25, r25
     17e:	6a 95       	dec	r22
     180:	e2 f7       	brpl	.-8      	; 0x17a <GPIO_vsetPIN_DIR+0x82>
     182:	41 30       	cpi	r20, 0x01	; 1
     184:	19 f4       	brne	.+6      	; 0x18c <GPIO_vsetPIN_DIR+0x94>
     186:	28 2b       	or	r18, r24
     188:	24 bb       	out	0x14, r18	; 20
     18a:	08 95       	ret
     18c:	80 95       	com	r24
     18e:	82 23       	and	r24, r18
     190:	84 bb       	out	0x14, r24	; 20
     192:	08 95       	ret
     194:	21 b3       	in	r18, 0x11	; 17
     196:	81 e0       	ldi	r24, 0x01	; 1
     198:	90 e0       	ldi	r25, 0x00	; 0
     19a:	02 c0       	rjmp	.+4      	; 0x1a0 <GPIO_vsetPIN_DIR+0xa8>
     19c:	88 0f       	add	r24, r24
     19e:	99 1f       	adc	r25, r25
     1a0:	6a 95       	dec	r22
     1a2:	e2 f7       	brpl	.-8      	; 0x19c <GPIO_vsetPIN_DIR+0xa4>
     1a4:	41 30       	cpi	r20, 0x01	; 1
     1a6:	19 f4       	brne	.+6      	; 0x1ae <GPIO_vsetPIN_DIR+0xb6>
     1a8:	28 2b       	or	r18, r24
     1aa:	21 bb       	out	0x11, r18	; 17
     1ac:	08 95       	ret
     1ae:	80 95       	com	r24
     1b0:	82 23       	and	r24, r18
     1b2:	81 bb       	out	0x11, r24	; 17
     1b4:	08 95       	ret

000001b6 <GPIO_vwrite_PIN>:
     1b6:	84 34       	cpi	r24, 0x44	; 68
     1b8:	09 f4       	brne	.+2      	; 0x1bc <GPIO_vwrite_PIN+0x6>
     1ba:	4b c0       	rjmp	.+150    	; 0x252 <GPIO_vwrite_PIN+0x9c>
     1bc:	85 34       	cpi	r24, 0x45	; 69
     1be:	40 f4       	brcc	.+16     	; 0x1d0 <GPIO_vwrite_PIN+0x1a>
     1c0:	82 34       	cpi	r24, 0x42	; 66
     1c2:	29 f1       	breq	.+74     	; 0x20e <GPIO_vwrite_PIN+0x58>
     1c4:	83 34       	cpi	r24, 0x43	; 67
     1c6:	a0 f5       	brcc	.+104    	; 0x230 <GPIO_vwrite_PIN+0x7a>
     1c8:	81 34       	cpi	r24, 0x41	; 65
     1ca:	09 f0       	breq	.+2      	; 0x1ce <GPIO_vwrite_PIN+0x18>
     1cc:	52 c0       	rjmp	.+164    	; 0x272 <GPIO_vwrite_PIN+0xbc>
     1ce:	0e c0       	rjmp	.+28     	; 0x1ec <GPIO_vwrite_PIN+0x36>
     1d0:	82 36       	cpi	r24, 0x62	; 98
     1d2:	e9 f0       	breq	.+58     	; 0x20e <GPIO_vwrite_PIN+0x58>
     1d4:	83 36       	cpi	r24, 0x63	; 99
     1d6:	20 f4       	brcc	.+8      	; 0x1e0 <GPIO_vwrite_PIN+0x2a>
     1d8:	81 36       	cpi	r24, 0x61	; 97
     1da:	09 f0       	breq	.+2      	; 0x1de <GPIO_vwrite_PIN+0x28>
     1dc:	4a c0       	rjmp	.+148    	; 0x272 <GPIO_vwrite_PIN+0xbc>
     1de:	06 c0       	rjmp	.+12     	; 0x1ec <GPIO_vwrite_PIN+0x36>
     1e0:	83 36       	cpi	r24, 0x63	; 99
     1e2:	31 f1       	breq	.+76     	; 0x230 <GPIO_vwrite_PIN+0x7a>
     1e4:	84 36       	cpi	r24, 0x64	; 100
     1e6:	09 f0       	breq	.+2      	; 0x1ea <GPIO_vwrite_PIN+0x34>
     1e8:	44 c0       	rjmp	.+136    	; 0x272 <GPIO_vwrite_PIN+0xbc>
     1ea:	33 c0       	rjmp	.+102    	; 0x252 <GPIO_vwrite_PIN+0x9c>
     1ec:	2b b3       	in	r18, 0x1b	; 27
     1ee:	81 e0       	ldi	r24, 0x01	; 1
     1f0:	90 e0       	ldi	r25, 0x00	; 0
     1f2:	02 c0       	rjmp	.+4      	; 0x1f8 <GPIO_vwrite_PIN+0x42>
     1f4:	88 0f       	add	r24, r24
     1f6:	99 1f       	adc	r25, r25
     1f8:	6a 95       	dec	r22
     1fa:	e2 f7       	brpl	.-8      	; 0x1f4 <GPIO_vwrite_PIN+0x3e>
     1fc:	41 30       	cpi	r20, 0x01	; 1
     1fe:	19 f4       	brne	.+6      	; 0x206 <GPIO_vwrite_PIN+0x50>
     200:	28 2b       	or	r18, r24
     202:	2b bb       	out	0x1b, r18	; 27
     204:	08 95       	ret
     206:	80 95       	com	r24
     208:	82 23       	and	r24, r18
     20a:	8b bb       	out	0x1b, r24	; 27
     20c:	08 95       	ret
     20e:	28 b3       	in	r18, 0x18	; 24
     210:	81 e0       	ldi	r24, 0x01	; 1
     212:	90 e0       	ldi	r25, 0x00	; 0
     214:	02 c0       	rjmp	.+4      	; 0x21a <GPIO_vwrite_PIN+0x64>
     216:	88 0f       	add	r24, r24
     218:	99 1f       	adc	r25, r25
     21a:	6a 95       	dec	r22
     21c:	e2 f7       	brpl	.-8      	; 0x216 <GPIO_vwrite_PIN+0x60>
     21e:	41 30       	cpi	r20, 0x01	; 1
     220:	19 f4       	brne	.+6      	; 0x228 <GPIO_vwrite_PIN+0x72>
     222:	28 2b       	or	r18, r24
     224:	28 bb       	out	0x18, r18	; 24
     226:	08 95       	ret
     228:	80 95       	com	r24
     22a:	82 23       	and	r24, r18
     22c:	88 bb       	out	0x18, r24	; 24
     22e:	08 95       	ret
     230:	25 b3       	in	r18, 0x15	; 21
     232:	81 e0       	ldi	r24, 0x01	; 1
     234:	90 e0       	ldi	r25, 0x00	; 0
     236:	02 c0       	rjmp	.+4      	; 0x23c <GPIO_vwrite_PIN+0x86>
     238:	88 0f       	add	r24, r24
     23a:	99 1f       	adc	r25, r25
     23c:	6a 95       	dec	r22
     23e:	e2 f7       	brpl	.-8      	; 0x238 <GPIO_vwrite_PIN+0x82>
     240:	41 30       	cpi	r20, 0x01	; 1
     242:	19 f4       	brne	.+6      	; 0x24a <GPIO_vwrite_PIN+0x94>
     244:	28 2b       	or	r18, r24
     246:	25 bb       	out	0x15, r18	; 21
     248:	08 95       	ret
     24a:	80 95       	com	r24
     24c:	82 23       	and	r24, r18
     24e:	85 bb       	out	0x15, r24	; 21
     250:	08 95       	ret
     252:	22 b3       	in	r18, 0x12	; 18
     254:	81 e0       	ldi	r24, 0x01	; 1
     256:	90 e0       	ldi	r25, 0x00	; 0
     258:	02 c0       	rjmp	.+4      	; 0x25e <GPIO_vwrite_PIN+0xa8>
     25a:	88 0f       	add	r24, r24
     25c:	99 1f       	adc	r25, r25
     25e:	6a 95       	dec	r22
     260:	e2 f7       	brpl	.-8      	; 0x25a <GPIO_vwrite_PIN+0xa4>
     262:	41 30       	cpi	r20, 0x01	; 1
     264:	19 f4       	brne	.+6      	; 0x26c <GPIO_vwrite_PIN+0xb6>
     266:	28 2b       	or	r18, r24
     268:	22 bb       	out	0x12, r18	; 18
     26a:	08 95       	ret
     26c:	80 95       	com	r24
     26e:	82 23       	and	r24, r18
     270:	82 bb       	out	0x12, r24	; 18
     272:	08 95       	ret

00000274 <GPIO_u8read_PIN>:
     274:	84 34       	cpi	r24, 0x44	; 68
     276:	d9 f0       	breq	.+54     	; 0x2ae <GPIO_u8read_PIN+0x3a>
     278:	85 34       	cpi	r24, 0x45	; 69
     27a:	38 f4       	brcc	.+14     	; 0x28a <GPIO_u8read_PIN+0x16>
     27c:	82 34       	cpi	r24, 0x42	; 66
     27e:	99 f0       	breq	.+38     	; 0x2a6 <GPIO_u8read_PIN+0x32>
     280:	83 34       	cpi	r24, 0x43	; 67
     282:	98 f4       	brcc	.+38     	; 0x2aa <GPIO_u8read_PIN+0x36>
     284:	81 34       	cpi	r24, 0x41	; 65
     286:	29 f5       	brne	.+74     	; 0x2d2 <GPIO_u8read_PIN+0x5e>
     288:	0c c0       	rjmp	.+24     	; 0x2a2 <GPIO_u8read_PIN+0x2e>
     28a:	82 36       	cpi	r24, 0x62	; 98
     28c:	61 f0       	breq	.+24     	; 0x2a6 <GPIO_u8read_PIN+0x32>
     28e:	83 36       	cpi	r24, 0x63	; 99
     290:	18 f4       	brcc	.+6      	; 0x298 <GPIO_u8read_PIN+0x24>
     292:	81 36       	cpi	r24, 0x61	; 97
     294:	f1 f4       	brne	.+60     	; 0x2d2 <GPIO_u8read_PIN+0x5e>
     296:	05 c0       	rjmp	.+10     	; 0x2a2 <GPIO_u8read_PIN+0x2e>
     298:	83 36       	cpi	r24, 0x63	; 99
     29a:	39 f0       	breq	.+14     	; 0x2aa <GPIO_u8read_PIN+0x36>
     29c:	84 36       	cpi	r24, 0x64	; 100
     29e:	c9 f4       	brne	.+50     	; 0x2d2 <GPIO_u8read_PIN+0x5e>
     2a0:	06 c0       	rjmp	.+12     	; 0x2ae <GPIO_u8read_PIN+0x3a>
     2a2:	29 b3       	in	r18, 0x19	; 25
     2a4:	05 c0       	rjmp	.+10     	; 0x2b0 <GPIO_u8read_PIN+0x3c>
     2a6:	26 b3       	in	r18, 0x16	; 22
     2a8:	03 c0       	rjmp	.+6      	; 0x2b0 <GPIO_u8read_PIN+0x3c>
     2aa:	23 b3       	in	r18, 0x13	; 19
     2ac:	01 c0       	rjmp	.+2      	; 0x2b0 <GPIO_u8read_PIN+0x3c>
     2ae:	20 b3       	in	r18, 0x10	; 16
     2b0:	81 e0       	ldi	r24, 0x01	; 1
     2b2:	90 e0       	ldi	r25, 0x00	; 0
     2b4:	06 2e       	mov	r0, r22
     2b6:	02 c0       	rjmp	.+4      	; 0x2bc <GPIO_u8read_PIN+0x48>
     2b8:	88 0f       	add	r24, r24
     2ba:	99 1f       	adc	r25, r25
     2bc:	0a 94       	dec	r0
     2be:	e2 f7       	brpl	.-8      	; 0x2b8 <GPIO_u8read_PIN+0x44>
     2c0:	30 e0       	ldi	r19, 0x00	; 0
     2c2:	82 23       	and	r24, r18
     2c4:	93 23       	and	r25, r19
     2c6:	02 c0       	rjmp	.+4      	; 0x2cc <GPIO_u8read_PIN+0x58>
     2c8:	95 95       	asr	r25
     2ca:	87 95       	ror	r24
     2cc:	6a 95       	dec	r22
     2ce:	e2 f7       	brpl	.-8      	; 0x2c8 <GPIO_u8read_PIN+0x54>
     2d0:	08 95       	ret
     2d2:	80 e0       	ldi	r24, 0x00	; 0
     2d4:	08 95       	ret

000002d6 <GPIO_vtoggle_PIN>:
     2d6:	84 34       	cpi	r24, 0x44	; 68
     2d8:	b1 f1       	breq	.+108    	; 0x346 <GPIO_vtoggle_PIN+0x70>
     2da:	85 34       	cpi	r24, 0x45	; 69
     2dc:	38 f4       	brcc	.+14     	; 0x2ec <GPIO_vtoggle_PIN+0x16>
     2de:	82 34       	cpi	r24, 0x42	; 66
     2e0:	e1 f0       	breq	.+56     	; 0x31a <GPIO_vtoggle_PIN+0x44>
     2e2:	83 34       	cpi	r24, 0x43	; 67
     2e4:	28 f5       	brcc	.+74     	; 0x330 <GPIO_vtoggle_PIN+0x5a>
     2e6:	81 34       	cpi	r24, 0x41	; 65
     2e8:	c1 f5       	brne	.+112    	; 0x35a <GPIO_vtoggle_PIN+0x84>
     2ea:	0c c0       	rjmp	.+24     	; 0x304 <GPIO_vtoggle_PIN+0x2e>
     2ec:	82 36       	cpi	r24, 0x62	; 98
     2ee:	a9 f0       	breq	.+42     	; 0x31a <GPIO_vtoggle_PIN+0x44>
     2f0:	83 36       	cpi	r24, 0x63	; 99
     2f2:	18 f4       	brcc	.+6      	; 0x2fa <GPIO_vtoggle_PIN+0x24>
     2f4:	81 36       	cpi	r24, 0x61	; 97
     2f6:	89 f5       	brne	.+98     	; 0x35a <GPIO_vtoggle_PIN+0x84>
     2f8:	05 c0       	rjmp	.+10     	; 0x304 <GPIO_vtoggle_PIN+0x2e>
     2fa:	83 36       	cpi	r24, 0x63	; 99
     2fc:	c9 f0       	breq	.+50     	; 0x330 <GPIO_vtoggle_PIN+0x5a>
     2fe:	84 36       	cpi	r24, 0x64	; 100
     300:	61 f5       	brne	.+88     	; 0x35a <GPIO_vtoggle_PIN+0x84>
     302:	21 c0       	rjmp	.+66     	; 0x346 <GPIO_vtoggle_PIN+0x70>
     304:	2b b3       	in	r18, 0x1b	; 27
     306:	81 e0       	ldi	r24, 0x01	; 1
     308:	90 e0       	ldi	r25, 0x00	; 0
     30a:	02 c0       	rjmp	.+4      	; 0x310 <GPIO_vtoggle_PIN+0x3a>
     30c:	88 0f       	add	r24, r24
     30e:	99 1f       	adc	r25, r25
     310:	6a 95       	dec	r22
     312:	e2 f7       	brpl	.-8      	; 0x30c <GPIO_vtoggle_PIN+0x36>
     314:	28 27       	eor	r18, r24
     316:	2b bb       	out	0x1b, r18	; 27
     318:	08 95       	ret
     31a:	28 b3       	in	r18, 0x18	; 24
     31c:	81 e0       	ldi	r24, 0x01	; 1
     31e:	90 e0       	ldi	r25, 0x00	; 0
     320:	02 c0       	rjmp	.+4      	; 0x326 <GPIO_vtoggle_PIN+0x50>
     322:	88 0f       	add	r24, r24
     324:	99 1f       	adc	r25, r25
     326:	6a 95       	dec	r22
     328:	e2 f7       	brpl	.-8      	; 0x322 <GPIO_vtoggle_PIN+0x4c>
     32a:	28 27       	eor	r18, r24
     32c:	28 bb       	out	0x18, r18	; 24
     32e:	08 95       	ret
     330:	25 b3       	in	r18, 0x15	; 21
     332:	81 e0       	ldi	r24, 0x01	; 1
     334:	90 e0       	ldi	r25, 0x00	; 0
     336:	02 c0       	rjmp	.+4      	; 0x33c <GPIO_vtoggle_PIN+0x66>
     338:	88 0f       	add	r24, r24
     33a:	99 1f       	adc	r25, r25
     33c:	6a 95       	dec	r22
     33e:	e2 f7       	brpl	.-8      	; 0x338 <GPIO_vtoggle_PIN+0x62>
     340:	28 27       	eor	r18, r24
     342:	25 bb       	out	0x15, r18	; 21
     344:	08 95       	ret
     346:	22 b3       	in	r18, 0x12	; 18
     348:	81 e0       	ldi	r24, 0x01	; 1
     34a:	90 e0       	ldi	r25, 0x00	; 0
     34c:	02 c0       	rjmp	.+4      	; 0x352 <GPIO_vtoggle_PIN+0x7c>
     34e:	88 0f       	add	r24, r24
     350:	99 1f       	adc	r25, r25
     352:	6a 95       	dec	r22
     354:	e2 f7       	brpl	.-8      	; 0x34e <GPIO_vtoggle_PIN+0x78>
     356:	28 27       	eor	r18, r24
     358:	22 bb       	out	0x12, r18	; 18
     35a:	08 95       	ret

0000035c <GPIO_vconnectpullup>:
     35c:	84 34       	cpi	r24, 0x44	; 68
     35e:	09 f4       	brne	.+2      	; 0x362 <GPIO_vconnectpullup+0x6>
     360:	4b c0       	rjmp	.+150    	; 0x3f8 <GPIO_vconnectpullup+0x9c>
     362:	85 34       	cpi	r24, 0x45	; 69
     364:	40 f4       	brcc	.+16     	; 0x376 <GPIO_vconnectpullup+0x1a>
     366:	82 34       	cpi	r24, 0x42	; 66
     368:	29 f1       	breq	.+74     	; 0x3b4 <GPIO_vconnectpullup+0x58>
     36a:	83 34       	cpi	r24, 0x43	; 67
     36c:	a0 f5       	brcc	.+104    	; 0x3d6 <GPIO_vconnectpullup+0x7a>
     36e:	81 34       	cpi	r24, 0x41	; 65
     370:	09 f0       	breq	.+2      	; 0x374 <GPIO_vconnectpullup+0x18>
     372:	55 c0       	rjmp	.+170    	; 0x41e <GPIO_vconnectpullup+0xc2>
     374:	0e c0       	rjmp	.+28     	; 0x392 <GPIO_vconnectpullup+0x36>
     376:	82 36       	cpi	r24, 0x62	; 98
     378:	e9 f0       	breq	.+58     	; 0x3b4 <GPIO_vconnectpullup+0x58>
     37a:	83 36       	cpi	r24, 0x63	; 99
     37c:	20 f4       	brcc	.+8      	; 0x386 <GPIO_vconnectpullup+0x2a>
     37e:	81 36       	cpi	r24, 0x61	; 97
     380:	09 f0       	breq	.+2      	; 0x384 <GPIO_vconnectpullup+0x28>
     382:	4d c0       	rjmp	.+154    	; 0x41e <GPIO_vconnectpullup+0xc2>
     384:	06 c0       	rjmp	.+12     	; 0x392 <GPIO_vconnectpullup+0x36>
     386:	83 36       	cpi	r24, 0x63	; 99
     388:	31 f1       	breq	.+76     	; 0x3d6 <GPIO_vconnectpullup+0x7a>
     38a:	84 36       	cpi	r24, 0x64	; 100
     38c:	09 f0       	breq	.+2      	; 0x390 <GPIO_vconnectpullup+0x34>
     38e:	47 c0       	rjmp	.+142    	; 0x41e <GPIO_vconnectpullup+0xc2>
     390:	33 c0       	rjmp	.+102    	; 0x3f8 <GPIO_vconnectpullup+0x9c>
     392:	2b b3       	in	r18, 0x1b	; 27
     394:	81 e0       	ldi	r24, 0x01	; 1
     396:	90 e0       	ldi	r25, 0x00	; 0
     398:	02 c0       	rjmp	.+4      	; 0x39e <GPIO_vconnectpullup+0x42>
     39a:	88 0f       	add	r24, r24
     39c:	99 1f       	adc	r25, r25
     39e:	6a 95       	dec	r22
     3a0:	e2 f7       	brpl	.-8      	; 0x39a <GPIO_vconnectpullup+0x3e>
     3a2:	41 30       	cpi	r20, 0x01	; 1
     3a4:	19 f4       	brne	.+6      	; 0x3ac <GPIO_vconnectpullup+0x50>
     3a6:	28 2b       	or	r18, r24
     3a8:	2b bb       	out	0x1b, r18	; 27
     3aa:	32 c0       	rjmp	.+100    	; 0x410 <GPIO_vconnectpullup+0xb4>
     3ac:	80 95       	com	r24
     3ae:	82 23       	and	r24, r18
     3b0:	8b bb       	out	0x1b, r24	; 27
     3b2:	08 95       	ret
     3b4:	28 b3       	in	r18, 0x18	; 24
     3b6:	81 e0       	ldi	r24, 0x01	; 1
     3b8:	90 e0       	ldi	r25, 0x00	; 0
     3ba:	02 c0       	rjmp	.+4      	; 0x3c0 <GPIO_vconnectpullup+0x64>
     3bc:	88 0f       	add	r24, r24
     3be:	99 1f       	adc	r25, r25
     3c0:	6a 95       	dec	r22
     3c2:	e2 f7       	brpl	.-8      	; 0x3bc <GPIO_vconnectpullup+0x60>
     3c4:	41 30       	cpi	r20, 0x01	; 1
     3c6:	19 f4       	brne	.+6      	; 0x3ce <GPIO_vconnectpullup+0x72>
     3c8:	28 2b       	or	r18, r24
     3ca:	28 bb       	out	0x18, r18	; 24
     3cc:	21 c0       	rjmp	.+66     	; 0x410 <GPIO_vconnectpullup+0xb4>
     3ce:	80 95       	com	r24
     3d0:	82 23       	and	r24, r18
     3d2:	88 bb       	out	0x18, r24	; 24
     3d4:	08 95       	ret
     3d6:	25 b3       	in	r18, 0x15	; 21
     3d8:	81 e0       	ldi	r24, 0x01	; 1
     3da:	90 e0       	ldi	r25, 0x00	; 0
     3dc:	02 c0       	rjmp	.+4      	; 0x3e2 <GPIO_vconnectpullup+0x86>
     3de:	88 0f       	add	r24, r24
     3e0:	99 1f       	adc	r25, r25
     3e2:	6a 95       	dec	r22
     3e4:	e2 f7       	brpl	.-8      	; 0x3de <GPIO_vconnectpullup+0x82>
     3e6:	41 30       	cpi	r20, 0x01	; 1
     3e8:	19 f4       	brne	.+6      	; 0x3f0 <GPIO_vconnectpullup+0x94>
     3ea:	28 2b       	or	r18, r24
     3ec:	25 bb       	out	0x15, r18	; 21
     3ee:	10 c0       	rjmp	.+32     	; 0x410 <GPIO_vconnectpullup+0xb4>
     3f0:	80 95       	com	r24
     3f2:	82 23       	and	r24, r18
     3f4:	85 bb       	out	0x15, r24	; 21
     3f6:	08 95       	ret
     3f8:	22 b3       	in	r18, 0x12	; 18
     3fa:	81 e0       	ldi	r24, 0x01	; 1
     3fc:	90 e0       	ldi	r25, 0x00	; 0
     3fe:	02 c0       	rjmp	.+4      	; 0x404 <GPIO_vconnectpullup+0xa8>
     400:	88 0f       	add	r24, r24
     402:	99 1f       	adc	r25, r25
     404:	6a 95       	dec	r22
     406:	e2 f7       	brpl	.-8      	; 0x400 <GPIO_vconnectpullup+0xa4>
     408:	41 30       	cpi	r20, 0x01	; 1
     40a:	31 f4       	brne	.+12     	; 0x418 <GPIO_vconnectpullup+0xbc>
     40c:	28 2b       	or	r18, r24
     40e:	22 bb       	out	0x12, r18	; 18
     410:	80 b7       	in	r24, 0x30	; 48
     412:	8b 7f       	andi	r24, 0xFB	; 251
     414:	80 bf       	out	0x30, r24	; 48
     416:	08 95       	ret
     418:	80 95       	com	r24
     41a:	82 23       	and	r24, r18
     41c:	82 bb       	out	0x12, r24	; 18
     41e:	08 95       	ret

00000420 <GPIO_vset_PORT_DIR>:
     420:	84 34       	cpi	r24, 0x44	; 68
     422:	d9 f0       	breq	.+54     	; 0x45a <GPIO_vset_PORT_DIR+0x3a>
     424:	85 34       	cpi	r24, 0x45	; 69
     426:	38 f4       	brcc	.+14     	; 0x436 <GPIO_vset_PORT_DIR+0x16>
     428:	82 34       	cpi	r24, 0x42	; 66
     42a:	99 f0       	breq	.+38     	; 0x452 <GPIO_vset_PORT_DIR+0x32>
     42c:	83 34       	cpi	r24, 0x43	; 67
     42e:	98 f4       	brcc	.+38     	; 0x456 <GPIO_vset_PORT_DIR+0x36>
     430:	81 34       	cpi	r24, 0x41	; 65
     432:	a1 f4       	brne	.+40     	; 0x45c <GPIO_vset_PORT_DIR+0x3c>
     434:	0c c0       	rjmp	.+24     	; 0x44e <GPIO_vset_PORT_DIR+0x2e>
     436:	82 36       	cpi	r24, 0x62	; 98
     438:	61 f0       	breq	.+24     	; 0x452 <GPIO_vset_PORT_DIR+0x32>
     43a:	83 36       	cpi	r24, 0x63	; 99
     43c:	18 f4       	brcc	.+6      	; 0x444 <GPIO_vset_PORT_DIR+0x24>
     43e:	81 36       	cpi	r24, 0x61	; 97
     440:	69 f4       	brne	.+26     	; 0x45c <GPIO_vset_PORT_DIR+0x3c>
     442:	05 c0       	rjmp	.+10     	; 0x44e <GPIO_vset_PORT_DIR+0x2e>
     444:	83 36       	cpi	r24, 0x63	; 99
     446:	39 f0       	breq	.+14     	; 0x456 <GPIO_vset_PORT_DIR+0x36>
     448:	84 36       	cpi	r24, 0x64	; 100
     44a:	41 f4       	brne	.+16     	; 0x45c <GPIO_vset_PORT_DIR+0x3c>
     44c:	06 c0       	rjmp	.+12     	; 0x45a <GPIO_vset_PORT_DIR+0x3a>
     44e:	6a bb       	out	0x1a, r22	; 26
     450:	08 95       	ret
     452:	67 bb       	out	0x17, r22	; 23
     454:	08 95       	ret
     456:	64 bb       	out	0x14, r22	; 20
     458:	08 95       	ret
     45a:	61 bb       	out	0x11, r22	; 17
     45c:	08 95       	ret

0000045e <GPIO_vwrite_PORT>:
     45e:	84 34       	cpi	r24, 0x44	; 68
     460:	d9 f0       	breq	.+54     	; 0x498 <GPIO_vwrite_PORT+0x3a>
     462:	85 34       	cpi	r24, 0x45	; 69
     464:	38 f4       	brcc	.+14     	; 0x474 <GPIO_vwrite_PORT+0x16>
     466:	82 34       	cpi	r24, 0x42	; 66
     468:	99 f0       	breq	.+38     	; 0x490 <GPIO_vwrite_PORT+0x32>
     46a:	83 34       	cpi	r24, 0x43	; 67
     46c:	98 f4       	brcc	.+38     	; 0x494 <GPIO_vwrite_PORT+0x36>
     46e:	81 34       	cpi	r24, 0x41	; 65
     470:	a1 f4       	brne	.+40     	; 0x49a <GPIO_vwrite_PORT+0x3c>
     472:	0c c0       	rjmp	.+24     	; 0x48c <GPIO_vwrite_PORT+0x2e>
     474:	82 36       	cpi	r24, 0x62	; 98
     476:	61 f0       	breq	.+24     	; 0x490 <GPIO_vwrite_PORT+0x32>
     478:	83 36       	cpi	r24, 0x63	; 99
     47a:	18 f4       	brcc	.+6      	; 0x482 <GPIO_vwrite_PORT+0x24>
     47c:	81 36       	cpi	r24, 0x61	; 97
     47e:	69 f4       	brne	.+26     	; 0x49a <GPIO_vwrite_PORT+0x3c>
     480:	05 c0       	rjmp	.+10     	; 0x48c <GPIO_vwrite_PORT+0x2e>
     482:	83 36       	cpi	r24, 0x63	; 99
     484:	39 f0       	breq	.+14     	; 0x494 <GPIO_vwrite_PORT+0x36>
     486:	84 36       	cpi	r24, 0x64	; 100
     488:	41 f4       	brne	.+16     	; 0x49a <GPIO_vwrite_PORT+0x3c>
     48a:	06 c0       	rjmp	.+12     	; 0x498 <GPIO_vwrite_PORT+0x3a>
     48c:	6b bb       	out	0x1b, r22	; 27
     48e:	08 95       	ret
     490:	68 bb       	out	0x18, r22	; 24
     492:	08 95       	ret
     494:	65 bb       	out	0x15, r22	; 21
     496:	08 95       	ret
     498:	62 bb       	out	0x12, r22	; 18
     49a:	08 95       	ret

0000049c <GPIO_vtoggle_PORT>:
     49c:	84 34       	cpi	r24, 0x44	; 68
     49e:	09 f1       	breq	.+66     	; 0x4e2 <GPIO_vtoggle_PORT+0x46>
     4a0:	85 34       	cpi	r24, 0x45	; 69
     4a2:	38 f4       	brcc	.+14     	; 0x4b2 <GPIO_vtoggle_PORT+0x16>
     4a4:	82 34       	cpi	r24, 0x42	; 66
     4a6:	a9 f0       	breq	.+42     	; 0x4d2 <GPIO_vtoggle_PORT+0x36>
     4a8:	83 34       	cpi	r24, 0x43	; 67
     4aa:	b8 f4       	brcc	.+46     	; 0x4da <GPIO_vtoggle_PORT+0x3e>
     4ac:	81 34       	cpi	r24, 0x41	; 65
     4ae:	e1 f4       	brne	.+56     	; 0x4e8 <GPIO_vtoggle_PORT+0x4c>
     4b0:	0c c0       	rjmp	.+24     	; 0x4ca <GPIO_vtoggle_PORT+0x2e>
     4b2:	82 36       	cpi	r24, 0x62	; 98
     4b4:	71 f0       	breq	.+28     	; 0x4d2 <GPIO_vtoggle_PORT+0x36>
     4b6:	83 36       	cpi	r24, 0x63	; 99
     4b8:	18 f4       	brcc	.+6      	; 0x4c0 <GPIO_vtoggle_PORT+0x24>
     4ba:	81 36       	cpi	r24, 0x61	; 97
     4bc:	a9 f4       	brne	.+42     	; 0x4e8 <GPIO_vtoggle_PORT+0x4c>
     4be:	05 c0       	rjmp	.+10     	; 0x4ca <GPIO_vtoggle_PORT+0x2e>
     4c0:	83 36       	cpi	r24, 0x63	; 99
     4c2:	59 f0       	breq	.+22     	; 0x4da <GPIO_vtoggle_PORT+0x3e>
     4c4:	84 36       	cpi	r24, 0x64	; 100
     4c6:	81 f4       	brne	.+32     	; 0x4e8 <GPIO_vtoggle_PORT+0x4c>
     4c8:	0c c0       	rjmp	.+24     	; 0x4e2 <GPIO_vtoggle_PORT+0x46>
     4ca:	8b b3       	in	r24, 0x1b	; 27
     4cc:	80 95       	com	r24
     4ce:	8b bb       	out	0x1b, r24	; 27
     4d0:	08 95       	ret
     4d2:	88 b3       	in	r24, 0x18	; 24
     4d4:	80 95       	com	r24
     4d6:	88 bb       	out	0x18, r24	; 24
     4d8:	08 95       	ret
     4da:	85 b3       	in	r24, 0x15	; 21
     4dc:	80 95       	com	r24
     4de:	85 bb       	out	0x15, r24	; 21
     4e0:	08 95       	ret
     4e2:	82 b3       	in	r24, 0x12	; 18
     4e4:	80 95       	com	r24
     4e6:	82 bb       	out	0x12, r24	; 18
     4e8:	08 95       	ret

000004ea <GPIO_read_PORT>:
     4ea:	cf 93       	push	r28
     4ec:	df 93       	push	r29
     4ee:	0f 92       	push	r0
     4f0:	cd b7       	in	r28, 0x3d	; 61
     4f2:	de b7       	in	r29, 0x3e	; 62
     4f4:	19 82       	std	Y+1, r1	; 0x01
     4f6:	84 34       	cpi	r24, 0x44	; 68
     4f8:	d9 f0       	breq	.+54     	; 0x530 <GPIO_read_PORT+0x46>
     4fa:	85 34       	cpi	r24, 0x45	; 69
     4fc:	38 f4       	brcc	.+14     	; 0x50c <GPIO_read_PORT+0x22>
     4fe:	82 34       	cpi	r24, 0x42	; 66
     500:	99 f0       	breq	.+38     	; 0x528 <GPIO_read_PORT+0x3e>
     502:	83 34       	cpi	r24, 0x43	; 67
     504:	98 f4       	brcc	.+38     	; 0x52c <GPIO_read_PORT+0x42>
     506:	81 34       	cpi	r24, 0x41	; 65
     508:	a9 f4       	brne	.+42     	; 0x534 <GPIO_read_PORT+0x4a>
     50a:	0c c0       	rjmp	.+24     	; 0x524 <GPIO_read_PORT+0x3a>
     50c:	82 36       	cpi	r24, 0x62	; 98
     50e:	61 f0       	breq	.+24     	; 0x528 <GPIO_read_PORT+0x3e>
     510:	83 36       	cpi	r24, 0x63	; 99
     512:	18 f4       	brcc	.+6      	; 0x51a <GPIO_read_PORT+0x30>
     514:	81 36       	cpi	r24, 0x61	; 97
     516:	71 f4       	brne	.+28     	; 0x534 <GPIO_read_PORT+0x4a>
     518:	05 c0       	rjmp	.+10     	; 0x524 <GPIO_read_PORT+0x3a>
     51a:	83 36       	cpi	r24, 0x63	; 99
     51c:	39 f0       	breq	.+14     	; 0x52c <GPIO_read_PORT+0x42>
     51e:	84 36       	cpi	r24, 0x64	; 100
     520:	49 f4       	brne	.+18     	; 0x534 <GPIO_read_PORT+0x4a>
     522:	06 c0       	rjmp	.+12     	; 0x530 <GPIO_read_PORT+0x46>
     524:	89 b3       	in	r24, 0x19	; 25
     526:	05 c0       	rjmp	.+10     	; 0x532 <GPIO_read_PORT+0x48>
     528:	86 b3       	in	r24, 0x16	; 22
     52a:	03 c0       	rjmp	.+6      	; 0x532 <GPIO_read_PORT+0x48>
     52c:	83 b3       	in	r24, 0x13	; 19
     52e:	01 c0       	rjmp	.+2      	; 0x532 <GPIO_read_PORT+0x48>
     530:	80 b3       	in	r24, 0x10	; 16
     532:	89 83       	std	Y+1, r24	; 0x01
     534:	0f 90       	pop	r0
     536:	df 91       	pop	r29
     538:	cf 91       	pop	r28
     53a:	08 95       	ret

0000053c <GPIO_High_Nibble_vset_dir>:
     53c:	cf 93       	push	r28
     53e:	c8 2f       	mov	r28, r24
     540:	61 30       	cpi	r22, 0x01	; 1
     542:	91 f4       	brne	.+36     	; 0x568 <GPIO_High_Nibble_vset_dir+0x2c>
     544:	64 e0       	ldi	r22, 0x04	; 4
     546:	41 e0       	ldi	r20, 0x01	; 1
     548:	0e 94 7c 00 	call	0xf8	; 0xf8 <GPIO_vsetPIN_DIR>
     54c:	8c 2f       	mov	r24, r28
     54e:	65 e0       	ldi	r22, 0x05	; 5
     550:	41 e0       	ldi	r20, 0x01	; 1
     552:	0e 94 7c 00 	call	0xf8	; 0xf8 <GPIO_vsetPIN_DIR>
     556:	8c 2f       	mov	r24, r28
     558:	66 e0       	ldi	r22, 0x06	; 6
     55a:	41 e0       	ldi	r20, 0x01	; 1
     55c:	0e 94 7c 00 	call	0xf8	; 0xf8 <GPIO_vsetPIN_DIR>
     560:	8c 2f       	mov	r24, r28
     562:	67 e0       	ldi	r22, 0x07	; 7
     564:	41 e0       	ldi	r20, 0x01	; 1
     566:	11 c0       	rjmp	.+34     	; 0x58a <GPIO_High_Nibble_vset_dir+0x4e>
     568:	64 e0       	ldi	r22, 0x04	; 4
     56a:	40 e0       	ldi	r20, 0x00	; 0
     56c:	0e 94 7c 00 	call	0xf8	; 0xf8 <GPIO_vsetPIN_DIR>
     570:	8c 2f       	mov	r24, r28
     572:	65 e0       	ldi	r22, 0x05	; 5
     574:	40 e0       	ldi	r20, 0x00	; 0
     576:	0e 94 7c 00 	call	0xf8	; 0xf8 <GPIO_vsetPIN_DIR>
     57a:	8c 2f       	mov	r24, r28
     57c:	66 e0       	ldi	r22, 0x06	; 6
     57e:	40 e0       	ldi	r20, 0x00	; 0
     580:	0e 94 7c 00 	call	0xf8	; 0xf8 <GPIO_vsetPIN_DIR>
     584:	8c 2f       	mov	r24, r28
     586:	67 e0       	ldi	r22, 0x07	; 7
     588:	40 e0       	ldi	r20, 0x00	; 0
     58a:	0e 94 7c 00 	call	0xf8	; 0xf8 <GPIO_vsetPIN_DIR>
     58e:	cf 91       	pop	r28
     590:	08 95       	ret

00000592 <GPIO_High_Nibble_vwrite>:
     592:	62 95       	swap	r22
     594:	60 7f       	andi	r22, 0xF0	; 240
     596:	84 34       	cpi	r24, 0x44	; 68
     598:	51 f1       	breq	.+84     	; 0x5ee <GPIO_High_Nibble_vwrite+0x5c>
     59a:	85 34       	cpi	r24, 0x45	; 69
     59c:	38 f4       	brcc	.+14     	; 0x5ac <GPIO_High_Nibble_vwrite+0x1a>
     59e:	82 34       	cpi	r24, 0x42	; 66
     5a0:	c1 f0       	breq	.+48     	; 0x5d2 <GPIO_High_Nibble_vwrite+0x40>
     5a2:	83 34       	cpi	r24, 0x43	; 67
     5a4:	e8 f4       	brcc	.+58     	; 0x5e0 <GPIO_High_Nibble_vwrite+0x4e>
     5a6:	81 34       	cpi	r24, 0x41	; 65
     5a8:	41 f5       	brne	.+80     	; 0x5fa <GPIO_High_Nibble_vwrite+0x68>
     5aa:	0c c0       	rjmp	.+24     	; 0x5c4 <GPIO_High_Nibble_vwrite+0x32>
     5ac:	82 36       	cpi	r24, 0x62	; 98
     5ae:	89 f0       	breq	.+34     	; 0x5d2 <GPIO_High_Nibble_vwrite+0x40>
     5b0:	83 36       	cpi	r24, 0x63	; 99
     5b2:	18 f4       	brcc	.+6      	; 0x5ba <GPIO_High_Nibble_vwrite+0x28>
     5b4:	81 36       	cpi	r24, 0x61	; 97
     5b6:	09 f5       	brne	.+66     	; 0x5fa <GPIO_High_Nibble_vwrite+0x68>
     5b8:	05 c0       	rjmp	.+10     	; 0x5c4 <GPIO_High_Nibble_vwrite+0x32>
     5ba:	83 36       	cpi	r24, 0x63	; 99
     5bc:	89 f0       	breq	.+34     	; 0x5e0 <GPIO_High_Nibble_vwrite+0x4e>
     5be:	84 36       	cpi	r24, 0x64	; 100
     5c0:	e1 f4       	brne	.+56     	; 0x5fa <GPIO_High_Nibble_vwrite+0x68>
     5c2:	15 c0       	rjmp	.+42     	; 0x5ee <GPIO_High_Nibble_vwrite+0x5c>
     5c4:	8b b3       	in	r24, 0x1b	; 27
     5c6:	8f 70       	andi	r24, 0x0F	; 15
     5c8:	8b bb       	out	0x1b, r24	; 27
     5ca:	8b b3       	in	r24, 0x1b	; 27
     5cc:	86 2b       	or	r24, r22
     5ce:	8b bb       	out	0x1b, r24	; 27
     5d0:	08 95       	ret
     5d2:	88 b3       	in	r24, 0x18	; 24
     5d4:	8f 70       	andi	r24, 0x0F	; 15
     5d6:	88 bb       	out	0x18, r24	; 24
     5d8:	88 b3       	in	r24, 0x18	; 24
     5da:	86 2b       	or	r24, r22
     5dc:	88 bb       	out	0x18, r24	; 24
     5de:	08 95       	ret
     5e0:	85 b3       	in	r24, 0x15	; 21
     5e2:	8f 70       	andi	r24, 0x0F	; 15
     5e4:	85 bb       	out	0x15, r24	; 21
     5e6:	85 b3       	in	r24, 0x15	; 21
     5e8:	86 2b       	or	r24, r22
     5ea:	85 bb       	out	0x15, r24	; 21
     5ec:	08 95       	ret
     5ee:	82 b3       	in	r24, 0x12	; 18
     5f0:	8f 70       	andi	r24, 0x0F	; 15
     5f2:	82 bb       	out	0x12, r24	; 18
     5f4:	82 b3       	in	r24, 0x12	; 18
     5f6:	86 2b       	or	r24, r22
     5f8:	82 bb       	out	0x12, r24	; 18
     5fa:	08 95       	ret

000005fc <GPIO_Low_Nibble_vset_dir>:
     5fc:	cf 93       	push	r28
     5fe:	c8 2f       	mov	r28, r24
     600:	61 30       	cpi	r22, 0x01	; 1
     602:	91 f4       	brne	.+36     	; 0x628 <GPIO_Low_Nibble_vset_dir+0x2c>
     604:	60 e0       	ldi	r22, 0x00	; 0
     606:	41 e0       	ldi	r20, 0x01	; 1
     608:	0e 94 7c 00 	call	0xf8	; 0xf8 <GPIO_vsetPIN_DIR>
     60c:	8c 2f       	mov	r24, r28
     60e:	61 e0       	ldi	r22, 0x01	; 1
     610:	41 e0       	ldi	r20, 0x01	; 1
     612:	0e 94 7c 00 	call	0xf8	; 0xf8 <GPIO_vsetPIN_DIR>
     616:	8c 2f       	mov	r24, r28
     618:	62 e0       	ldi	r22, 0x02	; 2
     61a:	41 e0       	ldi	r20, 0x01	; 1
     61c:	0e 94 7c 00 	call	0xf8	; 0xf8 <GPIO_vsetPIN_DIR>
     620:	8c 2f       	mov	r24, r28
     622:	63 e0       	ldi	r22, 0x03	; 3
     624:	41 e0       	ldi	r20, 0x01	; 1
     626:	11 c0       	rjmp	.+34     	; 0x64a <GPIO_Low_Nibble_vset_dir+0x4e>
     628:	60 e0       	ldi	r22, 0x00	; 0
     62a:	40 e0       	ldi	r20, 0x00	; 0
     62c:	0e 94 7c 00 	call	0xf8	; 0xf8 <GPIO_vsetPIN_DIR>
     630:	8c 2f       	mov	r24, r28
     632:	61 e0       	ldi	r22, 0x01	; 1
     634:	40 e0       	ldi	r20, 0x00	; 0
     636:	0e 94 7c 00 	call	0xf8	; 0xf8 <GPIO_vsetPIN_DIR>
     63a:	8c 2f       	mov	r24, r28
     63c:	62 e0       	ldi	r22, 0x02	; 2
     63e:	40 e0       	ldi	r20, 0x00	; 0
     640:	0e 94 7c 00 	call	0xf8	; 0xf8 <GPIO_vsetPIN_DIR>
     644:	8c 2f       	mov	r24, r28
     646:	63 e0       	ldi	r22, 0x03	; 3
     648:	40 e0       	ldi	r20, 0x00	; 0
     64a:	0e 94 7c 00 	call	0xf8	; 0xf8 <GPIO_vsetPIN_DIR>
     64e:	cf 91       	pop	r28
     650:	08 95       	ret

00000652 <GPIO_Low_Nibble_vwrite>:
     652:	6f 70       	andi	r22, 0x0F	; 15
     654:	84 34       	cpi	r24, 0x44	; 68
     656:	51 f1       	breq	.+84     	; 0x6ac <GPIO_Low_Nibble_vwrite+0x5a>
     658:	85 34       	cpi	r24, 0x45	; 69
     65a:	38 f4       	brcc	.+14     	; 0x66a <GPIO_Low_Nibble_vwrite+0x18>
     65c:	82 34       	cpi	r24, 0x42	; 66
     65e:	c1 f0       	breq	.+48     	; 0x690 <GPIO_Low_Nibble_vwrite+0x3e>
     660:	83 34       	cpi	r24, 0x43	; 67
     662:	e8 f4       	brcc	.+58     	; 0x69e <GPIO_Low_Nibble_vwrite+0x4c>
     664:	81 34       	cpi	r24, 0x41	; 65
     666:	41 f5       	brne	.+80     	; 0x6b8 <GPIO_Low_Nibble_vwrite+0x66>
     668:	0c c0       	rjmp	.+24     	; 0x682 <GPIO_Low_Nibble_vwrite+0x30>
     66a:	82 36       	cpi	r24, 0x62	; 98
     66c:	89 f0       	breq	.+34     	; 0x690 <GPIO_Low_Nibble_vwrite+0x3e>
     66e:	83 36       	cpi	r24, 0x63	; 99
     670:	18 f4       	brcc	.+6      	; 0x678 <GPIO_Low_Nibble_vwrite+0x26>
     672:	81 36       	cpi	r24, 0x61	; 97
     674:	09 f5       	brne	.+66     	; 0x6b8 <GPIO_Low_Nibble_vwrite+0x66>
     676:	05 c0       	rjmp	.+10     	; 0x682 <GPIO_Low_Nibble_vwrite+0x30>
     678:	83 36       	cpi	r24, 0x63	; 99
     67a:	89 f0       	breq	.+34     	; 0x69e <GPIO_Low_Nibble_vwrite+0x4c>
     67c:	84 36       	cpi	r24, 0x64	; 100
     67e:	e1 f4       	brne	.+56     	; 0x6b8 <GPIO_Low_Nibble_vwrite+0x66>
     680:	15 c0       	rjmp	.+42     	; 0x6ac <GPIO_Low_Nibble_vwrite+0x5a>
     682:	8b b3       	in	r24, 0x1b	; 27
     684:	80 7f       	andi	r24, 0xF0	; 240
     686:	8b bb       	out	0x1b, r24	; 27
     688:	8b b3       	in	r24, 0x1b	; 27
     68a:	86 2b       	or	r24, r22
     68c:	8b bb       	out	0x1b, r24	; 27
     68e:	08 95       	ret
     690:	88 b3       	in	r24, 0x18	; 24
     692:	80 7f       	andi	r24, 0xF0	; 240
     694:	88 bb       	out	0x18, r24	; 24
     696:	88 b3       	in	r24, 0x18	; 24
     698:	86 2b       	or	r24, r22
     69a:	88 bb       	out	0x18, r24	; 24
     69c:	08 95       	ret
     69e:	85 b3       	in	r24, 0x15	; 21
     6a0:	80 7f       	andi	r24, 0xF0	; 240
     6a2:	85 bb       	out	0x15, r24	; 21
     6a4:	85 b3       	in	r24, 0x15	; 21
     6a6:	86 2b       	or	r24, r22
     6a8:	85 bb       	out	0x15, r24	; 21
     6aa:	08 95       	ret
     6ac:	82 b3       	in	r24, 0x12	; 18
     6ae:	80 7f       	andi	r24, 0xF0	; 240
     6b0:	82 bb       	out	0x12, r24	; 18
     6b2:	82 b3       	in	r24, 0x12	; 18
     6b4:	86 2b       	or	r24, r22
     6b6:	82 bb       	out	0x12, r24	; 18
     6b8:	08 95       	ret

000006ba <keypad_vInit>:
     6ba:	cf 93       	push	r28
     6bc:	c8 2f       	mov	r28, r24
     6be:	6f e0       	ldi	r22, 0x0F	; 15
     6c0:	0e 94 10 02 	call	0x420	; 0x420 <GPIO_vset_PORT_DIR>
     6c4:	8c 2f       	mov	r24, r28
     6c6:	64 e0       	ldi	r22, 0x04	; 4
     6c8:	41 e0       	ldi	r20, 0x01	; 1
     6ca:	0e 94 ae 01 	call	0x35c	; 0x35c <GPIO_vconnectpullup>
     6ce:	8c 2f       	mov	r24, r28
     6d0:	65 e0       	ldi	r22, 0x05	; 5
     6d2:	41 e0       	ldi	r20, 0x01	; 1
     6d4:	0e 94 ae 01 	call	0x35c	; 0x35c <GPIO_vconnectpullup>
     6d8:	8c 2f       	mov	r24, r28
     6da:	66 e0       	ldi	r22, 0x06	; 6
     6dc:	41 e0       	ldi	r20, 0x01	; 1
     6de:	0e 94 ae 01 	call	0x35c	; 0x35c <GPIO_vconnectpullup>
     6e2:	8c 2f       	mov	r24, r28
     6e4:	67 e0       	ldi	r22, 0x07	; 7
     6e6:	41 e0       	ldi	r20, 0x01	; 1
     6e8:	0e 94 ae 01 	call	0x35c	; 0x35c <GPIO_vconnectpullup>
     6ec:	cf 91       	pop	r28
     6ee:	08 95       	ret

000006f0 <keypad_u8check_press>:
     6f0:	0f 93       	push	r16
     6f2:	1f 93       	push	r17
     6f4:	cf 93       	push	r28
     6f6:	df 93       	push	r29
     6f8:	cd b7       	in	r28, 0x3d	; 61
     6fa:	de b7       	in	r29, 0x3e	; 62
     6fc:	61 97       	sbiw	r28, 0x11	; 17
     6fe:	0f b6       	in	r0, 0x3f	; 63
     700:	f8 94       	cli
     702:	de bf       	out	0x3e, r29	; 62
     704:	0f be       	out	0x3f, r0	; 63
     706:	cd bf       	out	0x3d, r28	; 61
     708:	18 2f       	mov	r17, r24
     70a:	de 01       	movw	r26, r28
     70c:	11 96       	adiw	r26, 0x01	; 1
     70e:	ed e6       	ldi	r30, 0x6D	; 109
     710:	f0 e0       	ldi	r31, 0x00	; 0
     712:	80 e1       	ldi	r24, 0x10	; 16
     714:	01 90       	ld	r0, Z+
     716:	0d 92       	st	X+, r0
     718:	81 50       	subi	r24, 0x01	; 1
     71a:	e1 f7       	brne	.-8      	; 0x714 <keypad_u8check_press+0x24>
     71c:	00 e0       	ldi	r16, 0x00	; 0
     71e:	81 2f       	mov	r24, r17
     720:	60 e0       	ldi	r22, 0x00	; 0
     722:	41 e0       	ldi	r20, 0x01	; 1
     724:	0e 94 db 00 	call	0x1b6	; 0x1b6 <GPIO_vwrite_PIN>
     728:	81 2f       	mov	r24, r17
     72a:	61 e0       	ldi	r22, 0x01	; 1
     72c:	41 e0       	ldi	r20, 0x01	; 1
     72e:	0e 94 db 00 	call	0x1b6	; 0x1b6 <GPIO_vwrite_PIN>
     732:	81 2f       	mov	r24, r17
     734:	62 e0       	ldi	r22, 0x02	; 2
     736:	41 e0       	ldi	r20, 0x01	; 1
     738:	0e 94 db 00 	call	0x1b6	; 0x1b6 <GPIO_vwrite_PIN>
     73c:	81 2f       	mov	r24, r17
     73e:	63 e0       	ldi	r22, 0x03	; 3
     740:	41 e0       	ldi	r20, 0x01	; 1
     742:	0e 94 db 00 	call	0x1b6	; 0x1b6 <GPIO_vwrite_PIN>
     746:	81 2f       	mov	r24, r17
     748:	60 2f       	mov	r22, r16
     74a:	40 e0       	ldi	r20, 0x00	; 0
     74c:	0e 94 db 00 	call	0x1b6	; 0x1b6 <GPIO_vwrite_PIN>
     750:	90 e0       	ldi	r25, 0x00	; 0
     752:	69 2f       	mov	r22, r25
     754:	6c 5f       	subi	r22, 0xFC	; 252
     756:	81 2f       	mov	r24, r17
     758:	99 8b       	std	Y+17, r25	; 0x11
     75a:	0e 94 3a 01 	call	0x274	; 0x274 <GPIO_u8read_PIN>
     75e:	99 89       	ldd	r25, Y+17	; 0x11
     760:	88 23       	and	r24, r24
     762:	61 f4       	brne	.+24     	; 0x77c <keypad_u8check_press+0x8c>
     764:	e0 2f       	mov	r30, r16
     766:	f0 e0       	ldi	r31, 0x00	; 0
     768:	ee 0f       	add	r30, r30
     76a:	ff 1f       	adc	r31, r31
     76c:	ee 0f       	add	r30, r30
     76e:	ff 1f       	adc	r31, r31
     770:	e9 0f       	add	r30, r25
     772:	f1 1d       	adc	r31, r1
     774:	ec 0f       	add	r30, r28
     776:	fd 1f       	adc	r31, r29
     778:	81 81       	ldd	r24, Z+1	; 0x01
     77a:	07 c0       	rjmp	.+14     	; 0x78a <keypad_u8check_press+0x9a>
     77c:	9f 5f       	subi	r25, 0xFF	; 255
     77e:	94 30       	cpi	r25, 0x04	; 4
     780:	41 f7       	brne	.-48     	; 0x752 <keypad_u8check_press+0x62>
     782:	0f 5f       	subi	r16, 0xFF	; 255
     784:	04 30       	cpi	r16, 0x04	; 4
     786:	59 f6       	brne	.-106    	; 0x71e <keypad_u8check_press+0x2e>
     788:	8f ef       	ldi	r24, 0xFF	; 255
     78a:	61 96       	adiw	r28, 0x11	; 17
     78c:	0f b6       	in	r0, 0x3f	; 63
     78e:	f8 94       	cli
     790:	de bf       	out	0x3e, r29	; 62
     792:	0f be       	out	0x3f, r0	; 63
     794:	cd bf       	out	0x3d, r28	; 61
     796:	df 91       	pop	r29
     798:	cf 91       	pop	r28
     79a:	1f 91       	pop	r17
     79c:	0f 91       	pop	r16
     79e:	08 95       	ret

000007a0 <send_falling_edge>:
     7a0:	cf 93       	push	r28
     7a2:	df 93       	push	r29
     7a4:	d8 2f       	mov	r29, r24
     7a6:	c6 2f       	mov	r28, r22
     7a8:	41 e0       	ldi	r20, 0x01	; 1
     7aa:	0e 94 db 00 	call	0x1b6	; 0x1b6 <GPIO_vwrite_PIN>
     7ae:	8f e9       	ldi	r24, 0x9F	; 159
     7b0:	9f e0       	ldi	r25, 0x0F	; 15
     7b2:	01 97       	sbiw	r24, 0x01	; 1
     7b4:	f1 f7       	brne	.-4      	; 0x7b2 <send_falling_edge+0x12>
     7b6:	00 c0       	rjmp	.+0      	; 0x7b8 <send_falling_edge+0x18>
     7b8:	00 00       	nop
     7ba:	8d 2f       	mov	r24, r29
     7bc:	6c 2f       	mov	r22, r28
     7be:	40 e0       	ldi	r20, 0x00	; 0
     7c0:	0e 94 db 00 	call	0x1b6	; 0x1b6 <GPIO_vwrite_PIN>
     7c4:	df 91       	pop	r29
     7c6:	cf 91       	pop	r28
     7c8:	08 95       	ret

000007ca <LCD_vsend_cmd>:
     7ca:	af 92       	push	r10
     7cc:	cf 92       	push	r12
     7ce:	ef 92       	push	r14
     7d0:	0f 93       	push	r16
     7d2:	cf 93       	push	r28
     7d4:	df 93       	push	r29
     7d6:	96 2f       	mov	r25, r22
     7d8:	c4 2f       	mov	r28, r20
     7da:	d2 2f       	mov	r29, r18
     7dc:	81 30       	cpi	r24, 0x01	; 1
     7de:	71 f4       	brne	.+28     	; 0x7fc <LCD_vsend_cmd+0x32>
     7e0:	84 2f       	mov	r24, r20
     7e2:	6e 2d       	mov	r22, r14
     7e4:	0e 94 2f 02 	call	0x45e	; 0x45e <GPIO_vwrite_PORT>
     7e8:	8d 2f       	mov	r24, r29
     7ea:	60 2f       	mov	r22, r16
     7ec:	40 e0       	ldi	r20, 0x00	; 0
     7ee:	0e 94 db 00 	call	0x1b6	; 0x1b6 <GPIO_vwrite_PIN>
     7f2:	8c 2d       	mov	r24, r12
     7f4:	6a 2d       	mov	r22, r10
     7f6:	0e 94 d0 03 	call	0x7a0	; 0x7a0 <send_falling_edge>
     7fa:	34 c0       	rjmp	.+104    	; 0x864 <__stack+0x5>
     7fc:	6e 2d       	mov	r22, r14
     7fe:	62 95       	swap	r22
     800:	6f 70       	andi	r22, 0x0F	; 15
     802:	84 2f       	mov	r24, r20
     804:	91 30       	cpi	r25, 0x01	; 1
     806:	81 f4       	brne	.+32     	; 0x828 <LCD_vsend_cmd+0x5e>
     808:	0e 94 c9 02 	call	0x592	; 0x592 <GPIO_High_Nibble_vwrite>
     80c:	8d 2f       	mov	r24, r29
     80e:	60 2f       	mov	r22, r16
     810:	40 e0       	ldi	r20, 0x00	; 0
     812:	0e 94 db 00 	call	0x1b6	; 0x1b6 <GPIO_vwrite_PIN>
     816:	8c 2d       	mov	r24, r12
     818:	6a 2d       	mov	r22, r10
     81a:	0e 94 d0 03 	call	0x7a0	; 0x7a0 <send_falling_edge>
     81e:	8c 2f       	mov	r24, r28
     820:	6e 2d       	mov	r22, r14
     822:	0e 94 c9 02 	call	0x592	; 0x592 <GPIO_High_Nibble_vwrite>
     826:	0f c0       	rjmp	.+30     	; 0x846 <LCD_vsend_cmd+0x7c>
     828:	0e 94 29 03 	call	0x652	; 0x652 <GPIO_Low_Nibble_vwrite>
     82c:	8d 2f       	mov	r24, r29
     82e:	60 2f       	mov	r22, r16
     830:	40 e0       	ldi	r20, 0x00	; 0
     832:	0e 94 db 00 	call	0x1b6	; 0x1b6 <GPIO_vwrite_PIN>
     836:	8c 2d       	mov	r24, r12
     838:	6a 2d       	mov	r22, r10
     83a:	0e 94 d0 03 	call	0x7a0	; 0x7a0 <send_falling_edge>
     83e:	8c 2f       	mov	r24, r28
     840:	6e 2d       	mov	r22, r14
     842:	0e 94 29 03 	call	0x652	; 0x652 <GPIO_Low_Nibble_vwrite>
     846:	8d 2f       	mov	r24, r29
     848:	60 2f       	mov	r22, r16
     84a:	40 e0       	ldi	r20, 0x00	; 0
     84c:	0e 94 db 00 	call	0x1b6	; 0x1b6 <GPIO_vwrite_PIN>
     850:	8c 2d       	mov	r24, r12
     852:	6a 2d       	mov	r22, r10
     854:	0e 94 d0 03 	call	0x7a0	; 0x7a0 <send_falling_edge>
     858:	8f ec       	ldi	r24, 0xCF	; 207
     85a:	97 e0       	ldi	r25, 0x07	; 7
     85c:	01 97       	sbiw	r24, 0x01	; 1
     85e:	f1 f7       	brne	.-4      	; 0x85c <LCD_vsend_cmd+0x92>
     860:	00 c0       	rjmp	.+0      	; 0x862 <__stack+0x3>
     862:	00 00       	nop
     864:	df 91       	pop	r29
     866:	cf 91       	pop	r28
     868:	0f 91       	pop	r16
     86a:	ef 90       	pop	r14
     86c:	cf 90       	pop	r12
     86e:	af 90       	pop	r10
     870:	08 95       	ret

00000872 <LCD_vInit>:
     872:	7f 92       	push	r7
     874:	8f 92       	push	r8
     876:	9f 92       	push	r9
     878:	af 92       	push	r10
     87a:	bf 92       	push	r11
     87c:	cf 92       	push	r12
     87e:	df 92       	push	r13
     880:	ef 92       	push	r14
     882:	ff 92       	push	r15
     884:	0f 93       	push	r16
     886:	1f 93       	push	r17
     888:	cf 93       	push	r28
     88a:	df 93       	push	r29
     88c:	cd b7       	in	r28, 0x3d	; 61
     88e:	de b7       	in	r29, 0x3e	; 62
     890:	18 2f       	mov	r17, r24
     892:	f6 2e       	mov	r15, r22
     894:	94 2e       	mov	r9, r20
     896:	72 2e       	mov	r7, r18
     898:	8f ef       	ldi	r24, 0xFF	; 255
     89a:	91 ee       	ldi	r25, 0xE1	; 225
     89c:	a4 e0       	ldi	r26, 0x04	; 4
     89e:	81 50       	subi	r24, 0x01	; 1
     8a0:	90 40       	sbci	r25, 0x00	; 0
     8a2:	a0 40       	sbci	r26, 0x00	; 0
     8a4:	e1 f7       	brne	.-8      	; 0x89e <LCD_vInit+0x2c>
     8a6:	00 c0       	rjmp	.+0      	; 0x8a8 <LCD_vInit+0x36>
     8a8:	00 00       	nop
     8aa:	82 2f       	mov	r24, r18
     8ac:	60 2f       	mov	r22, r16
     8ae:	41 e0       	ldi	r20, 0x01	; 1
     8b0:	0e 94 7c 00 	call	0xf8	; 0xf8 <GPIO_vsetPIN_DIR>
     8b4:	8e 2d       	mov	r24, r14
     8b6:	6c 2d       	mov	r22, r12
     8b8:	41 e0       	ldi	r20, 0x01	; 1
     8ba:	0e 94 7c 00 	call	0xf8	; 0xf8 <GPIO_vsetPIN_DIR>
     8be:	8a 2d       	mov	r24, r10
     8c0:	68 2d       	mov	r22, r8
     8c2:	41 e0       	ldi	r20, 0x01	; 1
     8c4:	0e 94 7c 00 	call	0xf8	; 0xf8 <GPIO_vsetPIN_DIR>
     8c8:	11 30       	cpi	r17, 0x01	; 1
     8ca:	e9 f5       	brne	.+122    	; 0x946 <LCD_vInit+0xd4>
     8cc:	89 2d       	mov	r24, r9
     8ce:	6f ef       	ldi	r22, 0xFF	; 255
     8d0:	0e 94 10 02 	call	0x420	; 0x420 <GPIO_vset_PORT_DIR>
     8d4:	8e 2d       	mov	r24, r14
     8d6:	6c 2d       	mov	r22, r12
     8d8:	40 e0       	ldi	r20, 0x00	; 0
     8da:	0e 94 db 00 	call	0x1b6	; 0x1b6 <GPIO_vwrite_PIN>
     8de:	af e2       	ldi	r26, 0x2F	; 47
     8e0:	b5 e7       	ldi	r27, 0x75	; 117
     8e2:	11 97       	sbiw	r26, 0x01	; 1
     8e4:	f1 f7       	brne	.-4      	; 0x8e2 <LCD_vInit+0x70>
     8e6:	00 c0       	rjmp	.+0      	; 0x8e8 <LCD_vInit+0x76>
     8e8:	00 00       	nop
     8ea:	81 e0       	ldi	r24, 0x01	; 1
     8ec:	6f 2d       	mov	r22, r15
     8ee:	49 2d       	mov	r20, r9
     8f0:	27 2d       	mov	r18, r7
     8f2:	18 e3       	ldi	r17, 0x38	; 56
     8f4:	e1 2e       	mov	r14, r17
     8f6:	ca 2c       	mov	r12, r10
     8f8:	a8 2c       	mov	r10, r8
     8fa:	0e 94 e5 03 	call	0x7ca	; 0x7ca <LCD_vsend_cmd>
     8fe:	8f ec       	ldi	r24, 0xCF	; 207
     900:	97 e0       	ldi	r25, 0x07	; 7
     902:	01 97       	sbiw	r24, 0x01	; 1
     904:	f1 f7       	brne	.-4      	; 0x902 <LCD_vInit+0x90>
     906:	00 c0       	rjmp	.+0      	; 0x908 <LCD_vInit+0x96>
     908:	00 00       	nop
     90a:	81 e0       	ldi	r24, 0x01	; 1
     90c:	6f 2d       	mov	r22, r15
     90e:	49 2d       	mov	r20, r9
     910:	27 2d       	mov	r18, r7
     912:	9e e0       	ldi	r25, 0x0E	; 14
     914:	e9 2e       	mov	r14, r25
     916:	0e 94 e5 03 	call	0x7ca	; 0x7ca <LCD_vsend_cmd>
     91a:	af ec       	ldi	r26, 0xCF	; 207
     91c:	b7 e0       	ldi	r27, 0x07	; 7
     91e:	11 97       	sbiw	r26, 0x01	; 1
     920:	f1 f7       	brne	.-4      	; 0x91e <LCD_vInit+0xac>
     922:	00 c0       	rjmp	.+0      	; 0x924 <LCD_vInit+0xb2>
     924:	00 00       	nop
     926:	81 e0       	ldi	r24, 0x01	; 1
     928:	6f 2d       	mov	r22, r15
     92a:	49 2d       	mov	r20, r9
     92c:	27 2d       	mov	r18, r7
     92e:	ee 24       	eor	r14, r14
     930:	e3 94       	inc	r14
     932:	0e 94 e5 03 	call	0x7ca	; 0x7ca <LCD_vsend_cmd>
     936:	8f e1       	ldi	r24, 0x1F	; 31
     938:	9e e4       	ldi	r25, 0x4E	; 78
     93a:	01 97       	sbiw	r24, 0x01	; 1
     93c:	f1 f7       	brne	.-4      	; 0x93a <LCD_vInit+0xc8>
     93e:	00 c0       	rjmp	.+0      	; 0x940 <LCD_vInit+0xce>
     940:	00 00       	nop
     942:	81 e0       	ldi	r24, 0x01	; 1
     944:	96 c0       	rjmp	.+300    	; 0xa72 <LCD_vInit+0x200>
     946:	b1 e0       	ldi	r27, 0x01	; 1
     948:	89 2d       	mov	r24, r9
     94a:	61 e0       	ldi	r22, 0x01	; 1
     94c:	fb 16       	cp	r15, r27
     94e:	09 f0       	breq	.+2      	; 0x952 <LCD_vInit+0xe0>
     950:	4e c0       	rjmp	.+156    	; 0x9ee <LCD_vInit+0x17c>
     952:	0e 94 9e 02 	call	0x53c	; 0x53c <GPIO_High_Nibble_vset_dir>
     956:	8e 2d       	mov	r24, r14
     958:	6c 2d       	mov	r22, r12
     95a:	40 e0       	ldi	r20, 0x00	; 0
     95c:	0e 94 db 00 	call	0x1b6	; 0x1b6 <GPIO_vwrite_PIN>
     960:	81 2f       	mov	r24, r17
     962:	61 e0       	ldi	r22, 0x01	; 1
     964:	49 2d       	mov	r20, r9
     966:	27 2d       	mov	r18, r7
     968:	e2 e0       	ldi	r30, 0x02	; 2
     96a:	ee 2e       	mov	r14, r30
     96c:	ca 2c       	mov	r12, r10
     96e:	a8 2c       	mov	r10, r8
     970:	0e 94 e5 03 	call	0x7ca	; 0x7ca <LCD_vsend_cmd>
     974:	8f e2       	ldi	r24, 0x2F	; 47
     976:	95 e7       	ldi	r25, 0x75	; 117
     978:	01 97       	sbiw	r24, 0x01	; 1
     97a:	f1 f7       	brne	.-4      	; 0x978 <LCD_vInit+0x106>
     97c:	00 c0       	rjmp	.+0      	; 0x97e <LCD_vInit+0x10c>
     97e:	00 00       	nop
     980:	81 2f       	mov	r24, r17
     982:	61 e0       	ldi	r22, 0x01	; 1
     984:	49 2d       	mov	r20, r9
     986:	27 2d       	mov	r18, r7
     988:	f8 e2       	ldi	r31, 0x28	; 40
     98a:	ef 2e       	mov	r14, r31
     98c:	0e 94 e5 03 	call	0x7ca	; 0x7ca <LCD_vsend_cmd>
     990:	af ec       	ldi	r26, 0xCF	; 207
     992:	b7 e0       	ldi	r27, 0x07	; 7
     994:	11 97       	sbiw	r26, 0x01	; 1
     996:	f1 f7       	brne	.-4      	; 0x994 <LCD_vInit+0x122>
     998:	00 c0       	rjmp	.+0      	; 0x99a <LCD_vInit+0x128>
     99a:	00 00       	nop
     99c:	81 2f       	mov	r24, r17
     99e:	61 e0       	ldi	r22, 0x01	; 1
     9a0:	49 2d       	mov	r20, r9
     9a2:	27 2d       	mov	r18, r7
     9a4:	ae e0       	ldi	r26, 0x0E	; 14
     9a6:	ea 2e       	mov	r14, r26
     9a8:	0e 94 e5 03 	call	0x7ca	; 0x7ca <LCD_vsend_cmd>
     9ac:	8f ec       	ldi	r24, 0xCF	; 207
     9ae:	97 e0       	ldi	r25, 0x07	; 7
     9b0:	01 97       	sbiw	r24, 0x01	; 1
     9b2:	f1 f7       	brne	.-4      	; 0x9b0 <LCD_vInit+0x13e>
     9b4:	00 c0       	rjmp	.+0      	; 0x9b6 <LCD_vInit+0x144>
     9b6:	00 00       	nop
     9b8:	81 2f       	mov	r24, r17
     9ba:	61 e0       	ldi	r22, 0x01	; 1
     9bc:	49 2d       	mov	r20, r9
     9be:	27 2d       	mov	r18, r7
     9c0:	ee 24       	eor	r14, r14
     9c2:	e3 94       	inc	r14
     9c4:	0e 94 e5 03 	call	0x7ca	; 0x7ca <LCD_vsend_cmd>
     9c8:	af e1       	ldi	r26, 0x1F	; 31
     9ca:	be e4       	ldi	r27, 0x4E	; 78
     9cc:	11 97       	sbiw	r26, 0x01	; 1
     9ce:	f1 f7       	brne	.-4      	; 0x9cc <LCD_vInit+0x15a>
     9d0:	00 c0       	rjmp	.+0      	; 0x9d2 <LCD_vInit+0x160>
     9d2:	00 00       	nop
     9d4:	81 2f       	mov	r24, r17
     9d6:	61 e0       	ldi	r22, 0x01	; 1
     9d8:	49 2d       	mov	r20, r9
     9da:	27 2d       	mov	r18, r7
     9dc:	b6 e0       	ldi	r27, 0x06	; 6
     9de:	eb 2e       	mov	r14, r27
     9e0:	0e 94 e5 03 	call	0x7ca	; 0x7ca <LCD_vsend_cmd>
     9e4:	8f ec       	ldi	r24, 0xCF	; 207
     9e6:	97 e0       	ldi	r25, 0x07	; 7
     9e8:	01 97       	sbiw	r24, 0x01	; 1
     9ea:	f1 f7       	brne	.-4      	; 0x9e8 <LCD_vInit+0x176>
     9ec:	4d c0       	rjmp	.+154    	; 0xa88 <LCD_vInit+0x216>
     9ee:	0e 94 fe 02 	call	0x5fc	; 0x5fc <GPIO_Low_Nibble_vset_dir>
     9f2:	8e 2d       	mov	r24, r14
     9f4:	6c 2d       	mov	r22, r12
     9f6:	40 e0       	ldi	r20, 0x00	; 0
     9f8:	0e 94 db 00 	call	0x1b6	; 0x1b6 <GPIO_vwrite_PIN>
     9fc:	81 2f       	mov	r24, r17
     9fe:	6f 2d       	mov	r22, r15
     a00:	49 2d       	mov	r20, r9
     a02:	27 2d       	mov	r18, r7
     a04:	32 e0       	ldi	r19, 0x02	; 2
     a06:	e3 2e       	mov	r14, r19
     a08:	ca 2c       	mov	r12, r10
     a0a:	a8 2c       	mov	r10, r8
     a0c:	0e 94 e5 03 	call	0x7ca	; 0x7ca <LCD_vsend_cmd>
     a10:	af e2       	ldi	r26, 0x2F	; 47
     a12:	b5 e7       	ldi	r27, 0x75	; 117
     a14:	11 97       	sbiw	r26, 0x01	; 1
     a16:	f1 f7       	brne	.-4      	; 0xa14 <LCD_vInit+0x1a2>
     a18:	00 c0       	rjmp	.+0      	; 0xa1a <LCD_vInit+0x1a8>
     a1a:	00 00       	nop
     a1c:	81 2f       	mov	r24, r17
     a1e:	6f 2d       	mov	r22, r15
     a20:	49 2d       	mov	r20, r9
     a22:	27 2d       	mov	r18, r7
     a24:	58 e2       	ldi	r21, 0x28	; 40
     a26:	e5 2e       	mov	r14, r21
     a28:	0e 94 e5 03 	call	0x7ca	; 0x7ca <LCD_vsend_cmd>
     a2c:	8f ec       	ldi	r24, 0xCF	; 207
     a2e:	97 e0       	ldi	r25, 0x07	; 7
     a30:	01 97       	sbiw	r24, 0x01	; 1
     a32:	f1 f7       	brne	.-4      	; 0xa30 <LCD_vInit+0x1be>
     a34:	00 c0       	rjmp	.+0      	; 0xa36 <LCD_vInit+0x1c4>
     a36:	00 00       	nop
     a38:	81 2f       	mov	r24, r17
     a3a:	6f 2d       	mov	r22, r15
     a3c:	49 2d       	mov	r20, r9
     a3e:	27 2d       	mov	r18, r7
     a40:	7e e0       	ldi	r23, 0x0E	; 14
     a42:	e7 2e       	mov	r14, r23
     a44:	0e 94 e5 03 	call	0x7ca	; 0x7ca <LCD_vsend_cmd>
     a48:	af ec       	ldi	r26, 0xCF	; 207
     a4a:	b7 e0       	ldi	r27, 0x07	; 7
     a4c:	11 97       	sbiw	r26, 0x01	; 1
     a4e:	f1 f7       	brne	.-4      	; 0xa4c <LCD_vInit+0x1da>
     a50:	00 c0       	rjmp	.+0      	; 0xa52 <LCD_vInit+0x1e0>
     a52:	00 00       	nop
     a54:	81 2f       	mov	r24, r17
     a56:	6f 2d       	mov	r22, r15
     a58:	49 2d       	mov	r20, r9
     a5a:	27 2d       	mov	r18, r7
     a5c:	ee 24       	eor	r14, r14
     a5e:	e3 94       	inc	r14
     a60:	0e 94 e5 03 	call	0x7ca	; 0x7ca <LCD_vsend_cmd>
     a64:	8f e1       	ldi	r24, 0x1F	; 31
     a66:	9e e4       	ldi	r25, 0x4E	; 78
     a68:	01 97       	sbiw	r24, 0x01	; 1
     a6a:	f1 f7       	brne	.-4      	; 0xa68 <LCD_vInit+0x1f6>
     a6c:	00 c0       	rjmp	.+0      	; 0xa6e <LCD_vInit+0x1fc>
     a6e:	00 00       	nop
     a70:	81 2f       	mov	r24, r17
     a72:	6f 2d       	mov	r22, r15
     a74:	49 2d       	mov	r20, r9
     a76:	27 2d       	mov	r18, r7
     a78:	96 e0       	ldi	r25, 0x06	; 6
     a7a:	e9 2e       	mov	r14, r25
     a7c:	0e 94 e5 03 	call	0x7ca	; 0x7ca <LCD_vsend_cmd>
     a80:	af ec       	ldi	r26, 0xCF	; 207
     a82:	b7 e0       	ldi	r27, 0x07	; 7
     a84:	11 97       	sbiw	r26, 0x01	; 1
     a86:	f1 f7       	brne	.-4      	; 0xa84 <LCD_vInit+0x212>
     a88:	00 c0       	rjmp	.+0      	; 0xa8a <LCD_vInit+0x218>
     a8a:	00 00       	nop
     a8c:	df 91       	pop	r29
     a8e:	cf 91       	pop	r28
     a90:	1f 91       	pop	r17
     a92:	0f 91       	pop	r16
     a94:	ff 90       	pop	r15
     a96:	ef 90       	pop	r14
     a98:	df 90       	pop	r13
     a9a:	cf 90       	pop	r12
     a9c:	bf 90       	pop	r11
     a9e:	af 90       	pop	r10
     aa0:	9f 90       	pop	r9
     aa2:	8f 90       	pop	r8
     aa4:	7f 90       	pop	r7
     aa6:	08 95       	ret

00000aa8 <LCD_clear_screen>:
     aa8:	af 92       	push	r10
     aaa:	cf 92       	push	r12
     aac:	ef 92       	push	r14
     aae:	0f 93       	push	r16
     ab0:	9e 2d       	mov	r25, r14
     ab2:	ac 2c       	mov	r10, r12
     ab4:	ee 24       	eor	r14, r14
     ab6:	e3 94       	inc	r14
     ab8:	c9 2e       	mov	r12, r25
     aba:	0e 94 e5 03 	call	0x7ca	; 0x7ca <LCD_vsend_cmd>
     abe:	8f e1       	ldi	r24, 0x1F	; 31
     ac0:	9e e4       	ldi	r25, 0x4E	; 78
     ac2:	01 97       	sbiw	r24, 0x01	; 1
     ac4:	f1 f7       	brne	.-4      	; 0xac2 <LCD_clear_screen+0x1a>
     ac6:	00 c0       	rjmp	.+0      	; 0xac8 <LCD_clear_screen+0x20>
     ac8:	00 00       	nop
     aca:	0f 91       	pop	r16
     acc:	ef 90       	pop	r14
     ace:	cf 90       	pop	r12
     ad0:	af 90       	pop	r10
     ad2:	08 95       	ret

00000ad4 <LCD_Move_Cursor>:
     ad4:	8f 92       	push	r8
     ad6:	af 92       	push	r10
     ad8:	cf 92       	push	r12
     ada:	ef 92       	push	r14
     adc:	0f 93       	push	r16
     ade:	cf 93       	push	r28
     ae0:	df 93       	push	r29
     ae2:	cd b7       	in	r28, 0x3d	; 61
     ae4:	de b7       	in	r29, 0x3e	; 62
     ae6:	5e 2d       	mov	r21, r14
     ae8:	3c 2d       	mov	r19, r12
     aea:	7a 2d       	mov	r23, r10
     aec:	e8 2d       	mov	r30, r8
     aee:	fa 2d       	mov	r31, r10
     af0:	f1 50       	subi	r31, 0x01	; 1
     af2:	f3 30       	cpi	r31, 0x03	; 3
     af4:	70 f4       	brcc	.+28     	; 0xb12 <LCD_Move_Cursor+0x3e>
     af6:	e1 31       	cpi	r30, 0x11	; 17
     af8:	60 f4       	brcc	.+24     	; 0xb12 <LCD_Move_Cursor+0x3e>
     afa:	88 20       	and	r8, r8
     afc:	51 f0       	breq	.+20     	; 0xb12 <LCD_Move_Cursor+0x3e>
     afe:	71 30       	cpi	r23, 0x01	; 1
     b00:	19 f4       	brne	.+6      	; 0xb08 <LCD_Move_Cursor+0x34>
     b02:	98 2d       	mov	r25, r8
     b04:	91 58       	subi	r25, 0x81	; 129
     b06:	06 c0       	rjmp	.+12     	; 0xb14 <LCD_Move_Cursor+0x40>
     b08:	72 30       	cpi	r23, 0x02	; 2
     b0a:	21 f4       	brne	.+8      	; 0xb14 <LCD_Move_Cursor+0x40>
     b0c:	98 2d       	mov	r25, r8
     b0e:	91 54       	subi	r25, 0x41	; 65
     b10:	01 c0       	rjmp	.+2      	; 0xb14 <LCD_Move_Cursor+0x40>
     b12:	90 e8       	ldi	r25, 0x80	; 128
     b14:	e9 2e       	mov	r14, r25
     b16:	c5 2e       	mov	r12, r21
     b18:	a3 2e       	mov	r10, r19
     b1a:	0e 94 e5 03 	call	0x7ca	; 0x7ca <LCD_vsend_cmd>
     b1e:	8f ec       	ldi	r24, 0xCF	; 207
     b20:	97 e0       	ldi	r25, 0x07	; 7
     b22:	01 97       	sbiw	r24, 0x01	; 1
     b24:	f1 f7       	brne	.-4      	; 0xb22 <LCD_Move_Cursor+0x4e>
     b26:	00 c0       	rjmp	.+0      	; 0xb28 <LCD_Move_Cursor+0x54>
     b28:	00 00       	nop
     b2a:	df 91       	pop	r29
     b2c:	cf 91       	pop	r28
     b2e:	0f 91       	pop	r16
     b30:	ef 90       	pop	r14
     b32:	cf 90       	pop	r12
     b34:	af 90       	pop	r10
     b36:	8f 90       	pop	r8
     b38:	08 95       	ret

00000b3a <LCD_vsend_char>:
     b3a:	af 92       	push	r10
     b3c:	cf 92       	push	r12
     b3e:	ef 92       	push	r14
     b40:	0f 93       	push	r16
     b42:	cf 93       	push	r28
     b44:	df 93       	push	r29
     b46:	96 2f       	mov	r25, r22
     b48:	c4 2f       	mov	r28, r20
     b4a:	d2 2f       	mov	r29, r18
     b4c:	81 30       	cpi	r24, 0x01	; 1
     b4e:	29 f4       	brne	.+10     	; 0xb5a <LCD_vsend_char+0x20>
     b50:	84 2f       	mov	r24, r20
     b52:	6a 2d       	mov	r22, r10
     b54:	0e 94 2f 02 	call	0x45e	; 0x45e <GPIO_vwrite_PORT>
     b58:	25 c0       	rjmp	.+74     	; 0xba4 <LCD_vsend_char+0x6a>
     b5a:	6a 2d       	mov	r22, r10
     b5c:	62 95       	swap	r22
     b5e:	6f 70       	andi	r22, 0x0F	; 15
     b60:	84 2f       	mov	r24, r20
     b62:	91 30       	cpi	r25, 0x01	; 1
     b64:	81 f4       	brne	.+32     	; 0xb86 <LCD_vsend_char+0x4c>
     b66:	0e 94 c9 02 	call	0x592	; 0x592 <GPIO_High_Nibble_vwrite>
     b6a:	8d 2f       	mov	r24, r29
     b6c:	60 2f       	mov	r22, r16
     b6e:	41 e0       	ldi	r20, 0x01	; 1
     b70:	0e 94 db 00 	call	0x1b6	; 0x1b6 <GPIO_vwrite_PIN>
     b74:	8e 2d       	mov	r24, r14
     b76:	6c 2d       	mov	r22, r12
     b78:	0e 94 d0 03 	call	0x7a0	; 0x7a0 <send_falling_edge>
     b7c:	8c 2f       	mov	r24, r28
     b7e:	6a 2d       	mov	r22, r10
     b80:	0e 94 c9 02 	call	0x592	; 0x592 <GPIO_High_Nibble_vwrite>
     b84:	0f c0       	rjmp	.+30     	; 0xba4 <LCD_vsend_char+0x6a>
     b86:	0e 94 29 03 	call	0x652	; 0x652 <GPIO_Low_Nibble_vwrite>
     b8a:	8d 2f       	mov	r24, r29
     b8c:	60 2f       	mov	r22, r16
     b8e:	41 e0       	ldi	r20, 0x01	; 1
     b90:	0e 94 db 00 	call	0x1b6	; 0x1b6 <GPIO_vwrite_PIN>
     b94:	8e 2d       	mov	r24, r14
     b96:	6c 2d       	mov	r22, r12
     b98:	0e 94 d0 03 	call	0x7a0	; 0x7a0 <send_falling_edge>
     b9c:	8c 2f       	mov	r24, r28
     b9e:	6a 2d       	mov	r22, r10
     ba0:	0e 94 29 03 	call	0x652	; 0x652 <GPIO_Low_Nibble_vwrite>
     ba4:	8d 2f       	mov	r24, r29
     ba6:	60 2f       	mov	r22, r16
     ba8:	41 e0       	ldi	r20, 0x01	; 1
     baa:	0e 94 db 00 	call	0x1b6	; 0x1b6 <GPIO_vwrite_PIN>
     bae:	8e 2d       	mov	r24, r14
     bb0:	6c 2d       	mov	r22, r12
     bb2:	0e 94 d0 03 	call	0x7a0	; 0x7a0 <send_falling_edge>
     bb6:	8f ec       	ldi	r24, 0xCF	; 207
     bb8:	97 e0       	ldi	r25, 0x07	; 7
     bba:	01 97       	sbiw	r24, 0x01	; 1
     bbc:	f1 f7       	brne	.-4      	; 0xbba <LCD_vsend_char+0x80>
     bbe:	00 c0       	rjmp	.+0      	; 0xbc0 <LCD_vsend_char+0x86>
     bc0:	00 00       	nop
     bc2:	df 91       	pop	r29
     bc4:	cf 91       	pop	r28
     bc6:	0f 91       	pop	r16
     bc8:	ef 90       	pop	r14
     bca:	cf 90       	pop	r12
     bcc:	af 90       	pop	r10
     bce:	08 95       	ret

00000bd0 <LCD_vsend_string>:
     bd0:	6f 92       	push	r6
     bd2:	7f 92       	push	r7
     bd4:	8f 92       	push	r8
     bd6:	9f 92       	push	r9
     bd8:	af 92       	push	r10
     bda:	bf 92       	push	r11
     bdc:	cf 92       	push	r12
     bde:	df 92       	push	r13
     be0:	ef 92       	push	r14
     be2:	ff 92       	push	r15
     be4:	0f 93       	push	r16
     be6:	1f 93       	push	r17
     be8:	cf 93       	push	r28
     bea:	df 93       	push	r29
     bec:	f8 2e       	mov	r15, r24
     bee:	d6 2e       	mov	r13, r22
     bf0:	94 2e       	mov	r9, r20
     bf2:	82 2e       	mov	r8, r18
     bf4:	d0 2f       	mov	r29, r16
     bf6:	ce 2d       	mov	r28, r14
     bf8:	1c 2d       	mov	r17, r12
     bfa:	35 01       	movw	r6, r10
     bfc:	09 c0       	rjmp	.+18     	; 0xc10 <LCD_vsend_string+0x40>
     bfe:	8f 2d       	mov	r24, r15
     c00:	6d 2d       	mov	r22, r13
     c02:	49 2d       	mov	r20, r9
     c04:	28 2d       	mov	r18, r8
     c06:	0d 2f       	mov	r16, r29
     c08:	ec 2e       	mov	r14, r28
     c0a:	c1 2e       	mov	r12, r17
     c0c:	0e 94 9d 05 	call	0xb3a	; 0xb3a <LCD_vsend_char>
     c10:	f3 01       	movw	r30, r6
     c12:	a1 90       	ld	r10, Z+
     c14:	3f 01       	movw	r6, r30
     c16:	aa 20       	and	r10, r10
     c18:	91 f7       	brne	.-28     	; 0xbfe <LCD_vsend_string+0x2e>
     c1a:	df 91       	pop	r29
     c1c:	cf 91       	pop	r28
     c1e:	1f 91       	pop	r17
     c20:	0f 91       	pop	r16
     c22:	ff 90       	pop	r15
     c24:	ef 90       	pop	r14
     c26:	df 90       	pop	r13
     c28:	cf 90       	pop	r12
     c2a:	bf 90       	pop	r11
     c2c:	af 90       	pop	r10
     c2e:	9f 90       	pop	r9
     c30:	8f 90       	pop	r8
     c32:	7f 90       	pop	r7
     c34:	6f 90       	pop	r6
     c36:	08 95       	ret

00000c38 <LCD_display_number>:
     c38:	6f 92       	push	r6
     c3a:	7f 92       	push	r7
     c3c:	8f 92       	push	r8
     c3e:	9f 92       	push	r9
     c40:	af 92       	push	r10
     c42:	bf 92       	push	r11
     c44:	cf 92       	push	r12
     c46:	ef 92       	push	r14
     c48:	0f 93       	push	r16
     c4a:	1f 93       	push	r17
     c4c:	cf 93       	push	r28
     c4e:	df 93       	push	r29
     c50:	cd b7       	in	r28, 0x3d	; 61
     c52:	de b7       	in	r29, 0x3e	; 62
     c54:	2a 97       	sbiw	r28, 0x0a	; 10
     c56:	0f b6       	in	r0, 0x3f	; 63
     c58:	f8 94       	cli
     c5a:	de bf       	out	0x3e, r29	; 62
     c5c:	0f be       	out	0x3f, r0	; 63
     c5e:	cd bf       	out	0x3d, r28	; 61
     c60:	18 2f       	mov	r17, r24
     c62:	d5 01       	movw	r26, r10
     c64:	c4 01       	movw	r24, r8
     c66:	ed b7       	in	r30, 0x3d	; 61
     c68:	fe b7       	in	r31, 0x3e	; 62
     c6a:	38 97       	sbiw	r30, 0x08	; 8
     c6c:	0f b6       	in	r0, 0x3f	; 63
     c6e:	f8 94       	cli
     c70:	fe bf       	out	0x3e, r31	; 62
     c72:	0f be       	out	0x3f, r0	; 63
     c74:	ed bf       	out	0x3d, r30	; 61
     c76:	6d b6       	in	r6, 0x3d	; 61
     c78:	7e b6       	in	r7, 0x3e	; 62
     c7a:	08 94       	sec
     c7c:	61 1c       	adc	r6, r1
     c7e:	71 1c       	adc	r7, r1
     c80:	5e 01       	movw	r10, r28
     c82:	08 94       	sec
     c84:	a1 1c       	adc	r10, r1
     c86:	b1 1c       	adc	r11, r1
     c88:	b2 82       	std	Z+2, r11	; 0x02
     c8a:	a1 82       	std	Z+1, r10	; 0x01
     c8c:	3d e7       	ldi	r19, 0x7D	; 125
     c8e:	83 2e       	mov	r8, r19
     c90:	30 e0       	ldi	r19, 0x00	; 0
     c92:	93 2e       	mov	r9, r19
     c94:	f3 01       	movw	r30, r6
     c96:	93 82       	std	Z+3, r9	; 0x03
     c98:	82 82       	std	Z+2, r8	; 0x02
     c9a:	84 83       	std	Z+4, r24	; 0x04
     c9c:	95 83       	std	Z+5, r25	; 0x05
     c9e:	a6 83       	std	Z+6, r26	; 0x06
     ca0:	b7 83       	std	Z+7, r27	; 0x07
     ca2:	2a 87       	std	Y+10, r18	; 0x0a
     ca4:	49 87       	std	Y+9, r20	; 0x09
     ca6:	68 87       	std	Y+8, r22	; 0x08
     ca8:	0e 94 0b 0e 	call	0x1c16	; 0x1c16 <sprintf>
     cac:	8d b7       	in	r24, 0x3d	; 61
     cae:	9e b7       	in	r25, 0x3e	; 62
     cb0:	08 96       	adiw	r24, 0x08	; 8
     cb2:	0f b6       	in	r0, 0x3f	; 63
     cb4:	f8 94       	cli
     cb6:	9e bf       	out	0x3e, r25	; 62
     cb8:	0f be       	out	0x3f, r0	; 63
     cba:	8d bf       	out	0x3d, r24	; 61
     cbc:	81 2f       	mov	r24, r17
     cbe:	68 85       	ldd	r22, Y+8	; 0x08
     cc0:	49 85       	ldd	r20, Y+9	; 0x09
     cc2:	2a 85       	ldd	r18, Y+10	; 0x0a
     cc4:	0e 94 e8 05 	call	0xbd0	; 0xbd0 <LCD_vsend_string>
     cc8:	2a 96       	adiw	r28, 0x0a	; 10
     cca:	0f b6       	in	r0, 0x3f	; 63
     ccc:	f8 94       	cli
     cce:	de bf       	out	0x3e, r29	; 62
     cd0:	0f be       	out	0x3f, r0	; 63
     cd2:	cd bf       	out	0x3d, r28	; 61
     cd4:	df 91       	pop	r29
     cd6:	cf 91       	pop	r28
     cd8:	1f 91       	pop	r17
     cda:	0f 91       	pop	r16
     cdc:	ef 90       	pop	r14
     cde:	cf 90       	pop	r12
     ce0:	bf 90       	pop	r11
     ce2:	af 90       	pop	r10
     ce4:	9f 90       	pop	r9
     ce6:	8f 90       	pop	r8
     ce8:	7f 90       	pop	r7
     cea:	6f 90       	pop	r6
     cec:	08 95       	ret

00000cee <LCD_display_real_number>:
     cee:	2f 92       	push	r2
     cf0:	3f 92       	push	r3
     cf2:	4f 92       	push	r4
     cf4:	5f 92       	push	r5
     cf6:	6f 92       	push	r6
     cf8:	7f 92       	push	r7
     cfa:	8f 92       	push	r8
     cfc:	9f 92       	push	r9
     cfe:	af 92       	push	r10
     d00:	bf 92       	push	r11
     d02:	cf 92       	push	r12
     d04:	df 92       	push	r13
     d06:	ef 92       	push	r14
     d08:	ff 92       	push	r15
     d0a:	0f 93       	push	r16
     d0c:	1f 93       	push	r17
     d0e:	cf 93       	push	r28
     d10:	df 93       	push	r29
     d12:	cd b7       	in	r28, 0x3d	; 61
     d14:	de b7       	in	r29, 0x3e	; 62
     d16:	61 97       	sbiw	r28, 0x11	; 17
     d18:	0f b6       	in	r0, 0x3f	; 63
     d1a:	f8 94       	cli
     d1c:	de bf       	out	0x3e, r29	; 62
     d1e:	0f be       	out	0x3f, r0	; 63
     d20:	cd bf       	out	0x3d, r28	; 61
     d22:	18 2f       	mov	r17, r24
     d24:	f6 2e       	mov	r15, r22
     d26:	d4 2e       	mov	r13, r20
     d28:	29 8b       	std	Y+17, r18	; 0x11
     d2a:	c5 01       	movw	r24, r10
     d2c:	b4 01       	movw	r22, r8
     d2e:	20 e0       	ldi	r18, 0x00	; 0
     d30:	30 e0       	ldi	r19, 0x00	; 0
     d32:	a9 01       	movw	r20, r18
     d34:	0e 94 10 0c 	call	0x1820	; 0x1820 <__cmpsf2>
     d38:	87 ff       	sbrs	r24, 7
     d3a:	09 c0       	rjmp	.+18     	; 0xd4e <LCD_display_real_number+0x60>
     d3c:	b7 fa       	bst	r11, 7
     d3e:	b0 94       	com	r11
     d40:	b7 f8       	bld	r11, 7
     d42:	b0 94       	com	r11
     d44:	50 e8       	ldi	r21, 0x80	; 128
     d46:	45 2e       	mov	r4, r21
     d48:	50 e0       	ldi	r21, 0x00	; 0
     d4a:	55 2e       	mov	r5, r21
     d4c:	04 c0       	rjmp	.+8      	; 0xd56 <LCD_display_real_number+0x68>
     d4e:	42 e8       	ldi	r20, 0x82	; 130
     d50:	44 2e       	mov	r4, r20
     d52:	40 e0       	ldi	r20, 0x00	; 0
     d54:	54 2e       	mov	r5, r20
     d56:	c5 01       	movw	r24, r10
     d58:	b4 01       	movw	r22, r8
     d5a:	0e 94 7c 0c 	call	0x18f8	; 0x18f8 <__fixsfsi>
     d5e:	2d b7       	in	r18, 0x3d	; 61
     d60:	3e b7       	in	r19, 0x3e	; 62
     d62:	2e 50       	subi	r18, 0x0E	; 14
     d64:	30 40       	sbci	r19, 0x00	; 0
     d66:	0f b6       	in	r0, 0x3f	; 63
     d68:	f8 94       	cli
     d6a:	3e bf       	out	0x3e, r19	; 62
     d6c:	0f be       	out	0x3f, r0	; 63
     d6e:	2d bf       	out	0x3d, r18	; 61
     d70:	6d b6       	in	r6, 0x3d	; 61
     d72:	7e b6       	in	r7, 0x3e	; 62
     d74:	08 94       	sec
     d76:	61 1c       	adc	r6, r1
     d78:	71 1c       	adc	r7, r1
     d7a:	1e 01       	movw	r2, r28
     d7c:	08 94       	sec
     d7e:	21 1c       	adc	r2, r1
     d80:	31 1c       	adc	r3, r1
     d82:	ed b7       	in	r30, 0x3d	; 61
     d84:	fe b7       	in	r31, 0x3e	; 62
     d86:	32 82       	std	Z+2, r3	; 0x02
     d88:	21 82       	std	Z+1, r2	; 0x01
     d8a:	23 e8       	ldi	r18, 0x83	; 131
     d8c:	30 e0       	ldi	r19, 0x00	; 0
     d8e:	f3 01       	movw	r30, r6
     d90:	33 83       	std	Z+3, r19	; 0x03
     d92:	22 83       	std	Z+2, r18	; 0x02
     d94:	55 82       	std	Z+5, r5	; 0x05
     d96:	44 82       	std	Z+4, r4	; 0x04
     d98:	66 83       	std	Z+6, r22	; 0x06
     d9a:	77 83       	std	Z+7, r23	; 0x07
     d9c:	80 87       	std	Z+8, r24	; 0x08
     d9e:	91 87       	std	Z+9, r25	; 0x09
     da0:	0e 94 af 0c 	call	0x195e	; 0x195e <__floatsisf>
     da4:	9b 01       	movw	r18, r22
     da6:	ac 01       	movw	r20, r24
     da8:	c5 01       	movw	r24, r10
     daa:	b4 01       	movw	r22, r8
     dac:	0e 94 ab 0b 	call	0x1756	; 0x1756 <__subsf3>
     db0:	20 e0       	ldi	r18, 0x00	; 0
     db2:	30 e4       	ldi	r19, 0x40	; 64
     db4:	4c e1       	ldi	r20, 0x1C	; 28
     db6:	56 e4       	ldi	r21, 0x46	; 70
     db8:	0e 94 5f 0d 	call	0x1abe	; 0x1abe <__mulsf3>
     dbc:	0e 94 7c 0c 	call	0x18f8	; 0x18f8 <__fixsfsi>
     dc0:	dc 01       	movw	r26, r24
     dc2:	cb 01       	movw	r24, r22
     dc4:	f3 01       	movw	r30, r6
     dc6:	82 87       	std	Z+10, r24	; 0x0a
     dc8:	93 87       	std	Z+11, r25	; 0x0b
     dca:	a4 87       	std	Z+12, r26	; 0x0c
     dcc:	b5 87       	std	Z+13, r27	; 0x0d
     dce:	0e 94 0b 0e 	call	0x1c16	; 0x1c16 <sprintf>
     dd2:	2d b7       	in	r18, 0x3d	; 61
     dd4:	3e b7       	in	r19, 0x3e	; 62
     dd6:	22 5f       	subi	r18, 0xF2	; 242
     dd8:	3f 4f       	sbci	r19, 0xFF	; 255
     dda:	0f b6       	in	r0, 0x3f	; 63
     ddc:	f8 94       	cli
     dde:	3e bf       	out	0x3e, r19	; 62
     de0:	0f be       	out	0x3f, r0	; 63
     de2:	2d bf       	out	0x3d, r18	; 61
     de4:	81 2f       	mov	r24, r17
     de6:	6f 2d       	mov	r22, r15
     de8:	4d 2d       	mov	r20, r13
     dea:	29 89       	ldd	r18, Y+17	; 0x11
     dec:	51 01       	movw	r10, r2
     dee:	0e 94 e8 05 	call	0xbd0	; 0xbd0 <LCD_vsend_string>
     df2:	61 96       	adiw	r28, 0x11	; 17
     df4:	0f b6       	in	r0, 0x3f	; 63
     df6:	f8 94       	cli
     df8:	de bf       	out	0x3e, r29	; 62
     dfa:	0f be       	out	0x3f, r0	; 63
     dfc:	cd bf       	out	0x3d, r28	; 61
     dfe:	df 91       	pop	r29
     e00:	cf 91       	pop	r28
     e02:	1f 91       	pop	r17
     e04:	0f 91       	pop	r16
     e06:	ff 90       	pop	r15
     e08:	ef 90       	pop	r14
     e0a:	df 90       	pop	r13
     e0c:	cf 90       	pop	r12
     e0e:	bf 90       	pop	r11
     e10:	af 90       	pop	r10
     e12:	9f 90       	pop	r9
     e14:	8f 90       	pop	r8
     e16:	7f 90       	pop	r7
     e18:	6f 90       	pop	r6
     e1a:	5f 90       	pop	r5
     e1c:	4f 90       	pop	r4
     e1e:	3f 90       	pop	r3
     e20:	2f 90       	pop	r2
     e22:	08 95       	ret

00000e24 <LDR_sensor_vInit>:
     e24:	cf 93       	push	r28
     e26:	df 93       	push	r29
     e28:	0f 92       	push	r0
     e2a:	cd b7       	in	r28, 0x3d	; 61
     e2c:	de b7       	in	r29, 0x3e	; 62
     e2e:	89 83       	std	Y+1, r24	; 0x01
     e30:	0e 94 49 00 	call	0x92	; 0x92 <ADC_vInit>
     e34:	89 81       	ldd	r24, Y+1	; 0x01
     e36:	83 30       	cpi	r24, 0x03	; 3
     e38:	c9 f0       	breq	.+50     	; 0xe6c <LDR_sensor_vInit+0x48>
     e3a:	84 30       	cpi	r24, 0x04	; 4
     e3c:	28 f4       	brcc	.+10     	; 0xe48 <LDR_sensor_vInit+0x24>
     e3e:	81 30       	cpi	r24, 0x01	; 1
     e40:	79 f0       	breq	.+30     	; 0xe60 <LDR_sensor_vInit+0x3c>
     e42:	82 30       	cpi	r24, 0x02	; 2
     e44:	80 f4       	brcc	.+32     	; 0xe66 <LDR_sensor_vInit+0x42>
     e46:	09 c0       	rjmp	.+18     	; 0xe5a <LDR_sensor_vInit+0x36>
     e48:	85 30       	cpi	r24, 0x05	; 5
     e4a:	b1 f0       	breq	.+44     	; 0xe78 <LDR_sensor_vInit+0x54>
     e4c:	85 30       	cpi	r24, 0x05	; 5
     e4e:	88 f0       	brcs	.+34     	; 0xe72 <LDR_sensor_vInit+0x4e>
     e50:	86 30       	cpi	r24, 0x06	; 6
     e52:	a9 f0       	breq	.+42     	; 0xe7e <LDR_sensor_vInit+0x5a>
     e54:	87 30       	cpi	r24, 0x07	; 7
     e56:	d9 f4       	brne	.+54     	; 0xe8e <LDR_sensor_vInit+0x6a>
     e58:	15 c0       	rjmp	.+42     	; 0xe84 <LDR_sensor_vInit+0x60>
     e5a:	81 e4       	ldi	r24, 0x41	; 65
     e5c:	60 e0       	ldi	r22, 0x00	; 0
     e5e:	14 c0       	rjmp	.+40     	; 0xe88 <LDR_sensor_vInit+0x64>
     e60:	81 e4       	ldi	r24, 0x41	; 65
     e62:	61 e0       	ldi	r22, 0x01	; 1
     e64:	11 c0       	rjmp	.+34     	; 0xe88 <LDR_sensor_vInit+0x64>
     e66:	81 e4       	ldi	r24, 0x41	; 65
     e68:	62 e0       	ldi	r22, 0x02	; 2
     e6a:	0e c0       	rjmp	.+28     	; 0xe88 <LDR_sensor_vInit+0x64>
     e6c:	81 e4       	ldi	r24, 0x41	; 65
     e6e:	63 e0       	ldi	r22, 0x03	; 3
     e70:	0b c0       	rjmp	.+22     	; 0xe88 <LDR_sensor_vInit+0x64>
     e72:	81 e4       	ldi	r24, 0x41	; 65
     e74:	64 e0       	ldi	r22, 0x04	; 4
     e76:	08 c0       	rjmp	.+16     	; 0xe88 <LDR_sensor_vInit+0x64>
     e78:	81 e4       	ldi	r24, 0x41	; 65
     e7a:	65 e0       	ldi	r22, 0x05	; 5
     e7c:	05 c0       	rjmp	.+10     	; 0xe88 <LDR_sensor_vInit+0x64>
     e7e:	81 e4       	ldi	r24, 0x41	; 65
     e80:	66 e0       	ldi	r22, 0x06	; 6
     e82:	02 c0       	rjmp	.+4      	; 0xe88 <LDR_sensor_vInit+0x64>
     e84:	81 e4       	ldi	r24, 0x41	; 65
     e86:	67 e0       	ldi	r22, 0x07	; 7
     e88:	40 e0       	ldi	r20, 0x00	; 0
     e8a:	0e 94 7c 00 	call	0xf8	; 0xf8 <GPIO_vsetPIN_DIR>
     e8e:	0f 90       	pop	r0
     e90:	df 91       	pop	r29
     e92:	cf 91       	pop	r28
     e94:	08 95       	ret

00000e96 <LDR_sensor_u16Read>:
     e96:	0e 94 50 00 	call	0xa0	; 0xa0 <ADC_u16Read_Single_Endded>
     e9a:	08 95       	ret

00000e9c <LED_vintialize>:
     e9c:	41 e0       	ldi	r20, 0x01	; 1
     e9e:	0e 94 7c 00 	call	0xf8	; 0xf8 <GPIO_vsetPIN_DIR>
     ea2:	08 95       	ret

00000ea4 <LED_vTurnon>:
     ea4:	41 e0       	ldi	r20, 0x01	; 1
     ea6:	0e 94 db 00 	call	0x1b6	; 0x1b6 <GPIO_vwrite_PIN>
     eaa:	08 95       	ret

00000eac <LED_vTurnoff>:
     eac:	40 e0       	ldi	r20, 0x00	; 0
     eae:	0e 94 db 00 	call	0x1b6	; 0x1b6 <GPIO_vwrite_PIN>
     eb2:	08 95       	ret

00000eb4 <LED_vtoggle>:
     eb4:	0e 94 6b 01 	call	0x2d6	; 0x2d6 <GPIO_vtoggle_PIN>
     eb8:	08 95       	ret

00000eba <PIR_Init>:
     eba:	40 e0       	ldi	r20, 0x00	; 0
     ebc:	0e 94 7c 00 	call	0xf8	; 0xf8 <GPIO_vsetPIN_DIR>
     ec0:	08 95       	ret

00000ec2 <PIR_u8Read>:
     ec2:	0e 94 3a 01 	call	0x274	; 0x274 <GPIO_u8read_PIN>
     ec6:	08 95       	ret

00000ec8 <Relay_vintialize>:
     ec8:	41 e0       	ldi	r20, 0x01	; 1
     eca:	0e 94 7c 00 	call	0xf8	; 0xf8 <GPIO_vsetPIN_DIR>
     ece:	08 95       	ret

00000ed0 <Relay_vTurnon>:
     ed0:	41 e0       	ldi	r20, 0x01	; 1
     ed2:	0e 94 db 00 	call	0x1b6	; 0x1b6 <GPIO_vwrite_PIN>
     ed6:	08 95       	ret

00000ed8 <Relay_vTurnoff>:
     ed8:	40 e0       	ldi	r20, 0x00	; 0
     eda:	0e 94 db 00 	call	0x1b6	; 0x1b6 <GPIO_vwrite_PIN>
     ede:	08 95       	ret

00000ee0 <Seven_Segment_Init>:
     ee0:	98 2f       	mov	r25, r24
     ee2:	86 2f       	mov	r24, r22
     ee4:	99 23       	and	r25, r25
     ee6:	61 f4       	brne	.+24     	; 0xf00 <Seven_Segment_Init+0x20>
     ee8:	44 23       	and	r20, r20
     eea:	21 f4       	brne	.+8      	; 0xef4 <Seven_Segment_Init+0x14>
     eec:	61 e0       	ldi	r22, 0x01	; 1
     eee:	0e 94 fe 02 	call	0x5fc	; 0x5fc <GPIO_Low_Nibble_vset_dir>
     ef2:	08 95       	ret
     ef4:	41 30       	cpi	r20, 0x01	; 1
     ef6:	49 f4       	brne	.+18     	; 0xf0a <Seven_Segment_Init+0x2a>
     ef8:	61 e0       	ldi	r22, 0x01	; 1
     efa:	0e 94 9e 02 	call	0x53c	; 0x53c <GPIO_High_Nibble_vset_dir>
     efe:	08 95       	ret
     f00:	91 30       	cpi	r25, 0x01	; 1
     f02:	19 f4       	brne	.+6      	; 0xf0a <Seven_Segment_Init+0x2a>
     f04:	6f ef       	ldi	r22, 0xFF	; 255
     f06:	0e 94 10 02 	call	0x420	; 0x420 <GPIO_vset_PORT_DIR>
     f0a:	08 95       	ret

00000f0c <Seven_segment_Display>:
     f0c:	cf 93       	push	r28
     f0e:	df 93       	push	r29
     f10:	cd b7       	in	r28, 0x3d	; 61
     f12:	de b7       	in	r29, 0x3e	; 62
     f14:	2a 97       	sbiw	r28, 0x0a	; 10
     f16:	0f b6       	in	r0, 0x3f	; 63
     f18:	f8 94       	cli
     f1a:	de bf       	out	0x3e, r29	; 62
     f1c:	0f be       	out	0x3f, r0	; 63
     f1e:	cd bf       	out	0x3d, r28	; 61
     f20:	98 2f       	mov	r25, r24
     f22:	36 2f       	mov	r19, r22
     f24:	84 2f       	mov	r24, r20
     f26:	62 2f       	mov	r22, r18
     f28:	99 23       	and	r25, r25
     f2a:	51 f4       	brne	.+20     	; 0xf40 <Seven_segment_Display+0x34>
     f2c:	33 23       	and	r19, r19
     f2e:	19 f4       	brne	.+6      	; 0xf36 <Seven_segment_Display+0x2a>
     f30:	0e 94 29 03 	call	0x652	; 0x652 <GPIO_Low_Nibble_vwrite>
     f34:	20 c0       	rjmp	.+64     	; 0xf76 <Seven_segment_Display+0x6a>
     f36:	31 30       	cpi	r19, 0x01	; 1
     f38:	f1 f4       	brne	.+60     	; 0xf76 <Seven_segment_Display+0x6a>
     f3a:	0e 94 c9 02 	call	0x592	; 0x592 <GPIO_High_Nibble_vwrite>
     f3e:	1b c0       	rjmp	.+54     	; 0xf76 <Seven_segment_Display+0x6a>
     f40:	91 30       	cpi	r25, 0x01	; 1
     f42:	c9 f4       	brne	.+50     	; 0xf76 <Seven_segment_Display+0x6a>
     f44:	de 01       	movw	r26, r28
     f46:	11 96       	adiw	r26, 0x01	; 1
     f48:	2a 30       	cpi	r18, 0x0A	; 10
     f4a:	40 f4       	brcc	.+16     	; 0xf5c <Seven_segment_Display+0x50>
     f4c:	ed e8       	ldi	r30, 0x8D	; 141
     f4e:	f0 e0       	ldi	r31, 0x00	; 0
     f50:	9a e0       	ldi	r25, 0x0A	; 10
     f52:	01 90       	ld	r0, Z+
     f54:	0d 92       	st	X+, r0
     f56:	91 50       	subi	r25, 0x01	; 1
     f58:	e1 f7       	brne	.-8      	; 0xf52 <Seven_segment_Display+0x46>
     f5a:	07 c0       	rjmp	.+14     	; 0xf6a <Seven_segment_Display+0x5e>
     f5c:	e7 e9       	ldi	r30, 0x97	; 151
     f5e:	f0 e0       	ldi	r31, 0x00	; 0
     f60:	96 e0       	ldi	r25, 0x06	; 6
     f62:	01 90       	ld	r0, Z+
     f64:	0d 92       	st	X+, r0
     f66:	91 50       	subi	r25, 0x01	; 1
     f68:	e1 f7       	brne	.-8      	; 0xf62 <Seven_segment_Display+0x56>
     f6a:	fe 01       	movw	r30, r28
     f6c:	e6 0f       	add	r30, r22
     f6e:	f1 1d       	adc	r31, r1
     f70:	61 81       	ldd	r22, Z+1	; 0x01
     f72:	0e 94 2f 02 	call	0x45e	; 0x45e <GPIO_vwrite_PORT>
     f76:	2a 96       	adiw	r28, 0x0a	; 10
     f78:	0f b6       	in	r0, 0x3f	; 63
     f7a:	f8 94       	cli
     f7c:	de bf       	out	0x3e, r29	; 62
     f7e:	0f be       	out	0x3f, r0	; 63
     f80:	cd bf       	out	0x3d, r28	; 61
     f82:	df 91       	pop	r29
     f84:	cf 91       	pop	r28
     f86:	08 95       	ret

00000f88 <temp_sensor_vInit>:
     f88:	cf 93       	push	r28
     f8a:	df 93       	push	r29
     f8c:	0f 92       	push	r0
     f8e:	cd b7       	in	r28, 0x3d	; 61
     f90:	de b7       	in	r29, 0x3e	; 62
     f92:	89 83       	std	Y+1, r24	; 0x01
     f94:	0e 94 49 00 	call	0x92	; 0x92 <ADC_vInit>
     f98:	89 81       	ldd	r24, Y+1	; 0x01
     f9a:	83 30       	cpi	r24, 0x03	; 3
     f9c:	c9 f0       	breq	.+50     	; 0xfd0 <temp_sensor_vInit+0x48>
     f9e:	84 30       	cpi	r24, 0x04	; 4
     fa0:	28 f4       	brcc	.+10     	; 0xfac <temp_sensor_vInit+0x24>
     fa2:	81 30       	cpi	r24, 0x01	; 1
     fa4:	79 f0       	breq	.+30     	; 0xfc4 <temp_sensor_vInit+0x3c>
     fa6:	82 30       	cpi	r24, 0x02	; 2
     fa8:	80 f4       	brcc	.+32     	; 0xfca <temp_sensor_vInit+0x42>
     faa:	09 c0       	rjmp	.+18     	; 0xfbe <temp_sensor_vInit+0x36>
     fac:	85 30       	cpi	r24, 0x05	; 5
     fae:	b1 f0       	breq	.+44     	; 0xfdc <temp_sensor_vInit+0x54>
     fb0:	85 30       	cpi	r24, 0x05	; 5
     fb2:	88 f0       	brcs	.+34     	; 0xfd6 <temp_sensor_vInit+0x4e>
     fb4:	86 30       	cpi	r24, 0x06	; 6
     fb6:	a9 f0       	breq	.+42     	; 0xfe2 <temp_sensor_vInit+0x5a>
     fb8:	87 30       	cpi	r24, 0x07	; 7
     fba:	d9 f4       	brne	.+54     	; 0xff2 <temp_sensor_vInit+0x6a>
     fbc:	15 c0       	rjmp	.+42     	; 0xfe8 <temp_sensor_vInit+0x60>
     fbe:	81 e4       	ldi	r24, 0x41	; 65
     fc0:	60 e0       	ldi	r22, 0x00	; 0
     fc2:	14 c0       	rjmp	.+40     	; 0xfec <temp_sensor_vInit+0x64>
     fc4:	81 e4       	ldi	r24, 0x41	; 65
     fc6:	61 e0       	ldi	r22, 0x01	; 1
     fc8:	11 c0       	rjmp	.+34     	; 0xfec <temp_sensor_vInit+0x64>
     fca:	81 e4       	ldi	r24, 0x41	; 65
     fcc:	62 e0       	ldi	r22, 0x02	; 2
     fce:	0e c0       	rjmp	.+28     	; 0xfec <temp_sensor_vInit+0x64>
     fd0:	81 e4       	ldi	r24, 0x41	; 65
     fd2:	63 e0       	ldi	r22, 0x03	; 3
     fd4:	0b c0       	rjmp	.+22     	; 0xfec <temp_sensor_vInit+0x64>
     fd6:	81 e4       	ldi	r24, 0x41	; 65
     fd8:	64 e0       	ldi	r22, 0x04	; 4
     fda:	08 c0       	rjmp	.+16     	; 0xfec <temp_sensor_vInit+0x64>
     fdc:	81 e4       	ldi	r24, 0x41	; 65
     fde:	65 e0       	ldi	r22, 0x05	; 5
     fe0:	05 c0       	rjmp	.+10     	; 0xfec <temp_sensor_vInit+0x64>
     fe2:	81 e4       	ldi	r24, 0x41	; 65
     fe4:	66 e0       	ldi	r22, 0x06	; 6
     fe6:	02 c0       	rjmp	.+4      	; 0xfec <temp_sensor_vInit+0x64>
     fe8:	81 e4       	ldi	r24, 0x41	; 65
     fea:	67 e0       	ldi	r22, 0x07	; 7
     fec:	40 e0       	ldi	r20, 0x00	; 0
     fee:	0e 94 7c 00 	call	0xf8	; 0xf8 <GPIO_vsetPIN_DIR>
     ff2:	0f 90       	pop	r0
     ff4:	df 91       	pop	r29
     ff6:	cf 91       	pop	r28
     ff8:	08 95       	ret

00000ffa <temp_sensor_u16Read>:
     ffa:	0e 94 50 00 	call	0xa0	; 0xa0 <ADC_u16Read_Single_Endded>
     ffe:	bc 01       	movw	r22, r24
    1000:	80 e0       	ldi	r24, 0x00	; 0
    1002:	90 e0       	ldi	r25, 0x00	; 0
    1004:	0e 94 ad 0c 	call	0x195a	; 0x195a <__floatunsisf>
    1008:	2a e0       	ldi	r18, 0x0A	; 10
    100a:	37 ed       	ldi	r19, 0xD7	; 215
    100c:	43 e2       	ldi	r20, 0x23	; 35
    100e:	50 e4       	ldi	r21, 0x40	; 64
    1010:	0e 94 5f 0d 	call	0x1abe	; 0x1abe <__mulsf3>
    1014:	20 e0       	ldi	r18, 0x00	; 0
    1016:	30 e0       	ldi	r19, 0x00	; 0
    1018:	4a e7       	ldi	r20, 0x7A	; 122
    101a:	54 e4       	ldi	r21, 0x44	; 68
    101c:	0e 94 5f 0d 	call	0x1abe	; 0x1abe <__mulsf3>
    1020:	20 e0       	ldi	r18, 0x00	; 0
    1022:	30 e0       	ldi	r19, 0x00	; 0
    1024:	40 e2       	ldi	r20, 0x20	; 32
    1026:	56 e4       	ldi	r21, 0x46	; 70
    1028:	0e 94 14 0c 	call	0x1828	; 0x1828 <__divsf3>
    102c:	0e 94 81 0c 	call	0x1902	; 0x1902 <__fixunssfsi>
    1030:	cb 01       	movw	r24, r22
    1032:	08 95       	ret

00001034 <TMR0_Get_Configuration>:
    1034:	80 93 a6 00 	sts	0x00A6, r24
    1038:	20 93 a9 00 	sts	0x00A9, r18
    103c:	60 93 a7 00 	sts	0x00A7, r22
    1040:	40 93 a8 00 	sts	0x00A8, r20
    1044:	08 95       	ret

00001046 <TMR0_vInit>:
    1046:	80 91 a6 00 	lds	r24, 0x00A6
    104a:	88 23       	and	r24, r24
    104c:	19 f4       	brne	.+6      	; 0x1054 <TMR0_vInit+0xe>
    104e:	83 b7       	in	r24, 0x33	; 51
    1050:	8f 7b       	andi	r24, 0xBF	; 191
    1052:	13 c0       	rjmp	.+38     	; 0x107a <TMR0_vInit+0x34>
    1054:	81 30       	cpi	r24, 0x01	; 1
    1056:	11 f0       	breq	.+4      	; 0x105c <TMR0_vInit+0x16>
    1058:	82 30       	cpi	r24, 0x02	; 2
    105a:	19 f4       	brne	.+6      	; 0x1062 <TMR0_vInit+0x1c>
    105c:	83 b7       	in	r24, 0x33	; 51
    105e:	8f 7b       	andi	r24, 0xBF	; 191
    1060:	04 c0       	rjmp	.+8      	; 0x106a <TMR0_vInit+0x24>
    1062:	83 30       	cpi	r24, 0x03	; 3
    1064:	31 f4       	brne	.+12     	; 0x1072 <TMR0_vInit+0x2c>
    1066:	83 b7       	in	r24, 0x33	; 51
    1068:	80 64       	ori	r24, 0x40	; 64
    106a:	83 bf       	out	0x33, r24	; 51
    106c:	83 b7       	in	r24, 0x33	; 51
    106e:	88 60       	ori	r24, 0x08	; 8
    1070:	07 c0       	rjmp	.+14     	; 0x1080 <TMR0_vInit+0x3a>
    1072:	84 30       	cpi	r24, 0x04	; 4
    1074:	31 f4       	brne	.+12     	; 0x1082 <TMR0_vInit+0x3c>
    1076:	83 b7       	in	r24, 0x33	; 51
    1078:	80 64       	ori	r24, 0x40	; 64
    107a:	83 bf       	out	0x33, r24	; 51
    107c:	83 b7       	in	r24, 0x33	; 51
    107e:	87 7f       	andi	r24, 0xF7	; 247
    1080:	83 bf       	out	0x33, r24	; 51
    1082:	83 b7       	in	r24, 0x33	; 51
    1084:	90 91 a9 00 	lds	r25, 0x00A9
    1088:	89 2b       	or	r24, r25
    108a:	83 bf       	out	0x33, r24	; 51
    108c:	80 91 a7 00 	lds	r24, 0x00A7
    1090:	88 23       	and	r24, r24
    1092:	19 f4       	brne	.+6      	; 0x109a <TMR0_vInit+0x54>
    1094:	89 b7       	in	r24, 0x39	; 57
    1096:	81 60       	ori	r24, 0x01	; 1
    1098:	04 c0       	rjmp	.+8      	; 0x10a2 <TMR0_vInit+0x5c>
    109a:	81 30       	cpi	r24, 0x01	; 1
    109c:	19 f4       	brne	.+6      	; 0x10a4 <TMR0_vInit+0x5e>
    109e:	89 b7       	in	r24, 0x39	; 57
    10a0:	8e 7f       	andi	r24, 0xFE	; 254
    10a2:	89 bf       	out	0x39, r24	; 57
    10a4:	80 91 a8 00 	lds	r24, 0x00A8
    10a8:	88 23       	and	r24, r24
    10aa:	21 f4       	brne	.+8      	; 0x10b4 <TMR0_vInit+0x6e>
    10ac:	89 b7       	in	r24, 0x39	; 57
    10ae:	82 60       	ori	r24, 0x02	; 2
    10b0:	89 bf       	out	0x39, r24	; 57
    10b2:	08 95       	ret
    10b4:	81 30       	cpi	r24, 0x01	; 1
    10b6:	19 f4       	brne	.+6      	; 0x10be <TMR0_vInit+0x78>
    10b8:	89 b7       	in	r24, 0x39	; 57
    10ba:	8d 7f       	andi	r24, 0xFD	; 253
    10bc:	89 bf       	out	0x39, r24	; 57
    10be:	08 95       	ret

000010c0 <TMR0_Set_Compare_Value>:
    10c0:	8c bf       	out	0x3c, r24	; 60
    10c2:	08 95       	ret

000010c4 <TMR0_Set_Counter_Value>:
    10c4:	82 bf       	out	0x32, r24	; 50
    10c6:	08 95       	ret

000010c8 <TMR0_Read_count>:
    10c8:	82 b7       	in	r24, 0x32	; 50
    10ca:	08 95       	ret

000010cc <TMR0_COM_Non_PWM_Gen>:
    10cc:	bb 9a       	sbi	0x17, 3	; 23
    10ce:	38 2f       	mov	r19, r24
    10d0:	20 e0       	ldi	r18, 0x00	; 0
    10d2:	c9 01       	movw	r24, r18
    10d4:	64 e6       	ldi	r22, 0x64	; 100
    10d6:	70 e0       	ldi	r23, 0x00	; 0
    10d8:	0e 94 c2 0d 	call	0x1b84	; 0x1b84 <__divmodhi4>
    10dc:	6c bf       	out	0x3c, r22	; 60
    10de:	83 b7       	in	r24, 0x33	; 51
    10e0:	80 61       	ori	r24, 0x10	; 16
    10e2:	83 bf       	out	0x33, r24	; 51
    10e4:	83 b7       	in	r24, 0x33	; 51
    10e6:	8f 7d       	andi	r24, 0xDF	; 223
    10e8:	83 bf       	out	0x33, r24	; 51
    10ea:	08 95       	ret

000010ec <TMR0_Fast_PWM_Gen>:
    10ec:	bb 9a       	sbi	0x17, 3	; 23
    10ee:	38 2f       	mov	r19, r24
    10f0:	20 e0       	ldi	r18, 0x00	; 0
    10f2:	c9 01       	movw	r24, r18
    10f4:	64 e6       	ldi	r22, 0x64	; 100
    10f6:	70 e0       	ldi	r23, 0x00	; 0
    10f8:	0e 94 c2 0d 	call	0x1b84	; 0x1b84 <__divmodhi4>
    10fc:	6c bf       	out	0x3c, r22	; 60
    10fe:	83 b7       	in	r24, 0x33	; 51
    1100:	80 61       	ori	r24, 0x10	; 16
    1102:	83 bf       	out	0x33, r24	; 51
    1104:	83 b7       	in	r24, 0x33	; 51
    1106:	80 62       	ori	r24, 0x20	; 32
    1108:	83 bf       	out	0x33, r24	; 51
    110a:	08 95       	ret

0000110c <TMR0_Phase_Correct_PWM_Gen>:
    110c:	bb 9a       	sbi	0x17, 3	; 23
    110e:	38 2f       	mov	r19, r24
    1110:	20 e0       	ldi	r18, 0x00	; 0
    1112:	c9 01       	movw	r24, r18
    1114:	64 e6       	ldi	r22, 0x64	; 100
    1116:	70 e0       	ldi	r23, 0x00	; 0
    1118:	0e 94 c2 0d 	call	0x1b84	; 0x1b84 <__divmodhi4>
    111c:	6c bf       	out	0x3c, r22	; 60
    111e:	83 b7       	in	r24, 0x33	; 51
    1120:	80 61       	ori	r24, 0x10	; 16
    1122:	83 bf       	out	0x33, r24	; 51
    1124:	83 b7       	in	r24, 0x33	; 51
    1126:	80 62       	ori	r24, 0x20	; 32
    1128:	83 bf       	out	0x33, r24	; 51
    112a:	08 95       	ret

0000112c <callback_TMR0_Overflow_Interrupt>:
    112c:	90 93 9f 00 	sts	0x009F, r25
    1130:	80 93 9e 00 	sts	0x009E, r24
    1134:	08 95       	ret

00001136 <callback_OCR0_Compare_Match_Interrupt>:
    1136:	90 93 a1 00 	sts	0x00A1, r25
    113a:	80 93 a0 00 	sts	0x00A0, r24
    113e:	08 95       	ret

00001140 <__vector_10>:
    1140:	1f 92       	push	r1
    1142:	0f 92       	push	r0
    1144:	0f b6       	in	r0, 0x3f	; 63
    1146:	0f 92       	push	r0
    1148:	11 24       	eor	r1, r1
    114a:	2f 93       	push	r18
    114c:	3f 93       	push	r19
    114e:	4f 93       	push	r20
    1150:	5f 93       	push	r21
    1152:	6f 93       	push	r22
    1154:	7f 93       	push	r23
    1156:	8f 93       	push	r24
    1158:	9f 93       	push	r25
    115a:	af 93       	push	r26
    115c:	bf 93       	push	r27
    115e:	ef 93       	push	r30
    1160:	ff 93       	push	r31
    1162:	e0 91 a0 00 	lds	r30, 0x00A0
    1166:	f0 91 a1 00 	lds	r31, 0x00A1
    116a:	09 95       	icall
    116c:	ff 91       	pop	r31
    116e:	ef 91       	pop	r30
    1170:	bf 91       	pop	r27
    1172:	af 91       	pop	r26
    1174:	9f 91       	pop	r25
    1176:	8f 91       	pop	r24
    1178:	7f 91       	pop	r23
    117a:	6f 91       	pop	r22
    117c:	5f 91       	pop	r21
    117e:	4f 91       	pop	r20
    1180:	3f 91       	pop	r19
    1182:	2f 91       	pop	r18
    1184:	0f 90       	pop	r0
    1186:	0f be       	out	0x3f, r0	; 63
    1188:	0f 90       	pop	r0
    118a:	1f 90       	pop	r1
    118c:	18 95       	reti

0000118e <__vector_11>:
    118e:	1f 92       	push	r1
    1190:	0f 92       	push	r0
    1192:	0f b6       	in	r0, 0x3f	; 63
    1194:	0f 92       	push	r0
    1196:	11 24       	eor	r1, r1
    1198:	2f 93       	push	r18
    119a:	3f 93       	push	r19
    119c:	4f 93       	push	r20
    119e:	5f 93       	push	r21
    11a0:	6f 93       	push	r22
    11a2:	7f 93       	push	r23
    11a4:	8f 93       	push	r24
    11a6:	9f 93       	push	r25
    11a8:	af 93       	push	r26
    11aa:	bf 93       	push	r27
    11ac:	ef 93       	push	r30
    11ae:	ff 93       	push	r31
    11b0:	e0 91 9e 00 	lds	r30, 0x009E
    11b4:	f0 91 9f 00 	lds	r31, 0x009F
    11b8:	09 95       	icall
    11ba:	ff 91       	pop	r31
    11bc:	ef 91       	pop	r30
    11be:	bf 91       	pop	r27
    11c0:	af 91       	pop	r26
    11c2:	9f 91       	pop	r25
    11c4:	8f 91       	pop	r24
    11c6:	7f 91       	pop	r23
    11c8:	6f 91       	pop	r22
    11ca:	5f 91       	pop	r21
    11cc:	4f 91       	pop	r20
    11ce:	3f 91       	pop	r19
    11d0:	2f 91       	pop	r18
    11d2:	0f 90       	pop	r0
    11d4:	0f be       	out	0x3f, r0	; 63
    11d6:	0f 90       	pop	r0
    11d8:	1f 90       	pop	r1
    11da:	18 95       	reti

000011dc <TMR2_Get_Configuration>:
    11dc:	80 93 b8 00 	sts	0x00B8, r24
    11e0:	20 93 bb 00 	sts	0x00BB, r18
    11e4:	60 93 b9 00 	sts	0x00B9, r22
    11e8:	40 93 ba 00 	sts	0x00BA, r20
    11ec:	08 95       	ret

000011ee <TMR2_vInit>:
    11ee:	80 91 b8 00 	lds	r24, 0x00B8
    11f2:	88 23       	and	r24, r24
    11f4:	19 f4       	brne	.+6      	; 0x11fc <TMR2_vInit+0xe>
    11f6:	85 b5       	in	r24, 0x25	; 37
    11f8:	8f 7b       	andi	r24, 0xBF	; 191
    11fa:	13 c0       	rjmp	.+38     	; 0x1222 <TMR2_vInit+0x34>
    11fc:	81 30       	cpi	r24, 0x01	; 1
    11fe:	11 f0       	breq	.+4      	; 0x1204 <TMR2_vInit+0x16>
    1200:	82 30       	cpi	r24, 0x02	; 2
    1202:	19 f4       	brne	.+6      	; 0x120a <TMR2_vInit+0x1c>
    1204:	85 b5       	in	r24, 0x25	; 37
    1206:	8f 7b       	andi	r24, 0xBF	; 191
    1208:	04 c0       	rjmp	.+8      	; 0x1212 <TMR2_vInit+0x24>
    120a:	83 30       	cpi	r24, 0x03	; 3
    120c:	31 f4       	brne	.+12     	; 0x121a <TMR2_vInit+0x2c>
    120e:	85 b5       	in	r24, 0x25	; 37
    1210:	80 64       	ori	r24, 0x40	; 64
    1212:	85 bd       	out	0x25, r24	; 37
    1214:	85 b5       	in	r24, 0x25	; 37
    1216:	88 60       	ori	r24, 0x08	; 8
    1218:	07 c0       	rjmp	.+14     	; 0x1228 <TMR2_vInit+0x3a>
    121a:	84 30       	cpi	r24, 0x04	; 4
    121c:	31 f4       	brne	.+12     	; 0x122a <TMR2_vInit+0x3c>
    121e:	85 b5       	in	r24, 0x25	; 37
    1220:	80 64       	ori	r24, 0x40	; 64
    1222:	85 bd       	out	0x25, r24	; 37
    1224:	85 b5       	in	r24, 0x25	; 37
    1226:	87 7f       	andi	r24, 0xF7	; 247
    1228:	85 bd       	out	0x25, r24	; 37
    122a:	85 b5       	in	r24, 0x25	; 37
    122c:	90 91 bb 00 	lds	r25, 0x00BB
    1230:	89 2b       	or	r24, r25
    1232:	85 bd       	out	0x25, r24	; 37
    1234:	80 91 b9 00 	lds	r24, 0x00B9
    1238:	88 23       	and	r24, r24
    123a:	19 f4       	brne	.+6      	; 0x1242 <TMR2_vInit+0x54>
    123c:	89 b7       	in	r24, 0x39	; 57
    123e:	80 64       	ori	r24, 0x40	; 64
    1240:	04 c0       	rjmp	.+8      	; 0x124a <TMR2_vInit+0x5c>
    1242:	81 30       	cpi	r24, 0x01	; 1
    1244:	19 f4       	brne	.+6      	; 0x124c <TMR2_vInit+0x5e>
    1246:	89 b7       	in	r24, 0x39	; 57
    1248:	8f 7b       	andi	r24, 0xBF	; 191
    124a:	89 bf       	out	0x39, r24	; 57
    124c:	80 91 ba 00 	lds	r24, 0x00BA
    1250:	88 23       	and	r24, r24
    1252:	21 f4       	brne	.+8      	; 0x125c <TMR2_vInit+0x6e>
    1254:	89 b7       	in	r24, 0x39	; 57
    1256:	80 68       	ori	r24, 0x80	; 128
    1258:	89 bf       	out	0x39, r24	; 57
    125a:	08 95       	ret
    125c:	81 30       	cpi	r24, 0x01	; 1
    125e:	19 f4       	brne	.+6      	; 0x1266 <TMR2_vInit+0x78>
    1260:	89 b7       	in	r24, 0x39	; 57
    1262:	8f 77       	andi	r24, 0x7F	; 127
    1264:	89 bf       	out	0x39, r24	; 57
    1266:	08 95       	ret

00001268 <TMR2_Set_Compare_Value>:
    1268:	83 bd       	out	0x23, r24	; 35
    126a:	08 95       	ret

0000126c <TMR2_Read_count>:
    126c:	84 b5       	in	r24, 0x24	; 36
    126e:	08 95       	ret

00001270 <TMR2_Set_Counter_Value>:
    1270:	84 bd       	out	0x24, r24	; 36
    1272:	08 95       	ret

00001274 <TMR2_COM_Non_PWM_Gen>:
    1274:	8f 9a       	sbi	0x11, 7	; 17
    1276:	38 2f       	mov	r19, r24
    1278:	20 e0       	ldi	r18, 0x00	; 0
    127a:	c9 01       	movw	r24, r18
    127c:	64 e6       	ldi	r22, 0x64	; 100
    127e:	70 e0       	ldi	r23, 0x00	; 0
    1280:	0e 94 c2 0d 	call	0x1b84	; 0x1b84 <__divmodhi4>
    1284:	63 bd       	out	0x23, r22	; 35
    1286:	85 b5       	in	r24, 0x25	; 37
    1288:	80 61       	ori	r24, 0x10	; 16
    128a:	85 bd       	out	0x25, r24	; 37
    128c:	85 b5       	in	r24, 0x25	; 37
    128e:	8f 7d       	andi	r24, 0xDF	; 223
    1290:	85 bd       	out	0x25, r24	; 37
    1292:	08 95       	ret

00001294 <TMR2_Fast_PWM_Gen>:
    1294:	8f 9a       	sbi	0x11, 7	; 17
    1296:	38 2f       	mov	r19, r24
    1298:	20 e0       	ldi	r18, 0x00	; 0
    129a:	c9 01       	movw	r24, r18
    129c:	64 e6       	ldi	r22, 0x64	; 100
    129e:	70 e0       	ldi	r23, 0x00	; 0
    12a0:	0e 94 c2 0d 	call	0x1b84	; 0x1b84 <__divmodhi4>
    12a4:	63 bd       	out	0x23, r22	; 35
    12a6:	85 b5       	in	r24, 0x25	; 37
    12a8:	80 61       	ori	r24, 0x10	; 16
    12aa:	85 bd       	out	0x25, r24	; 37
    12ac:	85 b5       	in	r24, 0x25	; 37
    12ae:	80 62       	ori	r24, 0x20	; 32
    12b0:	85 bd       	out	0x25, r24	; 37
    12b2:	08 95       	ret

000012b4 <TMR2_Phase_Correct_PWM_Gen>:
    12b4:	8f 9a       	sbi	0x11, 7	; 17
    12b6:	38 2f       	mov	r19, r24
    12b8:	20 e0       	ldi	r18, 0x00	; 0
    12ba:	c9 01       	movw	r24, r18
    12bc:	64 e6       	ldi	r22, 0x64	; 100
    12be:	70 e0       	ldi	r23, 0x00	; 0
    12c0:	0e 94 c2 0d 	call	0x1b84	; 0x1b84 <__divmodhi4>
    12c4:	63 bd       	out	0x23, r22	; 35
    12c6:	85 b5       	in	r24, 0x25	; 37
    12c8:	80 61       	ori	r24, 0x10	; 16
    12ca:	85 bd       	out	0x25, r24	; 37
    12cc:	85 b5       	in	r24, 0x25	; 37
    12ce:	80 62       	ori	r24, 0x20	; 32
    12d0:	85 bd       	out	0x25, r24	; 37
    12d2:	08 95       	ret

000012d4 <callback_TMR2_Overflow_Interrupt>:
    12d4:	90 93 a3 00 	sts	0x00A3, r25
    12d8:	80 93 a2 00 	sts	0x00A2, r24
    12dc:	08 95       	ret

000012de <callback_OCR2_Compare_Match_Interrupt>:
    12de:	90 93 a5 00 	sts	0x00A5, r25
    12e2:	80 93 a4 00 	sts	0x00A4, r24
    12e6:	08 95       	ret

000012e8 <__vector_4>:
    12e8:	1f 92       	push	r1
    12ea:	0f 92       	push	r0
    12ec:	0f b6       	in	r0, 0x3f	; 63
    12ee:	0f 92       	push	r0
    12f0:	11 24       	eor	r1, r1
    12f2:	2f 93       	push	r18
    12f4:	3f 93       	push	r19
    12f6:	4f 93       	push	r20
    12f8:	5f 93       	push	r21
    12fa:	6f 93       	push	r22
    12fc:	7f 93       	push	r23
    12fe:	8f 93       	push	r24
    1300:	9f 93       	push	r25
    1302:	af 93       	push	r26
    1304:	bf 93       	push	r27
    1306:	ef 93       	push	r30
    1308:	ff 93       	push	r31
    130a:	e0 91 a4 00 	lds	r30, 0x00A4
    130e:	f0 91 a5 00 	lds	r31, 0x00A5
    1312:	09 95       	icall
    1314:	ff 91       	pop	r31
    1316:	ef 91       	pop	r30
    1318:	bf 91       	pop	r27
    131a:	af 91       	pop	r26
    131c:	9f 91       	pop	r25
    131e:	8f 91       	pop	r24
    1320:	7f 91       	pop	r23
    1322:	6f 91       	pop	r22
    1324:	5f 91       	pop	r21
    1326:	4f 91       	pop	r20
    1328:	3f 91       	pop	r19
    132a:	2f 91       	pop	r18
    132c:	0f 90       	pop	r0
    132e:	0f be       	out	0x3f, r0	; 63
    1330:	0f 90       	pop	r0
    1332:	1f 90       	pop	r1
    1334:	18 95       	reti

00001336 <__vector_5>:
    1336:	1f 92       	push	r1
    1338:	0f 92       	push	r0
    133a:	0f b6       	in	r0, 0x3f	; 63
    133c:	0f 92       	push	r0
    133e:	11 24       	eor	r1, r1
    1340:	2f 93       	push	r18
    1342:	3f 93       	push	r19
    1344:	4f 93       	push	r20
    1346:	5f 93       	push	r21
    1348:	6f 93       	push	r22
    134a:	7f 93       	push	r23
    134c:	8f 93       	push	r24
    134e:	9f 93       	push	r25
    1350:	af 93       	push	r26
    1352:	bf 93       	push	r27
    1354:	ef 93       	push	r30
    1356:	ff 93       	push	r31
    1358:	e0 91 a2 00 	lds	r30, 0x00A2
    135c:	f0 91 a3 00 	lds	r31, 0x00A3
    1360:	09 95       	icall
    1362:	ff 91       	pop	r31
    1364:	ef 91       	pop	r30
    1366:	bf 91       	pop	r27
    1368:	af 91       	pop	r26
    136a:	9f 91       	pop	r25
    136c:	8f 91       	pop	r24
    136e:	7f 91       	pop	r23
    1370:	6f 91       	pop	r22
    1372:	5f 91       	pop	r21
    1374:	4f 91       	pop	r20
    1376:	3f 91       	pop	r19
    1378:	2f 91       	pop	r18
    137a:	0f 90       	pop	r0
    137c:	0f be       	out	0x3f, r0	; 63
    137e:	0f 90       	pop	r0
    1380:	1f 90       	pop	r1
    1382:	18 95       	reti

00001384 <TMR1_Get_Configuration>:
    1384:	ef 92       	push	r14
    1386:	0f 93       	push	r16
    1388:	80 93 ae 00 	sts	0x00AE, r24
    138c:	60 93 af 00 	sts	0x00AF, r22
    1390:	40 93 b0 00 	sts	0x00B0, r20
    1394:	20 93 b1 00 	sts	0x00B1, r18
    1398:	00 93 b2 00 	sts	0x00B2, r16
    139c:	e0 92 b3 00 	sts	0x00B3, r14
    13a0:	0f 91       	pop	r16
    13a2:	ef 90       	pop	r14
    13a4:	08 95       	ret

000013a6 <TMR1_vInit>:
    13a6:	80 91 ae 00 	lds	r24, 0x00AE
    13aa:	88 23       	and	r24, r24
    13ac:	19 f4       	brne	.+6      	; 0x13b4 <TMR1_vInit+0xe>
    13ae:	8f b5       	in	r24, 0x2f	; 47
    13b0:	8e 7f       	andi	r24, 0xFE	; 254
    13b2:	04 c0       	rjmp	.+8      	; 0x13bc <TMR1_vInit+0x16>
    13b4:	81 30       	cpi	r24, 0x01	; 1
    13b6:	61 f4       	brne	.+24     	; 0x13d0 <TMR1_vInit+0x2a>
    13b8:	8f b5       	in	r24, 0x2f	; 47
    13ba:	81 60       	ori	r24, 0x01	; 1
    13bc:	8f bd       	out	0x2f, r24	; 47
    13be:	8f b5       	in	r24, 0x2f	; 47
    13c0:	8d 7f       	andi	r24, 0xFD	; 253
    13c2:	8f bd       	out	0x2f, r24	; 47
    13c4:	8e b5       	in	r24, 0x2e	; 46
    13c6:	87 7f       	andi	r24, 0xF7	; 247
    13c8:	8e bd       	out	0x2e, r24	; 46
    13ca:	8e b5       	in	r24, 0x2e	; 46
    13cc:	8f 7e       	andi	r24, 0xEF	; 239
    13ce:	61 c0       	rjmp	.+194    	; 0x1492 <TMR1_vInit+0xec>
    13d0:	82 30       	cpi	r24, 0x02	; 2
    13d2:	19 f4       	brne	.+6      	; 0x13da <TMR1_vInit+0x34>
    13d4:	8f b5       	in	r24, 0x2f	; 47
    13d6:	8e 7f       	andi	r24, 0xFE	; 254
    13d8:	04 c0       	rjmp	.+8      	; 0x13e2 <TMR1_vInit+0x3c>
    13da:	83 30       	cpi	r24, 0x03	; 3
    13dc:	31 f4       	brne	.+12     	; 0x13ea <TMR1_vInit+0x44>
    13de:	8f b5       	in	r24, 0x2f	; 47
    13e0:	81 60       	ori	r24, 0x01	; 1
    13e2:	8f bd       	out	0x2f, r24	; 47
    13e4:	8f b5       	in	r24, 0x2f	; 47
    13e6:	82 60       	ori	r24, 0x02	; 2
    13e8:	ec cf       	rjmp	.-40     	; 0x13c2 <TMR1_vInit+0x1c>
    13ea:	84 30       	cpi	r24, 0x04	; 4
    13ec:	19 f4       	brne	.+6      	; 0x13f4 <TMR1_vInit+0x4e>
    13ee:	8f b5       	in	r24, 0x2f	; 47
    13f0:	8e 7f       	andi	r24, 0xFE	; 254
    13f2:	04 c0       	rjmp	.+8      	; 0x13fc <TMR1_vInit+0x56>
    13f4:	85 30       	cpi	r24, 0x05	; 5
    13f6:	49 f4       	brne	.+18     	; 0x140a <TMR1_vInit+0x64>
    13f8:	8f b5       	in	r24, 0x2f	; 47
    13fa:	81 60       	ori	r24, 0x01	; 1
    13fc:	8f bd       	out	0x2f, r24	; 47
    13fe:	8f b5       	in	r24, 0x2f	; 47
    1400:	8d 7f       	andi	r24, 0xFD	; 253
    1402:	8f bd       	out	0x2f, r24	; 47
    1404:	8e b5       	in	r24, 0x2e	; 46
    1406:	88 60       	ori	r24, 0x08	; 8
    1408:	df cf       	rjmp	.-66     	; 0x13c8 <TMR1_vInit+0x22>
    140a:	86 30       	cpi	r24, 0x06	; 6
    140c:	19 f4       	brne	.+6      	; 0x1414 <TMR1_vInit+0x6e>
    140e:	8f b5       	in	r24, 0x2f	; 47
    1410:	8e 7f       	andi	r24, 0xFE	; 254
    1412:	04 c0       	rjmp	.+8      	; 0x141c <TMR1_vInit+0x76>
    1414:	87 30       	cpi	r24, 0x07	; 7
    1416:	31 f4       	brne	.+12     	; 0x1424 <TMR1_vInit+0x7e>
    1418:	8f b5       	in	r24, 0x2f	; 47
    141a:	81 60       	ori	r24, 0x01	; 1
    141c:	8f bd       	out	0x2f, r24	; 47
    141e:	8f b5       	in	r24, 0x2f	; 47
    1420:	82 60       	ori	r24, 0x02	; 2
    1422:	ef cf       	rjmp	.-34     	; 0x1402 <TMR1_vInit+0x5c>
    1424:	88 30       	cpi	r24, 0x08	; 8
    1426:	19 f4       	brne	.+6      	; 0x142e <TMR1_vInit+0x88>
    1428:	8f b5       	in	r24, 0x2f	; 47
    142a:	8e 7f       	andi	r24, 0xFE	; 254
    142c:	04 c0       	rjmp	.+8      	; 0x1436 <TMR1_vInit+0x90>
    142e:	89 30       	cpi	r24, 0x09	; 9
    1430:	49 f4       	brne	.+18     	; 0x1444 <TMR1_vInit+0x9e>
    1432:	8f b5       	in	r24, 0x2f	; 47
    1434:	81 60       	ori	r24, 0x01	; 1
    1436:	8f bd       	out	0x2f, r24	; 47
    1438:	8f b5       	in	r24, 0x2f	; 47
    143a:	8d 7f       	andi	r24, 0xFD	; 253
    143c:	8f bd       	out	0x2f, r24	; 47
    143e:	8e b5       	in	r24, 0x2e	; 46
    1440:	87 7f       	andi	r24, 0xF7	; 247
    1442:	24 c0       	rjmp	.+72     	; 0x148c <TMR1_vInit+0xe6>
    1444:	8a 30       	cpi	r24, 0x0A	; 10
    1446:	19 f4       	brne	.+6      	; 0x144e <TMR1_vInit+0xa8>
    1448:	8f b5       	in	r24, 0x2f	; 47
    144a:	8e 7f       	andi	r24, 0xFE	; 254
    144c:	04 c0       	rjmp	.+8      	; 0x1456 <TMR1_vInit+0xb0>
    144e:	8b 30       	cpi	r24, 0x0B	; 11
    1450:	31 f4       	brne	.+12     	; 0x145e <TMR1_vInit+0xb8>
    1452:	8f b5       	in	r24, 0x2f	; 47
    1454:	81 60       	ori	r24, 0x01	; 1
    1456:	8f bd       	out	0x2f, r24	; 47
    1458:	8f b5       	in	r24, 0x2f	; 47
    145a:	82 60       	ori	r24, 0x02	; 2
    145c:	ef cf       	rjmp	.-34     	; 0x143c <TMR1_vInit+0x96>
    145e:	8c 30       	cpi	r24, 0x0C	; 12
    1460:	31 f4       	brne	.+12     	; 0x146e <TMR1_vInit+0xc8>
    1462:	8f b5       	in	r24, 0x2f	; 47
    1464:	8e 7f       	andi	r24, 0xFE	; 254
    1466:	8f bd       	out	0x2f, r24	; 47
    1468:	8f b5       	in	r24, 0x2f	; 47
    146a:	8d 7f       	andi	r24, 0xFD	; 253
    146c:	0c c0       	rjmp	.+24     	; 0x1486 <TMR1_vInit+0xe0>
    146e:	8d 30       	cpi	r24, 0x0D	; 13
    1470:	19 f4       	brne	.+6      	; 0x1478 <TMR1_vInit+0xd2>
    1472:	8f b5       	in	r24, 0x2f	; 47
    1474:	8e 7f       	andi	r24, 0xFE	; 254
    1476:	04 c0       	rjmp	.+8      	; 0x1480 <TMR1_vInit+0xda>
    1478:	8e 30       	cpi	r24, 0x0E	; 14
    147a:	61 f4       	brne	.+24     	; 0x1494 <TMR1_vInit+0xee>
    147c:	8f b5       	in	r24, 0x2f	; 47
    147e:	81 60       	ori	r24, 0x01	; 1
    1480:	8f bd       	out	0x2f, r24	; 47
    1482:	8f b5       	in	r24, 0x2f	; 47
    1484:	82 60       	ori	r24, 0x02	; 2
    1486:	8f bd       	out	0x2f, r24	; 47
    1488:	8e b5       	in	r24, 0x2e	; 46
    148a:	88 60       	ori	r24, 0x08	; 8
    148c:	8e bd       	out	0x2e, r24	; 46
    148e:	8e b5       	in	r24, 0x2e	; 46
    1490:	80 61       	ori	r24, 0x10	; 16
    1492:	8e bd       	out	0x2e, r24	; 46
    1494:	8e b5       	in	r24, 0x2e	; 46
    1496:	90 91 b3 00 	lds	r25, 0x00B3
    149a:	89 2b       	or	r24, r25
    149c:	8e bd       	out	0x2e, r24	; 46
    149e:	80 91 af 00 	lds	r24, 0x00AF
    14a2:	88 23       	and	r24, r24
    14a4:	19 f4       	brne	.+6      	; 0x14ac <TMR1_vInit+0x106>
    14a6:	89 b7       	in	r24, 0x39	; 57
    14a8:	84 60       	ori	r24, 0x04	; 4
    14aa:	04 c0       	rjmp	.+8      	; 0x14b4 <TMR1_vInit+0x10e>
    14ac:	81 30       	cpi	r24, 0x01	; 1
    14ae:	19 f4       	brne	.+6      	; 0x14b6 <TMR1_vInit+0x110>
    14b0:	89 b7       	in	r24, 0x39	; 57
    14b2:	8b 7f       	andi	r24, 0xFB	; 251
    14b4:	89 bf       	out	0x39, r24	; 57
    14b6:	80 91 b0 00 	lds	r24, 0x00B0
    14ba:	88 23       	and	r24, r24
    14bc:	19 f4       	brne	.+6      	; 0x14c4 <TMR1_vInit+0x11e>
    14be:	89 b7       	in	r24, 0x39	; 57
    14c0:	80 61       	ori	r24, 0x10	; 16
    14c2:	04 c0       	rjmp	.+8      	; 0x14cc <TMR1_vInit+0x126>
    14c4:	81 30       	cpi	r24, 0x01	; 1
    14c6:	19 f4       	brne	.+6      	; 0x14ce <TMR1_vInit+0x128>
    14c8:	89 b7       	in	r24, 0x39	; 57
    14ca:	8f 7e       	andi	r24, 0xEF	; 239
    14cc:	89 bf       	out	0x39, r24	; 57
    14ce:	80 91 b1 00 	lds	r24, 0x00B1
    14d2:	82 30       	cpi	r24, 0x02	; 2
    14d4:	19 f4       	brne	.+6      	; 0x14dc <TMR1_vInit+0x136>
    14d6:	89 b7       	in	r24, 0x39	; 57
    14d8:	88 60       	ori	r24, 0x08	; 8
    14da:	04 c0       	rjmp	.+8      	; 0x14e4 <TMR1_vInit+0x13e>
    14dc:	83 30       	cpi	r24, 0x03	; 3
    14de:	19 f4       	brne	.+6      	; 0x14e6 <TMR1_vInit+0x140>
    14e0:	89 b7       	in	r24, 0x39	; 57
    14e2:	87 7f       	andi	r24, 0xF7	; 247
    14e4:	89 bf       	out	0x39, r24	; 57
    14e6:	80 91 b2 00 	lds	r24, 0x00B2
    14ea:	88 23       	and	r24, r24
    14ec:	21 f4       	brne	.+8      	; 0x14f6 <TMR1_vInit+0x150>
    14ee:	89 b7       	in	r24, 0x39	; 57
    14f0:	80 62       	ori	r24, 0x20	; 32
    14f2:	89 bf       	out	0x39, r24	; 57
    14f4:	08 95       	ret
    14f6:	81 30       	cpi	r24, 0x01	; 1
    14f8:	19 f4       	brne	.+6      	; 0x1500 <TMR1_vInit+0x15a>
    14fa:	89 b7       	in	r24, 0x39	; 57
    14fc:	8f 7d       	andi	r24, 0xDF	; 223
    14fe:	89 bf       	out	0x39, r24	; 57
    1500:	08 95       	ret

00001502 <TMR1_Set_Compare_Value>:
    1502:	8a bd       	out	0x2a, r24	; 42
    1504:	8b b5       	in	r24, 0x2b	; 43
    1506:	8b bd       	out	0x2b, r24	; 43
    1508:	08 95       	ret

0000150a <TMR1_Read_count>:
    150a:	8c b5       	in	r24, 0x2c	; 44
    150c:	9d b5       	in	r25, 0x2d	; 45
    150e:	39 2f       	mov	r19, r25
    1510:	20 e0       	ldi	r18, 0x00	; 0
    1512:	90 e0       	ldi	r25, 0x00	; 0
    1514:	82 2b       	or	r24, r18
    1516:	93 2b       	or	r25, r19
    1518:	08 95       	ret

0000151a <TMR1_ICU_Read_frequency>:
    151a:	28 b7       	in	r18, 0x38	; 56
    151c:	20 62       	ori	r18, 0x20	; 32
    151e:	28 bf       	out	0x38, r18	; 56
    1520:	1f bc       	out	0x2f, r1	; 47
    1522:	21 ec       	ldi	r18, 0xC1	; 193
    1524:	2e bd       	out	0x2e, r18	; 46
    1526:	08 b6       	in	r0, 0x38	; 56
    1528:	05 fe       	sbrs	r0, 5
    152a:	fd cf       	rjmp	.-6      	; 0x1526 <TMR1_ICU_Read_frequency+0xc>
    152c:	a6 b5       	in	r26, 0x26	; 38
    152e:	b0 e0       	ldi	r27, 0x00	; 0
    1530:	27 b5       	in	r18, 0x27	; 39
    1532:	52 2f       	mov	r21, r18
    1534:	40 e0       	ldi	r20, 0x00	; 0
    1536:	a4 2b       	or	r26, r20
    1538:	b5 2b       	or	r27, r21
    153a:	38 b7       	in	r19, 0x38	; 56
    153c:	30 62       	ori	r19, 0x20	; 32
    153e:	38 bf       	out	0x38, r19	; 56
    1540:	21 e8       	ldi	r18, 0x81	; 129
    1542:	2e bd       	out	0x2e, r18	; 46
    1544:	08 b6       	in	r0, 0x38	; 56
    1546:	05 fe       	sbrs	r0, 5
    1548:	fd cf       	rjmp	.-6      	; 0x1544 <TMR1_ICU_Read_frequency+0x2a>
    154a:	e6 b5       	in	r30, 0x26	; 38
    154c:	f0 e0       	ldi	r31, 0x00	; 0
    154e:	27 b5       	in	r18, 0x27	; 39
    1550:	52 2f       	mov	r21, r18
    1552:	40 e0       	ldi	r20, 0x00	; 0
    1554:	e4 2b       	or	r30, r20
    1556:	f5 2b       	or	r31, r21
    1558:	38 b7       	in	r19, 0x38	; 56
    155a:	30 62       	ori	r19, 0x20	; 32
    155c:	38 bf       	out	0x38, r19	; 56
    155e:	21 ec       	ldi	r18, 0xC1	; 193
    1560:	2e bd       	out	0x2e, r18	; 46
    1562:	08 b6       	in	r0, 0x38	; 56
    1564:	05 fe       	sbrs	r0, 5
    1566:	fd cf       	rjmp	.-6      	; 0x1562 <TMR1_ICU_Read_frequency+0x48>
    1568:	46 b5       	in	r20, 0x26	; 38
    156a:	27 b5       	in	r18, 0x27	; 39
    156c:	38 b7       	in	r19, 0x38	; 56
    156e:	30 62       	ori	r19, 0x20	; 32
    1570:	38 bf       	out	0x38, r19	; 56
    1572:	1e bc       	out	0x2e, r1	; 46
    1574:	ae 17       	cp	r26, r30
    1576:	bf 07       	cpc	r27, r31
    1578:	a0 f4       	brcc	.+40     	; 0x15a2 <TMR1_ICU_Read_frequency+0x88>
    157a:	50 e0       	ldi	r21, 0x00	; 0
    157c:	72 2f       	mov	r23, r18
    157e:	60 e0       	ldi	r22, 0x00	; 0
    1580:	46 2b       	or	r20, r22
    1582:	57 2b       	or	r21, r23
    1584:	e4 17       	cp	r30, r20
    1586:	f5 07       	cpc	r31, r21
    1588:	60 f4       	brcc	.+24     	; 0x15a2 <TMR1_ICU_Read_frequency+0x88>
    158a:	4a 1b       	sub	r20, r26
    158c:	5b 0b       	sbc	r21, r27
    158e:	9a 01       	movw	r18, r20
    1590:	40 e0       	ldi	r20, 0x00	; 0
    1592:	50 e0       	ldi	r21, 0x00	; 0
    1594:	60 e0       	ldi	r22, 0x00	; 0
    1596:	72 e1       	ldi	r23, 0x12	; 18
    1598:	8a e7       	ldi	r24, 0x7A	; 122
    159a:	90 e0       	ldi	r25, 0x00	; 0
    159c:	0e 94 d5 0d 	call	0x1baa	; 0x1baa <__udivmodsi4>
    15a0:	c9 01       	movw	r24, r18
    15a2:	08 95       	ret

000015a4 <TMR1_ICU_Read_On_time>:
    15a4:	88 b7       	in	r24, 0x38	; 56
    15a6:	80 62       	ori	r24, 0x20	; 32
    15a8:	88 bf       	out	0x38, r24	; 56
    15aa:	1f bc       	out	0x2f, r1	; 47
    15ac:	81 ec       	ldi	r24, 0xC1	; 193
    15ae:	8e bd       	out	0x2e, r24	; 46
    15b0:	08 b6       	in	r0, 0x38	; 56
    15b2:	05 fe       	sbrs	r0, 5
    15b4:	fd cf       	rjmp	.-6      	; 0x15b0 <TMR1_ICU_Read_On_time+0xc>
    15b6:	66 b5       	in	r22, 0x26	; 38
    15b8:	70 e0       	ldi	r23, 0x00	; 0
    15ba:	27 b5       	in	r18, 0x27	; 39
    15bc:	92 2f       	mov	r25, r18
    15be:	80 e0       	ldi	r24, 0x00	; 0
    15c0:	68 2b       	or	r22, r24
    15c2:	79 2b       	or	r23, r25
    15c4:	88 b7       	in	r24, 0x38	; 56
    15c6:	80 62       	ori	r24, 0x20	; 32
    15c8:	88 bf       	out	0x38, r24	; 56
    15ca:	81 e8       	ldi	r24, 0x81	; 129
    15cc:	8e bd       	out	0x2e, r24	; 46
    15ce:	08 b6       	in	r0, 0x38	; 56
    15d0:	05 fe       	sbrs	r0, 5
    15d2:	fd cf       	rjmp	.-6      	; 0x15ce <TMR1_ICU_Read_On_time+0x2a>
    15d4:	46 b5       	in	r20, 0x26	; 38
    15d6:	50 e0       	ldi	r21, 0x00	; 0
    15d8:	27 b5       	in	r18, 0x27	; 39
    15da:	92 2f       	mov	r25, r18
    15dc:	80 e0       	ldi	r24, 0x00	; 0
    15de:	48 2b       	or	r20, r24
    15e0:	59 2b       	or	r21, r25
    15e2:	88 b7       	in	r24, 0x38	; 56
    15e4:	80 62       	ori	r24, 0x20	; 32
    15e6:	88 bf       	out	0x38, r24	; 56
    15e8:	81 ec       	ldi	r24, 0xC1	; 193
    15ea:	8e bd       	out	0x2e, r24	; 46
    15ec:	08 b6       	in	r0, 0x38	; 56
    15ee:	05 fe       	sbrs	r0, 5
    15f0:	fd cf       	rjmp	.-6      	; 0x15ec <TMR1_ICU_Read_On_time+0x48>
    15f2:	86 b5       	in	r24, 0x26	; 38
    15f4:	a7 b5       	in	r26, 0x27	; 39
    15f6:	98 b7       	in	r25, 0x38	; 56
    15f8:	90 62       	ori	r25, 0x20	; 32
    15fa:	98 bf       	out	0x38, r25	; 56
    15fc:	1e bc       	out	0x2e, r1	; 46
    15fe:	64 17       	cp	r22, r20
    1600:	75 07       	cpc	r23, r21
    1602:	58 f4       	brcc	.+22     	; 0x161a <TMR1_ICU_Read_On_time+0x76>
    1604:	90 e0       	ldi	r25, 0x00	; 0
    1606:	3a 2f       	mov	r19, r26
    1608:	20 e0       	ldi	r18, 0x00	; 0
    160a:	82 2b       	or	r24, r18
    160c:	93 2b       	or	r25, r19
    160e:	48 17       	cp	r20, r24
    1610:	59 07       	cpc	r21, r25
    1612:	18 f4       	brcc	.+6      	; 0x161a <TMR1_ICU_Read_On_time+0x76>
    1614:	fa 01       	movw	r30, r20
    1616:	e6 1b       	sub	r30, r22
    1618:	f7 0b       	sbc	r31, r23
    161a:	cf 01       	movw	r24, r30
    161c:	08 95       	ret

0000161e <US_Get_Configuration>:
    161e:	80 93 b4 00 	sts	0x00B4, r24
    1622:	60 93 b5 00 	sts	0x00B5, r22
    1626:	40 93 b6 00 	sts	0x00B6, r20
    162a:	20 93 b7 00 	sts	0x00B7, r18
    162e:	08 95       	ret

00001630 <US_vInit>:
    1630:	60 91 b5 00 	lds	r22, 0x00B5
    1634:	80 91 b4 00 	lds	r24, 0x00B4
    1638:	90 e0       	ldi	r25, 0x00	; 0
    163a:	70 e0       	ldi	r23, 0x00	; 0
    163c:	41 e0       	ldi	r20, 0x01	; 1
    163e:	50 e0       	ldi	r21, 0x00	; 0
    1640:	0e 94 7c 00 	call	0xf8	; 0xf8 <GPIO_vsetPIN_DIR>
    1644:	60 91 b7 00 	lds	r22, 0x00B7
    1648:	80 91 b6 00 	lds	r24, 0x00B6
    164c:	90 e0       	ldi	r25, 0x00	; 0
    164e:	70 e0       	ldi	r23, 0x00	; 0
    1650:	40 e0       	ldi	r20, 0x00	; 0
    1652:	50 e0       	ldi	r21, 0x00	; 0
    1654:	0e 94 7c 00 	call	0xf8	; 0xf8 <GPIO_vsetPIN_DIR>
    1658:	08 95       	ret

0000165a <US_Read_Distance_cm>:
    165a:	60 91 b5 00 	lds	r22, 0x00B5
    165e:	80 91 b4 00 	lds	r24, 0x00B4
    1662:	90 e0       	ldi	r25, 0x00	; 0
    1664:	70 e0       	ldi	r23, 0x00	; 0
    1666:	41 e0       	ldi	r20, 0x01	; 1
    1668:	50 e0       	ldi	r21, 0x00	; 0
    166a:	0e 94 db 00 	call	0x1b6	; 0x1b6 <GPIO_vwrite_PIN>
    166e:	85 e8       	ldi	r24, 0x85	; 133
    1670:	8a 95       	dec	r24
    1672:	f1 f7       	brne	.-4      	; 0x1670 <US_Read_Distance_cm+0x16>
    1674:	00 00       	nop
    1676:	60 91 b5 00 	lds	r22, 0x00B5
    167a:	80 91 b4 00 	lds	r24, 0x00B4
    167e:	90 e0       	ldi	r25, 0x00	; 0
    1680:	70 e0       	ldi	r23, 0x00	; 0
    1682:	40 e0       	ldi	r20, 0x00	; 0
    1684:	50 e0       	ldi	r21, 0x00	; 0
    1686:	0e 94 db 00 	call	0x1b6	; 0x1b6 <GPIO_vwrite_PIN>
    168a:	0e 94 d2 0a 	call	0x15a4	; 0x15a4 <TMR1_ICU_Read_On_time>
    168e:	bc 01       	movw	r22, r24
    1690:	80 e0       	ldi	r24, 0x00	; 0
    1692:	90 e0       	ldi	r25, 0x00	; 0
    1694:	0e 94 ad 0c 	call	0x195a	; 0x195a <__floatunsisf>
    1698:	20 e0       	ldi	r18, 0x00	; 0
    169a:	3c ef       	ldi	r19, 0xFC	; 252
    169c:	45 e0       	ldi	r20, 0x05	; 5
    169e:	57 e4       	ldi	r21, 0x47	; 71
    16a0:	0e 94 5f 0d 	call	0x1abe	; 0x1abe <__mulsf3>
    16a4:	20 e0       	ldi	r18, 0x00	; 0
    16a6:	34 e2       	ldi	r19, 0x24	; 36
    16a8:	44 e7       	ldi	r20, 0x74	; 116
    16aa:	5b e4       	ldi	r21, 0x4B	; 75
    16ac:	0e 94 14 0c 	call	0x1828	; 0x1828 <__divsf3>
    16b0:	0e 94 81 0c 	call	0x1902	; 0x1902 <__fixunssfsi>
    16b4:	cb 01       	movw	r24, r22
    16b6:	08 95       	ret

000016b8 <main>:
    16b8:	84 e4       	ldi	r24, 0x44	; 68
    16ba:	67 e0       	ldi	r22, 0x07	; 7
    16bc:	44 e4       	ldi	r20, 0x44	; 68
    16be:	26 e0       	ldi	r18, 0x06	; 6
    16c0:	0e 94 0f 0b 	call	0x161e	; 0x161e <US_Get_Configuration>
    16c4:	0e 94 18 0b 	call	0x1630	; 0x1630 <US_vInit>
    16c8:	80 e0       	ldi	r24, 0x00	; 0
    16ca:	61 e0       	ldi	r22, 0x01	; 1
    16cc:	41 e4       	ldi	r20, 0x41	; 65
    16ce:	22 e4       	ldi	r18, 0x42	; 66
    16d0:	02 e0       	ldi	r16, 0x02	; 2
    16d2:	e2 e4       	ldi	r30, 0x42	; 66
    16d4:	ee 2e       	mov	r14, r30
    16d6:	f3 e0       	ldi	r31, 0x03	; 3
    16d8:	cf 2e       	mov	r12, r31
    16da:	a2 e4       	ldi	r26, 0x42	; 66
    16dc:	aa 2e       	mov	r10, r26
    16de:	b4 e0       	ldi	r27, 0x04	; 4
    16e0:	8b 2e       	mov	r8, r27
    16e2:	0e 94 39 04 	call	0x872	; 0x872 <LCD_vInit>
    16e6:	80 e0       	ldi	r24, 0x00	; 0
    16e8:	61 e0       	ldi	r22, 0x01	; 1
    16ea:	41 e4       	ldi	r20, 0x41	; 65
    16ec:	22 e4       	ldi	r18, 0x42	; 66
    16ee:	02 e0       	ldi	r16, 0x02	; 2
    16f0:	92 e4       	ldi	r25, 0x42	; 66
    16f2:	e9 2e       	mov	r14, r25
    16f4:	34 e0       	ldi	r19, 0x04	; 4
    16f6:	c3 2e       	mov	r12, r19
    16f8:	50 e6       	ldi	r21, 0x60	; 96
    16fa:	a5 2e       	mov	r10, r21
    16fc:	50 e0       	ldi	r21, 0x00	; 0
    16fe:	b5 2e       	mov	r11, r21
    1700:	0e 94 e8 05 	call	0xbd0	; 0xbd0 <LCD_vsend_string>
    1704:	0e 94 2d 0b 	call	0x165a	; 0x165a <US_Read_Distance_cm>
    1708:	4c 01       	movw	r8, r24
    170a:	aa 24       	eor	r10, r10
    170c:	bb 24       	eor	r11, r11
    170e:	80 e0       	ldi	r24, 0x00	; 0
    1710:	61 e0       	ldi	r22, 0x01	; 1
    1712:	41 e4       	ldi	r20, 0x41	; 65
    1714:	22 e4       	ldi	r18, 0x42	; 66
    1716:	0e 94 1c 06 	call	0xc38	; 0xc38 <LCD_display_number>
    171a:	80 e0       	ldi	r24, 0x00	; 0
    171c:	61 e0       	ldi	r22, 0x01	; 1
    171e:	41 e4       	ldi	r20, 0x41	; 65
    1720:	22 e4       	ldi	r18, 0x42	; 66
    1722:	7a e6       	ldi	r23, 0x6A	; 106
    1724:	a7 2e       	mov	r10, r23
    1726:	70 e0       	ldi	r23, 0x00	; 0
    1728:	b7 2e       	mov	r11, r23
    172a:	0e 94 e8 05 	call	0xbd0	; 0xbd0 <LCD_vsend_string>
    172e:	8f ef       	ldi	r24, 0xFF	; 255
    1730:	94 e3       	ldi	r25, 0x34	; 52
    1732:	ac e0       	ldi	r26, 0x0C	; 12
    1734:	81 50       	subi	r24, 0x01	; 1
    1736:	90 40       	sbci	r25, 0x00	; 0
    1738:	a0 40       	sbci	r26, 0x00	; 0
    173a:	e1 f7       	brne	.-8      	; 0x1734 <main+0x7c>
    173c:	00 c0       	rjmp	.+0      	; 0x173e <main+0x86>
    173e:	00 00       	nop
    1740:	80 e0       	ldi	r24, 0x00	; 0
    1742:	61 e0       	ldi	r22, 0x01	; 1
    1744:	41 e4       	ldi	r20, 0x41	; 65
    1746:	22 e4       	ldi	r18, 0x42	; 66
    1748:	aa 24       	eor	r10, r10
    174a:	a3 94       	inc	r10
    174c:	88 24       	eor	r8, r8
    174e:	83 94       	inc	r8
    1750:	0e 94 6a 05 	call	0xad4	; 0xad4 <LCD_Move_Cursor>
    1754:	c8 cf       	rjmp	.-112    	; 0x16e6 <main+0x2e>

00001756 <__subsf3>:
    1756:	50 58       	subi	r21, 0x80	; 128

00001758 <__addsf3>:
    1758:	bb 27       	eor	r27, r27
    175a:	aa 27       	eor	r26, r26
    175c:	0e d0       	rcall	.+28     	; 0x177a <__addsf3x>
    175e:	75 c1       	rjmp	.+746    	; 0x1a4a <__fp_round>
    1760:	66 d1       	rcall	.+716    	; 0x1a2e <__fp_pscA>
    1762:	30 f0       	brcs	.+12     	; 0x1770 <__addsf3+0x18>
    1764:	6b d1       	rcall	.+726    	; 0x1a3c <__fp_pscB>
    1766:	20 f0       	brcs	.+8      	; 0x1770 <__addsf3+0x18>
    1768:	31 f4       	brne	.+12     	; 0x1776 <__addsf3+0x1e>
    176a:	9f 3f       	cpi	r25, 0xFF	; 255
    176c:	11 f4       	brne	.+4      	; 0x1772 <__addsf3+0x1a>
    176e:	1e f4       	brtc	.+6      	; 0x1776 <__addsf3+0x1e>
    1770:	5b c1       	rjmp	.+694    	; 0x1a28 <__fp_nan>
    1772:	0e f4       	brtc	.+2      	; 0x1776 <__addsf3+0x1e>
    1774:	e0 95       	com	r30
    1776:	e7 fb       	bst	r30, 7
    1778:	51 c1       	rjmp	.+674    	; 0x1a1c <__fp_inf>

0000177a <__addsf3x>:
    177a:	e9 2f       	mov	r30, r25
    177c:	77 d1       	rcall	.+750    	; 0x1a6c <__fp_split3>
    177e:	80 f3       	brcs	.-32     	; 0x1760 <__addsf3+0x8>
    1780:	ba 17       	cp	r27, r26
    1782:	62 07       	cpc	r22, r18
    1784:	73 07       	cpc	r23, r19
    1786:	84 07       	cpc	r24, r20
    1788:	95 07       	cpc	r25, r21
    178a:	18 f0       	brcs	.+6      	; 0x1792 <__addsf3x+0x18>
    178c:	71 f4       	brne	.+28     	; 0x17aa <__addsf3x+0x30>
    178e:	9e f5       	brtc	.+102    	; 0x17f6 <__addsf3x+0x7c>
    1790:	8f c1       	rjmp	.+798    	; 0x1ab0 <__fp_zero>
    1792:	0e f4       	brtc	.+2      	; 0x1796 <__addsf3x+0x1c>
    1794:	e0 95       	com	r30
    1796:	0b 2e       	mov	r0, r27
    1798:	ba 2f       	mov	r27, r26
    179a:	a0 2d       	mov	r26, r0
    179c:	0b 01       	movw	r0, r22
    179e:	b9 01       	movw	r22, r18
    17a0:	90 01       	movw	r18, r0
    17a2:	0c 01       	movw	r0, r24
    17a4:	ca 01       	movw	r24, r20
    17a6:	a0 01       	movw	r20, r0
    17a8:	11 24       	eor	r1, r1
    17aa:	ff 27       	eor	r31, r31
    17ac:	59 1b       	sub	r21, r25
    17ae:	99 f0       	breq	.+38     	; 0x17d6 <__addsf3x+0x5c>
    17b0:	59 3f       	cpi	r21, 0xF9	; 249
    17b2:	50 f4       	brcc	.+20     	; 0x17c8 <__addsf3x+0x4e>
    17b4:	50 3e       	cpi	r21, 0xE0	; 224
    17b6:	68 f1       	brcs	.+90     	; 0x1812 <__addsf3x+0x98>
    17b8:	1a 16       	cp	r1, r26
    17ba:	f0 40       	sbci	r31, 0x00	; 0
    17bc:	a2 2f       	mov	r26, r18
    17be:	23 2f       	mov	r18, r19
    17c0:	34 2f       	mov	r19, r20
    17c2:	44 27       	eor	r20, r20
    17c4:	58 5f       	subi	r21, 0xF8	; 248
    17c6:	f3 cf       	rjmp	.-26     	; 0x17ae <__addsf3x+0x34>
    17c8:	46 95       	lsr	r20
    17ca:	37 95       	ror	r19
    17cc:	27 95       	ror	r18
    17ce:	a7 95       	ror	r26
    17d0:	f0 40       	sbci	r31, 0x00	; 0
    17d2:	53 95       	inc	r21
    17d4:	c9 f7       	brne	.-14     	; 0x17c8 <__addsf3x+0x4e>
    17d6:	7e f4       	brtc	.+30     	; 0x17f6 <__addsf3x+0x7c>
    17d8:	1f 16       	cp	r1, r31
    17da:	ba 0b       	sbc	r27, r26
    17dc:	62 0b       	sbc	r22, r18
    17de:	73 0b       	sbc	r23, r19
    17e0:	84 0b       	sbc	r24, r20
    17e2:	ba f0       	brmi	.+46     	; 0x1812 <__addsf3x+0x98>
    17e4:	91 50       	subi	r25, 0x01	; 1
    17e6:	a1 f0       	breq	.+40     	; 0x1810 <__addsf3x+0x96>
    17e8:	ff 0f       	add	r31, r31
    17ea:	bb 1f       	adc	r27, r27
    17ec:	66 1f       	adc	r22, r22
    17ee:	77 1f       	adc	r23, r23
    17f0:	88 1f       	adc	r24, r24
    17f2:	c2 f7       	brpl	.-16     	; 0x17e4 <__addsf3x+0x6a>
    17f4:	0e c0       	rjmp	.+28     	; 0x1812 <__addsf3x+0x98>
    17f6:	ba 0f       	add	r27, r26
    17f8:	62 1f       	adc	r22, r18
    17fa:	73 1f       	adc	r23, r19
    17fc:	84 1f       	adc	r24, r20
    17fe:	48 f4       	brcc	.+18     	; 0x1812 <__addsf3x+0x98>
    1800:	87 95       	ror	r24
    1802:	77 95       	ror	r23
    1804:	67 95       	ror	r22
    1806:	b7 95       	ror	r27
    1808:	f7 95       	ror	r31
    180a:	9e 3f       	cpi	r25, 0xFE	; 254
    180c:	08 f0       	brcs	.+2      	; 0x1810 <__addsf3x+0x96>
    180e:	b3 cf       	rjmp	.-154    	; 0x1776 <__addsf3+0x1e>
    1810:	93 95       	inc	r25
    1812:	88 0f       	add	r24, r24
    1814:	08 f0       	brcs	.+2      	; 0x1818 <__addsf3x+0x9e>
    1816:	99 27       	eor	r25, r25
    1818:	ee 0f       	add	r30, r30
    181a:	97 95       	ror	r25
    181c:	87 95       	ror	r24
    181e:	08 95       	ret

00001820 <__cmpsf2>:
    1820:	d9 d0       	rcall	.+434    	; 0x19d4 <__fp_cmp>
    1822:	08 f4       	brcc	.+2      	; 0x1826 <__cmpsf2+0x6>
    1824:	81 e0       	ldi	r24, 0x01	; 1
    1826:	08 95       	ret

00001828 <__divsf3>:
    1828:	0c d0       	rcall	.+24     	; 0x1842 <__divsf3x>
    182a:	0f c1       	rjmp	.+542    	; 0x1a4a <__fp_round>
    182c:	07 d1       	rcall	.+526    	; 0x1a3c <__fp_pscB>
    182e:	40 f0       	brcs	.+16     	; 0x1840 <__divsf3+0x18>
    1830:	fe d0       	rcall	.+508    	; 0x1a2e <__fp_pscA>
    1832:	30 f0       	brcs	.+12     	; 0x1840 <__divsf3+0x18>
    1834:	21 f4       	brne	.+8      	; 0x183e <__divsf3+0x16>
    1836:	5f 3f       	cpi	r21, 0xFF	; 255
    1838:	19 f0       	breq	.+6      	; 0x1840 <__divsf3+0x18>
    183a:	f0 c0       	rjmp	.+480    	; 0x1a1c <__fp_inf>
    183c:	51 11       	cpse	r21, r1
    183e:	39 c1       	rjmp	.+626    	; 0x1ab2 <__fp_szero>
    1840:	f3 c0       	rjmp	.+486    	; 0x1a28 <__fp_nan>

00001842 <__divsf3x>:
    1842:	14 d1       	rcall	.+552    	; 0x1a6c <__fp_split3>
    1844:	98 f3       	brcs	.-26     	; 0x182c <__divsf3+0x4>

00001846 <__divsf3_pse>:
    1846:	99 23       	and	r25, r25
    1848:	c9 f3       	breq	.-14     	; 0x183c <__divsf3+0x14>
    184a:	55 23       	and	r21, r21
    184c:	b1 f3       	breq	.-20     	; 0x183a <__divsf3+0x12>
    184e:	95 1b       	sub	r25, r21
    1850:	55 0b       	sbc	r21, r21
    1852:	bb 27       	eor	r27, r27
    1854:	aa 27       	eor	r26, r26
    1856:	62 17       	cp	r22, r18
    1858:	73 07       	cpc	r23, r19
    185a:	84 07       	cpc	r24, r20
    185c:	38 f0       	brcs	.+14     	; 0x186c <__divsf3_pse+0x26>
    185e:	9f 5f       	subi	r25, 0xFF	; 255
    1860:	5f 4f       	sbci	r21, 0xFF	; 255
    1862:	22 0f       	add	r18, r18
    1864:	33 1f       	adc	r19, r19
    1866:	44 1f       	adc	r20, r20
    1868:	aa 1f       	adc	r26, r26
    186a:	a9 f3       	breq	.-22     	; 0x1856 <__divsf3_pse+0x10>
    186c:	33 d0       	rcall	.+102    	; 0x18d4 <__divsf3_pse+0x8e>
    186e:	0e 2e       	mov	r0, r30
    1870:	3a f0       	brmi	.+14     	; 0x1880 <__divsf3_pse+0x3a>
    1872:	e0 e8       	ldi	r30, 0x80	; 128
    1874:	30 d0       	rcall	.+96     	; 0x18d6 <__divsf3_pse+0x90>
    1876:	91 50       	subi	r25, 0x01	; 1
    1878:	50 40       	sbci	r21, 0x00	; 0
    187a:	e6 95       	lsr	r30
    187c:	00 1c       	adc	r0, r0
    187e:	ca f7       	brpl	.-14     	; 0x1872 <__divsf3_pse+0x2c>
    1880:	29 d0       	rcall	.+82     	; 0x18d4 <__divsf3_pse+0x8e>
    1882:	fe 2f       	mov	r31, r30
    1884:	27 d0       	rcall	.+78     	; 0x18d4 <__divsf3_pse+0x8e>
    1886:	66 0f       	add	r22, r22
    1888:	77 1f       	adc	r23, r23
    188a:	88 1f       	adc	r24, r24
    188c:	bb 1f       	adc	r27, r27
    188e:	26 17       	cp	r18, r22
    1890:	37 07       	cpc	r19, r23
    1892:	48 07       	cpc	r20, r24
    1894:	ab 07       	cpc	r26, r27
    1896:	b0 e8       	ldi	r27, 0x80	; 128
    1898:	09 f0       	breq	.+2      	; 0x189c <__divsf3_pse+0x56>
    189a:	bb 0b       	sbc	r27, r27
    189c:	80 2d       	mov	r24, r0
    189e:	bf 01       	movw	r22, r30
    18a0:	ff 27       	eor	r31, r31
    18a2:	93 58       	subi	r25, 0x83	; 131
    18a4:	5f 4f       	sbci	r21, 0xFF	; 255
    18a6:	2a f0       	brmi	.+10     	; 0x18b2 <__divsf3_pse+0x6c>
    18a8:	9e 3f       	cpi	r25, 0xFE	; 254
    18aa:	51 05       	cpc	r21, r1
    18ac:	68 f0       	brcs	.+26     	; 0x18c8 <__divsf3_pse+0x82>
    18ae:	b6 c0       	rjmp	.+364    	; 0x1a1c <__fp_inf>
    18b0:	00 c1       	rjmp	.+512    	; 0x1ab2 <__fp_szero>
    18b2:	5f 3f       	cpi	r21, 0xFF	; 255
    18b4:	ec f3       	brlt	.-6      	; 0x18b0 <__divsf3_pse+0x6a>
    18b6:	98 3e       	cpi	r25, 0xE8	; 232
    18b8:	dc f3       	brlt	.-10     	; 0x18b0 <__divsf3_pse+0x6a>
    18ba:	86 95       	lsr	r24
    18bc:	77 95       	ror	r23
    18be:	67 95       	ror	r22
    18c0:	b7 95       	ror	r27
    18c2:	f7 95       	ror	r31
    18c4:	9f 5f       	subi	r25, 0xFF	; 255
    18c6:	c9 f7       	brne	.-14     	; 0x18ba <__divsf3_pse+0x74>
    18c8:	88 0f       	add	r24, r24
    18ca:	91 1d       	adc	r25, r1
    18cc:	96 95       	lsr	r25
    18ce:	87 95       	ror	r24
    18d0:	97 f9       	bld	r25, 7
    18d2:	08 95       	ret
    18d4:	e1 e0       	ldi	r30, 0x01	; 1
    18d6:	66 0f       	add	r22, r22
    18d8:	77 1f       	adc	r23, r23
    18da:	88 1f       	adc	r24, r24
    18dc:	bb 1f       	adc	r27, r27
    18de:	62 17       	cp	r22, r18
    18e0:	73 07       	cpc	r23, r19
    18e2:	84 07       	cpc	r24, r20
    18e4:	ba 07       	cpc	r27, r26
    18e6:	20 f0       	brcs	.+8      	; 0x18f0 <__divsf3_pse+0xaa>
    18e8:	62 1b       	sub	r22, r18
    18ea:	73 0b       	sbc	r23, r19
    18ec:	84 0b       	sbc	r24, r20
    18ee:	ba 0b       	sbc	r27, r26
    18f0:	ee 1f       	adc	r30, r30
    18f2:	88 f7       	brcc	.-30     	; 0x18d6 <__divsf3_pse+0x90>
    18f4:	e0 95       	com	r30
    18f6:	08 95       	ret

000018f8 <__fixsfsi>:
    18f8:	04 d0       	rcall	.+8      	; 0x1902 <__fixunssfsi>
    18fa:	68 94       	set
    18fc:	b1 11       	cpse	r27, r1
    18fe:	d9 c0       	rjmp	.+434    	; 0x1ab2 <__fp_szero>
    1900:	08 95       	ret

00001902 <__fixunssfsi>:
    1902:	bc d0       	rcall	.+376    	; 0x1a7c <__fp_splitA>
    1904:	88 f0       	brcs	.+34     	; 0x1928 <__fixunssfsi+0x26>
    1906:	9f 57       	subi	r25, 0x7F	; 127
    1908:	90 f0       	brcs	.+36     	; 0x192e <__fixunssfsi+0x2c>
    190a:	b9 2f       	mov	r27, r25
    190c:	99 27       	eor	r25, r25
    190e:	b7 51       	subi	r27, 0x17	; 23
    1910:	a0 f0       	brcs	.+40     	; 0x193a <__fixunssfsi+0x38>
    1912:	d1 f0       	breq	.+52     	; 0x1948 <__fixunssfsi+0x46>
    1914:	66 0f       	add	r22, r22
    1916:	77 1f       	adc	r23, r23
    1918:	88 1f       	adc	r24, r24
    191a:	99 1f       	adc	r25, r25
    191c:	1a f0       	brmi	.+6      	; 0x1924 <__fixunssfsi+0x22>
    191e:	ba 95       	dec	r27
    1920:	c9 f7       	brne	.-14     	; 0x1914 <__fixunssfsi+0x12>
    1922:	12 c0       	rjmp	.+36     	; 0x1948 <__fixunssfsi+0x46>
    1924:	b1 30       	cpi	r27, 0x01	; 1
    1926:	81 f0       	breq	.+32     	; 0x1948 <__fixunssfsi+0x46>
    1928:	c3 d0       	rcall	.+390    	; 0x1ab0 <__fp_zero>
    192a:	b1 e0       	ldi	r27, 0x01	; 1
    192c:	08 95       	ret
    192e:	c0 c0       	rjmp	.+384    	; 0x1ab0 <__fp_zero>
    1930:	67 2f       	mov	r22, r23
    1932:	78 2f       	mov	r23, r24
    1934:	88 27       	eor	r24, r24
    1936:	b8 5f       	subi	r27, 0xF8	; 248
    1938:	39 f0       	breq	.+14     	; 0x1948 <__fixunssfsi+0x46>
    193a:	b9 3f       	cpi	r27, 0xF9	; 249
    193c:	cc f3       	brlt	.-14     	; 0x1930 <__fixunssfsi+0x2e>
    193e:	86 95       	lsr	r24
    1940:	77 95       	ror	r23
    1942:	67 95       	ror	r22
    1944:	b3 95       	inc	r27
    1946:	d9 f7       	brne	.-10     	; 0x193e <__fixunssfsi+0x3c>
    1948:	3e f4       	brtc	.+14     	; 0x1958 <__fixunssfsi+0x56>
    194a:	90 95       	com	r25
    194c:	80 95       	com	r24
    194e:	70 95       	com	r23
    1950:	61 95       	neg	r22
    1952:	7f 4f       	sbci	r23, 0xFF	; 255
    1954:	8f 4f       	sbci	r24, 0xFF	; 255
    1956:	9f 4f       	sbci	r25, 0xFF	; 255
    1958:	08 95       	ret

0000195a <__floatunsisf>:
    195a:	e8 94       	clt
    195c:	09 c0       	rjmp	.+18     	; 0x1970 <__floatsisf+0x12>

0000195e <__floatsisf>:
    195e:	97 fb       	bst	r25, 7
    1960:	3e f4       	brtc	.+14     	; 0x1970 <__floatsisf+0x12>
    1962:	90 95       	com	r25
    1964:	80 95       	com	r24
    1966:	70 95       	com	r23
    1968:	61 95       	neg	r22
    196a:	7f 4f       	sbci	r23, 0xFF	; 255
    196c:	8f 4f       	sbci	r24, 0xFF	; 255
    196e:	9f 4f       	sbci	r25, 0xFF	; 255
    1970:	99 23       	and	r25, r25
    1972:	a9 f0       	breq	.+42     	; 0x199e <__floatsisf+0x40>
    1974:	f9 2f       	mov	r31, r25
    1976:	96 e9       	ldi	r25, 0x96	; 150
    1978:	bb 27       	eor	r27, r27
    197a:	93 95       	inc	r25
    197c:	f6 95       	lsr	r31
    197e:	87 95       	ror	r24
    1980:	77 95       	ror	r23
    1982:	67 95       	ror	r22
    1984:	b7 95       	ror	r27
    1986:	f1 11       	cpse	r31, r1
    1988:	f8 cf       	rjmp	.-16     	; 0x197a <__floatsisf+0x1c>
    198a:	fa f4       	brpl	.+62     	; 0x19ca <__floatsisf+0x6c>
    198c:	bb 0f       	add	r27, r27
    198e:	11 f4       	brne	.+4      	; 0x1994 <__floatsisf+0x36>
    1990:	60 ff       	sbrs	r22, 0
    1992:	1b c0       	rjmp	.+54     	; 0x19ca <__floatsisf+0x6c>
    1994:	6f 5f       	subi	r22, 0xFF	; 255
    1996:	7f 4f       	sbci	r23, 0xFF	; 255
    1998:	8f 4f       	sbci	r24, 0xFF	; 255
    199a:	9f 4f       	sbci	r25, 0xFF	; 255
    199c:	16 c0       	rjmp	.+44     	; 0x19ca <__floatsisf+0x6c>
    199e:	88 23       	and	r24, r24
    19a0:	11 f0       	breq	.+4      	; 0x19a6 <__floatsisf+0x48>
    19a2:	96 e9       	ldi	r25, 0x96	; 150
    19a4:	11 c0       	rjmp	.+34     	; 0x19c8 <__floatsisf+0x6a>
    19a6:	77 23       	and	r23, r23
    19a8:	21 f0       	breq	.+8      	; 0x19b2 <__floatsisf+0x54>
    19aa:	9e e8       	ldi	r25, 0x8E	; 142
    19ac:	87 2f       	mov	r24, r23
    19ae:	76 2f       	mov	r23, r22
    19b0:	05 c0       	rjmp	.+10     	; 0x19bc <__floatsisf+0x5e>
    19b2:	66 23       	and	r22, r22
    19b4:	71 f0       	breq	.+28     	; 0x19d2 <__floatsisf+0x74>
    19b6:	96 e8       	ldi	r25, 0x86	; 134
    19b8:	86 2f       	mov	r24, r22
    19ba:	70 e0       	ldi	r23, 0x00	; 0
    19bc:	60 e0       	ldi	r22, 0x00	; 0
    19be:	2a f0       	brmi	.+10     	; 0x19ca <__floatsisf+0x6c>
    19c0:	9a 95       	dec	r25
    19c2:	66 0f       	add	r22, r22
    19c4:	77 1f       	adc	r23, r23
    19c6:	88 1f       	adc	r24, r24
    19c8:	da f7       	brpl	.-10     	; 0x19c0 <__floatsisf+0x62>
    19ca:	88 0f       	add	r24, r24
    19cc:	96 95       	lsr	r25
    19ce:	87 95       	ror	r24
    19d0:	97 f9       	bld	r25, 7
    19d2:	08 95       	ret

000019d4 <__fp_cmp>:
    19d4:	99 0f       	add	r25, r25
    19d6:	00 08       	sbc	r0, r0
    19d8:	55 0f       	add	r21, r21
    19da:	aa 0b       	sbc	r26, r26
    19dc:	e0 e8       	ldi	r30, 0x80	; 128
    19de:	fe ef       	ldi	r31, 0xFE	; 254
    19e0:	16 16       	cp	r1, r22
    19e2:	17 06       	cpc	r1, r23
    19e4:	e8 07       	cpc	r30, r24
    19e6:	f9 07       	cpc	r31, r25
    19e8:	c0 f0       	brcs	.+48     	; 0x1a1a <__fp_cmp+0x46>
    19ea:	12 16       	cp	r1, r18
    19ec:	13 06       	cpc	r1, r19
    19ee:	e4 07       	cpc	r30, r20
    19f0:	f5 07       	cpc	r31, r21
    19f2:	98 f0       	brcs	.+38     	; 0x1a1a <__fp_cmp+0x46>
    19f4:	62 1b       	sub	r22, r18
    19f6:	73 0b       	sbc	r23, r19
    19f8:	84 0b       	sbc	r24, r20
    19fa:	95 0b       	sbc	r25, r21
    19fc:	39 f4       	brne	.+14     	; 0x1a0c <__fp_cmp+0x38>
    19fe:	0a 26       	eor	r0, r26
    1a00:	61 f0       	breq	.+24     	; 0x1a1a <__fp_cmp+0x46>
    1a02:	23 2b       	or	r18, r19
    1a04:	24 2b       	or	r18, r20
    1a06:	25 2b       	or	r18, r21
    1a08:	21 f4       	brne	.+8      	; 0x1a12 <__fp_cmp+0x3e>
    1a0a:	08 95       	ret
    1a0c:	0a 26       	eor	r0, r26
    1a0e:	09 f4       	brne	.+2      	; 0x1a12 <__fp_cmp+0x3e>
    1a10:	a1 40       	sbci	r26, 0x01	; 1
    1a12:	a6 95       	lsr	r26
    1a14:	8f ef       	ldi	r24, 0xFF	; 255
    1a16:	81 1d       	adc	r24, r1
    1a18:	81 1d       	adc	r24, r1
    1a1a:	08 95       	ret

00001a1c <__fp_inf>:
    1a1c:	97 f9       	bld	r25, 7
    1a1e:	9f 67       	ori	r25, 0x7F	; 127
    1a20:	80 e8       	ldi	r24, 0x80	; 128
    1a22:	70 e0       	ldi	r23, 0x00	; 0
    1a24:	60 e0       	ldi	r22, 0x00	; 0
    1a26:	08 95       	ret

00001a28 <__fp_nan>:
    1a28:	9f ef       	ldi	r25, 0xFF	; 255
    1a2a:	80 ec       	ldi	r24, 0xC0	; 192
    1a2c:	08 95       	ret

00001a2e <__fp_pscA>:
    1a2e:	00 24       	eor	r0, r0
    1a30:	0a 94       	dec	r0
    1a32:	16 16       	cp	r1, r22
    1a34:	17 06       	cpc	r1, r23
    1a36:	18 06       	cpc	r1, r24
    1a38:	09 06       	cpc	r0, r25
    1a3a:	08 95       	ret

00001a3c <__fp_pscB>:
    1a3c:	00 24       	eor	r0, r0
    1a3e:	0a 94       	dec	r0
    1a40:	12 16       	cp	r1, r18
    1a42:	13 06       	cpc	r1, r19
    1a44:	14 06       	cpc	r1, r20
    1a46:	05 06       	cpc	r0, r21
    1a48:	08 95       	ret

00001a4a <__fp_round>:
    1a4a:	09 2e       	mov	r0, r25
    1a4c:	03 94       	inc	r0
    1a4e:	00 0c       	add	r0, r0
    1a50:	11 f4       	brne	.+4      	; 0x1a56 <__fp_round+0xc>
    1a52:	88 23       	and	r24, r24
    1a54:	52 f0       	brmi	.+20     	; 0x1a6a <__fp_round+0x20>
    1a56:	bb 0f       	add	r27, r27
    1a58:	40 f4       	brcc	.+16     	; 0x1a6a <__fp_round+0x20>
    1a5a:	bf 2b       	or	r27, r31
    1a5c:	11 f4       	brne	.+4      	; 0x1a62 <__fp_round+0x18>
    1a5e:	60 ff       	sbrs	r22, 0
    1a60:	04 c0       	rjmp	.+8      	; 0x1a6a <__fp_round+0x20>
    1a62:	6f 5f       	subi	r22, 0xFF	; 255
    1a64:	7f 4f       	sbci	r23, 0xFF	; 255
    1a66:	8f 4f       	sbci	r24, 0xFF	; 255
    1a68:	9f 4f       	sbci	r25, 0xFF	; 255
    1a6a:	08 95       	ret

00001a6c <__fp_split3>:
    1a6c:	57 fd       	sbrc	r21, 7
    1a6e:	90 58       	subi	r25, 0x80	; 128
    1a70:	44 0f       	add	r20, r20
    1a72:	55 1f       	adc	r21, r21
    1a74:	59 f0       	breq	.+22     	; 0x1a8c <__fp_splitA+0x10>
    1a76:	5f 3f       	cpi	r21, 0xFF	; 255
    1a78:	71 f0       	breq	.+28     	; 0x1a96 <__fp_splitA+0x1a>
    1a7a:	47 95       	ror	r20

00001a7c <__fp_splitA>:
    1a7c:	88 0f       	add	r24, r24
    1a7e:	97 fb       	bst	r25, 7
    1a80:	99 1f       	adc	r25, r25
    1a82:	61 f0       	breq	.+24     	; 0x1a9c <__fp_splitA+0x20>
    1a84:	9f 3f       	cpi	r25, 0xFF	; 255
    1a86:	79 f0       	breq	.+30     	; 0x1aa6 <__fp_splitA+0x2a>
    1a88:	87 95       	ror	r24
    1a8a:	08 95       	ret
    1a8c:	12 16       	cp	r1, r18
    1a8e:	13 06       	cpc	r1, r19
    1a90:	14 06       	cpc	r1, r20
    1a92:	55 1f       	adc	r21, r21
    1a94:	f2 cf       	rjmp	.-28     	; 0x1a7a <__fp_split3+0xe>
    1a96:	46 95       	lsr	r20
    1a98:	f1 df       	rcall	.-30     	; 0x1a7c <__fp_splitA>
    1a9a:	08 c0       	rjmp	.+16     	; 0x1aac <__fp_splitA+0x30>
    1a9c:	16 16       	cp	r1, r22
    1a9e:	17 06       	cpc	r1, r23
    1aa0:	18 06       	cpc	r1, r24
    1aa2:	99 1f       	adc	r25, r25
    1aa4:	f1 cf       	rjmp	.-30     	; 0x1a88 <__fp_splitA+0xc>
    1aa6:	86 95       	lsr	r24
    1aa8:	71 05       	cpc	r23, r1
    1aaa:	61 05       	cpc	r22, r1
    1aac:	08 94       	sec
    1aae:	08 95       	ret

00001ab0 <__fp_zero>:
    1ab0:	e8 94       	clt

00001ab2 <__fp_szero>:
    1ab2:	bb 27       	eor	r27, r27
    1ab4:	66 27       	eor	r22, r22
    1ab6:	77 27       	eor	r23, r23
    1ab8:	cb 01       	movw	r24, r22
    1aba:	97 f9       	bld	r25, 7
    1abc:	08 95       	ret

00001abe <__mulsf3>:
    1abe:	0b d0       	rcall	.+22     	; 0x1ad6 <__mulsf3x>
    1ac0:	c4 cf       	rjmp	.-120    	; 0x1a4a <__fp_round>
    1ac2:	b5 df       	rcall	.-150    	; 0x1a2e <__fp_pscA>
    1ac4:	28 f0       	brcs	.+10     	; 0x1ad0 <__mulsf3+0x12>
    1ac6:	ba df       	rcall	.-140    	; 0x1a3c <__fp_pscB>
    1ac8:	18 f0       	brcs	.+6      	; 0x1ad0 <__mulsf3+0x12>
    1aca:	95 23       	and	r25, r21
    1acc:	09 f0       	breq	.+2      	; 0x1ad0 <__mulsf3+0x12>
    1ace:	a6 cf       	rjmp	.-180    	; 0x1a1c <__fp_inf>
    1ad0:	ab cf       	rjmp	.-170    	; 0x1a28 <__fp_nan>
    1ad2:	11 24       	eor	r1, r1
    1ad4:	ee cf       	rjmp	.-36     	; 0x1ab2 <__fp_szero>

00001ad6 <__mulsf3x>:
    1ad6:	ca df       	rcall	.-108    	; 0x1a6c <__fp_split3>
    1ad8:	a0 f3       	brcs	.-24     	; 0x1ac2 <__mulsf3+0x4>

00001ada <__mulsf3_pse>:
    1ada:	95 9f       	mul	r25, r21
    1adc:	d1 f3       	breq	.-12     	; 0x1ad2 <__mulsf3+0x14>
    1ade:	95 0f       	add	r25, r21
    1ae0:	50 e0       	ldi	r21, 0x00	; 0
    1ae2:	55 1f       	adc	r21, r21
    1ae4:	62 9f       	mul	r22, r18
    1ae6:	f0 01       	movw	r30, r0
    1ae8:	72 9f       	mul	r23, r18
    1aea:	bb 27       	eor	r27, r27
    1aec:	f0 0d       	add	r31, r0
    1aee:	b1 1d       	adc	r27, r1
    1af0:	63 9f       	mul	r22, r19
    1af2:	aa 27       	eor	r26, r26
    1af4:	f0 0d       	add	r31, r0
    1af6:	b1 1d       	adc	r27, r1
    1af8:	aa 1f       	adc	r26, r26
    1afa:	64 9f       	mul	r22, r20
    1afc:	66 27       	eor	r22, r22
    1afe:	b0 0d       	add	r27, r0
    1b00:	a1 1d       	adc	r26, r1
    1b02:	66 1f       	adc	r22, r22
    1b04:	82 9f       	mul	r24, r18
    1b06:	22 27       	eor	r18, r18
    1b08:	b0 0d       	add	r27, r0
    1b0a:	a1 1d       	adc	r26, r1
    1b0c:	62 1f       	adc	r22, r18
    1b0e:	73 9f       	mul	r23, r19
    1b10:	b0 0d       	add	r27, r0
    1b12:	a1 1d       	adc	r26, r1
    1b14:	62 1f       	adc	r22, r18
    1b16:	83 9f       	mul	r24, r19
    1b18:	a0 0d       	add	r26, r0
    1b1a:	61 1d       	adc	r22, r1
    1b1c:	22 1f       	adc	r18, r18
    1b1e:	74 9f       	mul	r23, r20
    1b20:	33 27       	eor	r19, r19
    1b22:	a0 0d       	add	r26, r0
    1b24:	61 1d       	adc	r22, r1
    1b26:	23 1f       	adc	r18, r19
    1b28:	84 9f       	mul	r24, r20
    1b2a:	60 0d       	add	r22, r0
    1b2c:	21 1d       	adc	r18, r1
    1b2e:	82 2f       	mov	r24, r18
    1b30:	76 2f       	mov	r23, r22
    1b32:	6a 2f       	mov	r22, r26
    1b34:	11 24       	eor	r1, r1
    1b36:	9f 57       	subi	r25, 0x7F	; 127
    1b38:	50 40       	sbci	r21, 0x00	; 0
    1b3a:	8a f0       	brmi	.+34     	; 0x1b5e <__mulsf3_pse+0x84>
    1b3c:	e1 f0       	breq	.+56     	; 0x1b76 <__mulsf3_pse+0x9c>
    1b3e:	88 23       	and	r24, r24
    1b40:	4a f0       	brmi	.+18     	; 0x1b54 <__mulsf3_pse+0x7a>
    1b42:	ee 0f       	add	r30, r30
    1b44:	ff 1f       	adc	r31, r31
    1b46:	bb 1f       	adc	r27, r27
    1b48:	66 1f       	adc	r22, r22
    1b4a:	77 1f       	adc	r23, r23
    1b4c:	88 1f       	adc	r24, r24
    1b4e:	91 50       	subi	r25, 0x01	; 1
    1b50:	50 40       	sbci	r21, 0x00	; 0
    1b52:	a9 f7       	brne	.-22     	; 0x1b3e <__mulsf3_pse+0x64>
    1b54:	9e 3f       	cpi	r25, 0xFE	; 254
    1b56:	51 05       	cpc	r21, r1
    1b58:	70 f0       	brcs	.+28     	; 0x1b76 <__mulsf3_pse+0x9c>
    1b5a:	60 cf       	rjmp	.-320    	; 0x1a1c <__fp_inf>
    1b5c:	aa cf       	rjmp	.-172    	; 0x1ab2 <__fp_szero>
    1b5e:	5f 3f       	cpi	r21, 0xFF	; 255
    1b60:	ec f3       	brlt	.-6      	; 0x1b5c <__mulsf3_pse+0x82>
    1b62:	98 3e       	cpi	r25, 0xE8	; 232
    1b64:	dc f3       	brlt	.-10     	; 0x1b5c <__mulsf3_pse+0x82>
    1b66:	86 95       	lsr	r24
    1b68:	77 95       	ror	r23
    1b6a:	67 95       	ror	r22
    1b6c:	b7 95       	ror	r27
    1b6e:	f7 95       	ror	r31
    1b70:	e7 95       	ror	r30
    1b72:	9f 5f       	subi	r25, 0xFF	; 255
    1b74:	c1 f7       	brne	.-16     	; 0x1b66 <__mulsf3_pse+0x8c>
    1b76:	fe 2b       	or	r31, r30
    1b78:	88 0f       	add	r24, r24
    1b7a:	91 1d       	adc	r25, r1
    1b7c:	96 95       	lsr	r25
    1b7e:	87 95       	ror	r24
    1b80:	97 f9       	bld	r25, 7
    1b82:	08 95       	ret

00001b84 <__divmodhi4>:
    1b84:	97 fb       	bst	r25, 7
    1b86:	09 2e       	mov	r0, r25
    1b88:	07 26       	eor	r0, r23
    1b8a:	0a d0       	rcall	.+20     	; 0x1ba0 <__divmodhi4_neg1>
    1b8c:	77 fd       	sbrc	r23, 7
    1b8e:	04 d0       	rcall	.+8      	; 0x1b98 <__divmodhi4_neg2>
    1b90:	2e d0       	rcall	.+92     	; 0x1bee <__udivmodhi4>
    1b92:	06 d0       	rcall	.+12     	; 0x1ba0 <__divmodhi4_neg1>
    1b94:	00 20       	and	r0, r0
    1b96:	1a f4       	brpl	.+6      	; 0x1b9e <__divmodhi4_exit>

00001b98 <__divmodhi4_neg2>:
    1b98:	70 95       	com	r23
    1b9a:	61 95       	neg	r22
    1b9c:	7f 4f       	sbci	r23, 0xFF	; 255

00001b9e <__divmodhi4_exit>:
    1b9e:	08 95       	ret

00001ba0 <__divmodhi4_neg1>:
    1ba0:	f6 f7       	brtc	.-4      	; 0x1b9e <__divmodhi4_exit>
    1ba2:	90 95       	com	r25
    1ba4:	81 95       	neg	r24
    1ba6:	9f 4f       	sbci	r25, 0xFF	; 255
    1ba8:	08 95       	ret

00001baa <__udivmodsi4>:
    1baa:	a1 e2       	ldi	r26, 0x21	; 33
    1bac:	1a 2e       	mov	r1, r26
    1bae:	aa 1b       	sub	r26, r26
    1bb0:	bb 1b       	sub	r27, r27
    1bb2:	fd 01       	movw	r30, r26
    1bb4:	0d c0       	rjmp	.+26     	; 0x1bd0 <__udivmodsi4_ep>

00001bb6 <__udivmodsi4_loop>:
    1bb6:	aa 1f       	adc	r26, r26
    1bb8:	bb 1f       	adc	r27, r27
    1bba:	ee 1f       	adc	r30, r30
    1bbc:	ff 1f       	adc	r31, r31
    1bbe:	a2 17       	cp	r26, r18
    1bc0:	b3 07       	cpc	r27, r19
    1bc2:	e4 07       	cpc	r30, r20
    1bc4:	f5 07       	cpc	r31, r21
    1bc6:	20 f0       	brcs	.+8      	; 0x1bd0 <__udivmodsi4_ep>
    1bc8:	a2 1b       	sub	r26, r18
    1bca:	b3 0b       	sbc	r27, r19
    1bcc:	e4 0b       	sbc	r30, r20
    1bce:	f5 0b       	sbc	r31, r21

00001bd0 <__udivmodsi4_ep>:
    1bd0:	66 1f       	adc	r22, r22
    1bd2:	77 1f       	adc	r23, r23
    1bd4:	88 1f       	adc	r24, r24
    1bd6:	99 1f       	adc	r25, r25
    1bd8:	1a 94       	dec	r1
    1bda:	69 f7       	brne	.-38     	; 0x1bb6 <__udivmodsi4_loop>
    1bdc:	60 95       	com	r22
    1bde:	70 95       	com	r23
    1be0:	80 95       	com	r24
    1be2:	90 95       	com	r25
    1be4:	9b 01       	movw	r18, r22
    1be6:	ac 01       	movw	r20, r24
    1be8:	bd 01       	movw	r22, r26
    1bea:	cf 01       	movw	r24, r30
    1bec:	08 95       	ret

00001bee <__udivmodhi4>:
    1bee:	aa 1b       	sub	r26, r26
    1bf0:	bb 1b       	sub	r27, r27
    1bf2:	51 e1       	ldi	r21, 0x11	; 17
    1bf4:	07 c0       	rjmp	.+14     	; 0x1c04 <__udivmodhi4_ep>

00001bf6 <__udivmodhi4_loop>:
    1bf6:	aa 1f       	adc	r26, r26
    1bf8:	bb 1f       	adc	r27, r27
    1bfa:	a6 17       	cp	r26, r22
    1bfc:	b7 07       	cpc	r27, r23
    1bfe:	10 f0       	brcs	.+4      	; 0x1c04 <__udivmodhi4_ep>
    1c00:	a6 1b       	sub	r26, r22
    1c02:	b7 0b       	sbc	r27, r23

00001c04 <__udivmodhi4_ep>:
    1c04:	88 1f       	adc	r24, r24
    1c06:	99 1f       	adc	r25, r25
    1c08:	5a 95       	dec	r21
    1c0a:	a9 f7       	brne	.-22     	; 0x1bf6 <__udivmodhi4_loop>
    1c0c:	80 95       	com	r24
    1c0e:	90 95       	com	r25
    1c10:	bc 01       	movw	r22, r24
    1c12:	cd 01       	movw	r24, r26
    1c14:	08 95       	ret

00001c16 <sprintf>:
    1c16:	ae e0       	ldi	r26, 0x0E	; 14
    1c18:	b0 e0       	ldi	r27, 0x00	; 0
    1c1a:	e1 e1       	ldi	r30, 0x11	; 17
    1c1c:	fe e0       	ldi	r31, 0x0E	; 14
    1c1e:	0c 94 b9 10 	jmp	0x2172	; 0x2172 <__prologue_saves__+0x1c>
    1c22:	0d 89       	ldd	r16, Y+21	; 0x15
    1c24:	1e 89       	ldd	r17, Y+22	; 0x16
    1c26:	86 e0       	ldi	r24, 0x06	; 6
    1c28:	8c 83       	std	Y+4, r24	; 0x04
    1c2a:	1a 83       	std	Y+2, r17	; 0x02
    1c2c:	09 83       	std	Y+1, r16	; 0x01
    1c2e:	8f ef       	ldi	r24, 0xFF	; 255
    1c30:	9f e7       	ldi	r25, 0x7F	; 127
    1c32:	9e 83       	std	Y+6, r25	; 0x06
    1c34:	8d 83       	std	Y+5, r24	; 0x05
    1c36:	ae 01       	movw	r20, r28
    1c38:	47 5e       	subi	r20, 0xE7	; 231
    1c3a:	5f 4f       	sbci	r21, 0xFF	; 255
    1c3c:	ce 01       	movw	r24, r28
    1c3e:	01 96       	adiw	r24, 0x01	; 1
    1c40:	6f 89       	ldd	r22, Y+23	; 0x17
    1c42:	78 8d       	ldd	r23, Y+24	; 0x18
    1c44:	0e 94 2d 0e 	call	0x1c5a	; 0x1c5a <vfprintf>
    1c48:	ef 81       	ldd	r30, Y+7	; 0x07
    1c4a:	f8 85       	ldd	r31, Y+8	; 0x08
    1c4c:	e0 0f       	add	r30, r16
    1c4e:	f1 1f       	adc	r31, r17
    1c50:	10 82       	st	Z, r1
    1c52:	2e 96       	adiw	r28, 0x0e	; 14
    1c54:	e4 e0       	ldi	r30, 0x04	; 4
    1c56:	0c 94 d5 10 	jmp	0x21aa	; 0x21aa <__epilogue_restores__+0x1c>

00001c5a <vfprintf>:
    1c5a:	ad e0       	ldi	r26, 0x0D	; 13
    1c5c:	b0 e0       	ldi	r27, 0x00	; 0
    1c5e:	e3 e3       	ldi	r30, 0x33	; 51
    1c60:	fe e0       	ldi	r31, 0x0E	; 14
    1c62:	0c 94 ab 10 	jmp	0x2156	; 0x2156 <__prologue_saves__>
    1c66:	3c 01       	movw	r6, r24
    1c68:	7d 87       	std	Y+13, r23	; 0x0d
    1c6a:	6c 87       	std	Y+12, r22	; 0x0c
    1c6c:	5a 01       	movw	r10, r20
    1c6e:	fc 01       	movw	r30, r24
    1c70:	17 82       	std	Z+7, r1	; 0x07
    1c72:	16 82       	std	Z+6, r1	; 0x06
    1c74:	83 81       	ldd	r24, Z+3	; 0x03
    1c76:	81 ff       	sbrs	r24, 1
    1c78:	c8 c1       	rjmp	.+912    	; 0x200a <vfprintf+0x3b0>
    1c7a:	2e 01       	movw	r4, r28
    1c7c:	08 94       	sec
    1c7e:	41 1c       	adc	r4, r1
    1c80:	51 1c       	adc	r5, r1
    1c82:	f3 01       	movw	r30, r6
    1c84:	93 81       	ldd	r25, Z+3	; 0x03
    1c86:	ec 85       	ldd	r30, Y+12	; 0x0c
    1c88:	fd 85       	ldd	r31, Y+13	; 0x0d
    1c8a:	93 fd       	sbrc	r25, 3
    1c8c:	85 91       	lpm	r24, Z+
    1c8e:	93 ff       	sbrs	r25, 3
    1c90:	81 91       	ld	r24, Z+
    1c92:	fd 87       	std	Y+13, r31	; 0x0d
    1c94:	ec 87       	std	Y+12, r30	; 0x0c
    1c96:	88 23       	and	r24, r24
    1c98:	09 f4       	brne	.+2      	; 0x1c9c <vfprintf+0x42>
    1c9a:	b3 c1       	rjmp	.+870    	; 0x2002 <vfprintf+0x3a8>
    1c9c:	85 32       	cpi	r24, 0x25	; 37
    1c9e:	41 f4       	brne	.+16     	; 0x1cb0 <vfprintf+0x56>
    1ca0:	93 fd       	sbrc	r25, 3
    1ca2:	85 91       	lpm	r24, Z+
    1ca4:	93 ff       	sbrs	r25, 3
    1ca6:	81 91       	ld	r24, Z+
    1ca8:	fd 87       	std	Y+13, r31	; 0x0d
    1caa:	ec 87       	std	Y+12, r30	; 0x0c
    1cac:	85 32       	cpi	r24, 0x25	; 37
    1cae:	29 f4       	brne	.+10     	; 0x1cba <vfprintf+0x60>
    1cb0:	90 e0       	ldi	r25, 0x00	; 0
    1cb2:	b3 01       	movw	r22, r6
    1cb4:	0e 94 21 10 	call	0x2042	; 0x2042 <fputc>
    1cb8:	e4 cf       	rjmp	.-56     	; 0x1c82 <vfprintf+0x28>
    1cba:	ff 24       	eor	r15, r15
    1cbc:	ee 24       	eor	r14, r14
    1cbe:	10 e0       	ldi	r17, 0x00	; 0
    1cc0:	10 32       	cpi	r17, 0x20	; 32
    1cc2:	b0 f4       	brcc	.+44     	; 0x1cf0 <vfprintf+0x96>
    1cc4:	8b 32       	cpi	r24, 0x2B	; 43
    1cc6:	69 f0       	breq	.+26     	; 0x1ce2 <vfprintf+0x88>
    1cc8:	8c 32       	cpi	r24, 0x2C	; 44
    1cca:	28 f4       	brcc	.+10     	; 0x1cd6 <vfprintf+0x7c>
    1ccc:	80 32       	cpi	r24, 0x20	; 32
    1cce:	51 f0       	breq	.+20     	; 0x1ce4 <vfprintf+0x8a>
    1cd0:	83 32       	cpi	r24, 0x23	; 35
    1cd2:	71 f4       	brne	.+28     	; 0x1cf0 <vfprintf+0x96>
    1cd4:	0b c0       	rjmp	.+22     	; 0x1cec <vfprintf+0x92>
    1cd6:	8d 32       	cpi	r24, 0x2D	; 45
    1cd8:	39 f0       	breq	.+14     	; 0x1ce8 <vfprintf+0x8e>
    1cda:	80 33       	cpi	r24, 0x30	; 48
    1cdc:	49 f4       	brne	.+18     	; 0x1cf0 <vfprintf+0x96>
    1cde:	11 60       	ori	r17, 0x01	; 1
    1ce0:	2c c0       	rjmp	.+88     	; 0x1d3a <vfprintf+0xe0>
    1ce2:	12 60       	ori	r17, 0x02	; 2
    1ce4:	14 60       	ori	r17, 0x04	; 4
    1ce6:	29 c0       	rjmp	.+82     	; 0x1d3a <vfprintf+0xe0>
    1ce8:	18 60       	ori	r17, 0x08	; 8
    1cea:	27 c0       	rjmp	.+78     	; 0x1d3a <vfprintf+0xe0>
    1cec:	10 61       	ori	r17, 0x10	; 16
    1cee:	25 c0       	rjmp	.+74     	; 0x1d3a <vfprintf+0xe0>
    1cf0:	17 fd       	sbrc	r17, 7
    1cf2:	2e c0       	rjmp	.+92     	; 0x1d50 <vfprintf+0xf6>
    1cf4:	28 2f       	mov	r18, r24
    1cf6:	20 53       	subi	r18, 0x30	; 48
    1cf8:	2a 30       	cpi	r18, 0x0A	; 10
    1cfa:	98 f4       	brcc	.+38     	; 0x1d22 <vfprintf+0xc8>
    1cfc:	16 ff       	sbrs	r17, 6
    1cfe:	08 c0       	rjmp	.+16     	; 0x1d10 <vfprintf+0xb6>
    1d00:	8f 2d       	mov	r24, r15
    1d02:	88 0f       	add	r24, r24
    1d04:	f8 2e       	mov	r15, r24
    1d06:	ff 0c       	add	r15, r15
    1d08:	ff 0c       	add	r15, r15
    1d0a:	f8 0e       	add	r15, r24
    1d0c:	f2 0e       	add	r15, r18
    1d0e:	15 c0       	rjmp	.+42     	; 0x1d3a <vfprintf+0xe0>
    1d10:	8e 2d       	mov	r24, r14
    1d12:	88 0f       	add	r24, r24
    1d14:	e8 2e       	mov	r14, r24
    1d16:	ee 0c       	add	r14, r14
    1d18:	ee 0c       	add	r14, r14
    1d1a:	e8 0e       	add	r14, r24
    1d1c:	e2 0e       	add	r14, r18
    1d1e:	10 62       	ori	r17, 0x20	; 32
    1d20:	0c c0       	rjmp	.+24     	; 0x1d3a <vfprintf+0xe0>
    1d22:	8e 32       	cpi	r24, 0x2E	; 46
    1d24:	21 f4       	brne	.+8      	; 0x1d2e <vfprintf+0xd4>
    1d26:	16 fd       	sbrc	r17, 6
    1d28:	6c c1       	rjmp	.+728    	; 0x2002 <vfprintf+0x3a8>
    1d2a:	10 64       	ori	r17, 0x40	; 64
    1d2c:	06 c0       	rjmp	.+12     	; 0x1d3a <vfprintf+0xe0>
    1d2e:	8c 36       	cpi	r24, 0x6C	; 108
    1d30:	11 f4       	brne	.+4      	; 0x1d36 <vfprintf+0xdc>
    1d32:	10 68       	ori	r17, 0x80	; 128
    1d34:	02 c0       	rjmp	.+4      	; 0x1d3a <vfprintf+0xe0>
    1d36:	88 36       	cpi	r24, 0x68	; 104
    1d38:	59 f4       	brne	.+22     	; 0x1d50 <vfprintf+0xf6>
    1d3a:	ec 85       	ldd	r30, Y+12	; 0x0c
    1d3c:	fd 85       	ldd	r31, Y+13	; 0x0d
    1d3e:	93 fd       	sbrc	r25, 3
    1d40:	85 91       	lpm	r24, Z+
    1d42:	93 ff       	sbrs	r25, 3
    1d44:	81 91       	ld	r24, Z+
    1d46:	fd 87       	std	Y+13, r31	; 0x0d
    1d48:	ec 87       	std	Y+12, r30	; 0x0c
    1d4a:	88 23       	and	r24, r24
    1d4c:	09 f0       	breq	.+2      	; 0x1d50 <vfprintf+0xf6>
    1d4e:	b8 cf       	rjmp	.-144    	; 0x1cc0 <vfprintf+0x66>
    1d50:	98 2f       	mov	r25, r24
    1d52:	95 54       	subi	r25, 0x45	; 69
    1d54:	93 30       	cpi	r25, 0x03	; 3
    1d56:	18 f0       	brcs	.+6      	; 0x1d5e <vfprintf+0x104>
    1d58:	90 52       	subi	r25, 0x20	; 32
    1d5a:	93 30       	cpi	r25, 0x03	; 3
    1d5c:	38 f4       	brcc	.+14     	; 0x1d6c <vfprintf+0x112>
    1d5e:	24 e0       	ldi	r18, 0x04	; 4
    1d60:	30 e0       	ldi	r19, 0x00	; 0
    1d62:	a2 0e       	add	r10, r18
    1d64:	b3 1e       	adc	r11, r19
    1d66:	3f e3       	ldi	r19, 0x3F	; 63
    1d68:	39 83       	std	Y+1, r19	; 0x01
    1d6a:	0f c0       	rjmp	.+30     	; 0x1d8a <vfprintf+0x130>
    1d6c:	83 36       	cpi	r24, 0x63	; 99
    1d6e:	31 f0       	breq	.+12     	; 0x1d7c <vfprintf+0x122>
    1d70:	83 37       	cpi	r24, 0x73	; 115
    1d72:	81 f0       	breq	.+32     	; 0x1d94 <vfprintf+0x13a>
    1d74:	83 35       	cpi	r24, 0x53	; 83
    1d76:	09 f0       	breq	.+2      	; 0x1d7a <vfprintf+0x120>
    1d78:	5a c0       	rjmp	.+180    	; 0x1e2e <vfprintf+0x1d4>
    1d7a:	22 c0       	rjmp	.+68     	; 0x1dc0 <vfprintf+0x166>
    1d7c:	f5 01       	movw	r30, r10
    1d7e:	80 81       	ld	r24, Z
    1d80:	89 83       	std	Y+1, r24	; 0x01
    1d82:	22 e0       	ldi	r18, 0x02	; 2
    1d84:	30 e0       	ldi	r19, 0x00	; 0
    1d86:	a2 0e       	add	r10, r18
    1d88:	b3 1e       	adc	r11, r19
    1d8a:	21 e0       	ldi	r18, 0x01	; 1
    1d8c:	c2 2e       	mov	r12, r18
    1d8e:	d1 2c       	mov	r13, r1
    1d90:	42 01       	movw	r8, r4
    1d92:	14 c0       	rjmp	.+40     	; 0x1dbc <vfprintf+0x162>
    1d94:	92 e0       	ldi	r25, 0x02	; 2
    1d96:	29 2e       	mov	r2, r25
    1d98:	31 2c       	mov	r3, r1
    1d9a:	2a 0c       	add	r2, r10
    1d9c:	3b 1c       	adc	r3, r11
    1d9e:	f5 01       	movw	r30, r10
    1da0:	80 80       	ld	r8, Z
    1da2:	91 80       	ldd	r9, Z+1	; 0x01
    1da4:	16 ff       	sbrs	r17, 6
    1da6:	03 c0       	rjmp	.+6      	; 0x1dae <vfprintf+0x154>
    1da8:	6f 2d       	mov	r22, r15
    1daa:	70 e0       	ldi	r23, 0x00	; 0
    1dac:	02 c0       	rjmp	.+4      	; 0x1db2 <vfprintf+0x158>
    1dae:	6f ef       	ldi	r22, 0xFF	; 255
    1db0:	7f ef       	ldi	r23, 0xFF	; 255
    1db2:	c4 01       	movw	r24, r8
    1db4:	0e 94 16 10 	call	0x202c	; 0x202c <strnlen>
    1db8:	6c 01       	movw	r12, r24
    1dba:	51 01       	movw	r10, r2
    1dbc:	1f 77       	andi	r17, 0x7F	; 127
    1dbe:	15 c0       	rjmp	.+42     	; 0x1dea <vfprintf+0x190>
    1dc0:	82 e0       	ldi	r24, 0x02	; 2
    1dc2:	28 2e       	mov	r2, r24
    1dc4:	31 2c       	mov	r3, r1
    1dc6:	2a 0c       	add	r2, r10
    1dc8:	3b 1c       	adc	r3, r11
    1dca:	f5 01       	movw	r30, r10
    1dcc:	80 80       	ld	r8, Z
    1dce:	91 80       	ldd	r9, Z+1	; 0x01
    1dd0:	16 ff       	sbrs	r17, 6
    1dd2:	03 c0       	rjmp	.+6      	; 0x1dda <vfprintf+0x180>
    1dd4:	6f 2d       	mov	r22, r15
    1dd6:	70 e0       	ldi	r23, 0x00	; 0
    1dd8:	02 c0       	rjmp	.+4      	; 0x1dde <vfprintf+0x184>
    1dda:	6f ef       	ldi	r22, 0xFF	; 255
    1ddc:	7f ef       	ldi	r23, 0xFF	; 255
    1dde:	c4 01       	movw	r24, r8
    1de0:	0e 94 0b 10 	call	0x2016	; 0x2016 <strnlen_P>
    1de4:	6c 01       	movw	r12, r24
    1de6:	10 68       	ori	r17, 0x80	; 128
    1de8:	51 01       	movw	r10, r2
    1dea:	13 fd       	sbrc	r17, 3
    1dec:	1c c0       	rjmp	.+56     	; 0x1e26 <vfprintf+0x1cc>
    1dee:	06 c0       	rjmp	.+12     	; 0x1dfc <vfprintf+0x1a2>
    1df0:	80 e2       	ldi	r24, 0x20	; 32
    1df2:	90 e0       	ldi	r25, 0x00	; 0
    1df4:	b3 01       	movw	r22, r6
    1df6:	0e 94 21 10 	call	0x2042	; 0x2042 <fputc>
    1dfa:	ea 94       	dec	r14
    1dfc:	8e 2d       	mov	r24, r14
    1dfe:	90 e0       	ldi	r25, 0x00	; 0
    1e00:	c8 16       	cp	r12, r24
    1e02:	d9 06       	cpc	r13, r25
    1e04:	a8 f3       	brcs	.-22     	; 0x1df0 <vfprintf+0x196>
    1e06:	0f c0       	rjmp	.+30     	; 0x1e26 <vfprintf+0x1cc>
    1e08:	f4 01       	movw	r30, r8
    1e0a:	17 fd       	sbrc	r17, 7
    1e0c:	85 91       	lpm	r24, Z+
    1e0e:	17 ff       	sbrs	r17, 7
    1e10:	81 91       	ld	r24, Z+
    1e12:	4f 01       	movw	r8, r30
    1e14:	90 e0       	ldi	r25, 0x00	; 0
    1e16:	b3 01       	movw	r22, r6
    1e18:	0e 94 21 10 	call	0x2042	; 0x2042 <fputc>
    1e1c:	e1 10       	cpse	r14, r1
    1e1e:	ea 94       	dec	r14
    1e20:	08 94       	sec
    1e22:	c1 08       	sbc	r12, r1
    1e24:	d1 08       	sbc	r13, r1
    1e26:	c1 14       	cp	r12, r1
    1e28:	d1 04       	cpc	r13, r1
    1e2a:	71 f7       	brne	.-36     	; 0x1e08 <vfprintf+0x1ae>
    1e2c:	e7 c0       	rjmp	.+462    	; 0x1ffc <vfprintf+0x3a2>
    1e2e:	84 36       	cpi	r24, 0x64	; 100
    1e30:	11 f0       	breq	.+4      	; 0x1e36 <vfprintf+0x1dc>
    1e32:	89 36       	cpi	r24, 0x69	; 105
    1e34:	51 f5       	brne	.+84     	; 0x1e8a <vfprintf+0x230>
    1e36:	f5 01       	movw	r30, r10
    1e38:	17 ff       	sbrs	r17, 7
    1e3a:	07 c0       	rjmp	.+14     	; 0x1e4a <vfprintf+0x1f0>
    1e3c:	80 81       	ld	r24, Z
    1e3e:	91 81       	ldd	r25, Z+1	; 0x01
    1e40:	a2 81       	ldd	r26, Z+2	; 0x02
    1e42:	b3 81       	ldd	r27, Z+3	; 0x03
    1e44:	24 e0       	ldi	r18, 0x04	; 4
    1e46:	30 e0       	ldi	r19, 0x00	; 0
    1e48:	08 c0       	rjmp	.+16     	; 0x1e5a <vfprintf+0x200>
    1e4a:	80 81       	ld	r24, Z
    1e4c:	91 81       	ldd	r25, Z+1	; 0x01
    1e4e:	aa 27       	eor	r26, r26
    1e50:	97 fd       	sbrc	r25, 7
    1e52:	a0 95       	com	r26
    1e54:	ba 2f       	mov	r27, r26
    1e56:	22 e0       	ldi	r18, 0x02	; 2
    1e58:	30 e0       	ldi	r19, 0x00	; 0
    1e5a:	a2 0e       	add	r10, r18
    1e5c:	b3 1e       	adc	r11, r19
    1e5e:	01 2f       	mov	r16, r17
    1e60:	0f 76       	andi	r16, 0x6F	; 111
    1e62:	b7 ff       	sbrs	r27, 7
    1e64:	08 c0       	rjmp	.+16     	; 0x1e76 <vfprintf+0x21c>
    1e66:	b0 95       	com	r27
    1e68:	a0 95       	com	r26
    1e6a:	90 95       	com	r25
    1e6c:	81 95       	neg	r24
    1e6e:	9f 4f       	sbci	r25, 0xFF	; 255
    1e70:	af 4f       	sbci	r26, 0xFF	; 255
    1e72:	bf 4f       	sbci	r27, 0xFF	; 255
    1e74:	00 68       	ori	r16, 0x80	; 128
    1e76:	bc 01       	movw	r22, r24
    1e78:	cd 01       	movw	r24, r26
    1e7a:	a2 01       	movw	r20, r4
    1e7c:	2a e0       	ldi	r18, 0x0A	; 10
    1e7e:	30 e0       	ldi	r19, 0x00	; 0
    1e80:	0e 94 4d 10 	call	0x209a	; 0x209a <__ultoa_invert>
    1e84:	d8 2e       	mov	r13, r24
    1e86:	d4 18       	sub	r13, r4
    1e88:	3f c0       	rjmp	.+126    	; 0x1f08 <vfprintf+0x2ae>
    1e8a:	85 37       	cpi	r24, 0x75	; 117
    1e8c:	21 f4       	brne	.+8      	; 0x1e96 <vfprintf+0x23c>
    1e8e:	1f 7e       	andi	r17, 0xEF	; 239
    1e90:	2a e0       	ldi	r18, 0x0A	; 10
    1e92:	30 e0       	ldi	r19, 0x00	; 0
    1e94:	20 c0       	rjmp	.+64     	; 0x1ed6 <vfprintf+0x27c>
    1e96:	19 7f       	andi	r17, 0xF9	; 249
    1e98:	8f 36       	cpi	r24, 0x6F	; 111
    1e9a:	a9 f0       	breq	.+42     	; 0x1ec6 <vfprintf+0x26c>
    1e9c:	80 37       	cpi	r24, 0x70	; 112
    1e9e:	20 f4       	brcc	.+8      	; 0x1ea8 <vfprintf+0x24e>
    1ea0:	88 35       	cpi	r24, 0x58	; 88
    1ea2:	09 f0       	breq	.+2      	; 0x1ea6 <vfprintf+0x24c>
    1ea4:	ae c0       	rjmp	.+348    	; 0x2002 <vfprintf+0x3a8>
    1ea6:	0b c0       	rjmp	.+22     	; 0x1ebe <vfprintf+0x264>
    1ea8:	80 37       	cpi	r24, 0x70	; 112
    1eaa:	21 f0       	breq	.+8      	; 0x1eb4 <vfprintf+0x25a>
    1eac:	88 37       	cpi	r24, 0x78	; 120
    1eae:	09 f0       	breq	.+2      	; 0x1eb2 <vfprintf+0x258>
    1eb0:	a8 c0       	rjmp	.+336    	; 0x2002 <vfprintf+0x3a8>
    1eb2:	01 c0       	rjmp	.+2      	; 0x1eb6 <vfprintf+0x25c>
    1eb4:	10 61       	ori	r17, 0x10	; 16
    1eb6:	14 ff       	sbrs	r17, 4
    1eb8:	09 c0       	rjmp	.+18     	; 0x1ecc <vfprintf+0x272>
    1eba:	14 60       	ori	r17, 0x04	; 4
    1ebc:	07 c0       	rjmp	.+14     	; 0x1ecc <vfprintf+0x272>
    1ebe:	14 ff       	sbrs	r17, 4
    1ec0:	08 c0       	rjmp	.+16     	; 0x1ed2 <vfprintf+0x278>
    1ec2:	16 60       	ori	r17, 0x06	; 6
    1ec4:	06 c0       	rjmp	.+12     	; 0x1ed2 <vfprintf+0x278>
    1ec6:	28 e0       	ldi	r18, 0x08	; 8
    1ec8:	30 e0       	ldi	r19, 0x00	; 0
    1eca:	05 c0       	rjmp	.+10     	; 0x1ed6 <vfprintf+0x27c>
    1ecc:	20 e1       	ldi	r18, 0x10	; 16
    1ece:	30 e0       	ldi	r19, 0x00	; 0
    1ed0:	02 c0       	rjmp	.+4      	; 0x1ed6 <vfprintf+0x27c>
    1ed2:	20 e1       	ldi	r18, 0x10	; 16
    1ed4:	32 e0       	ldi	r19, 0x02	; 2
    1ed6:	f5 01       	movw	r30, r10
    1ed8:	17 ff       	sbrs	r17, 7
    1eda:	07 c0       	rjmp	.+14     	; 0x1eea <vfprintf+0x290>
    1edc:	60 81       	ld	r22, Z
    1ede:	71 81       	ldd	r23, Z+1	; 0x01
    1ee0:	82 81       	ldd	r24, Z+2	; 0x02
    1ee2:	93 81       	ldd	r25, Z+3	; 0x03
    1ee4:	44 e0       	ldi	r20, 0x04	; 4
    1ee6:	50 e0       	ldi	r21, 0x00	; 0
    1ee8:	06 c0       	rjmp	.+12     	; 0x1ef6 <vfprintf+0x29c>
    1eea:	60 81       	ld	r22, Z
    1eec:	71 81       	ldd	r23, Z+1	; 0x01
    1eee:	80 e0       	ldi	r24, 0x00	; 0
    1ef0:	90 e0       	ldi	r25, 0x00	; 0
    1ef2:	42 e0       	ldi	r20, 0x02	; 2
    1ef4:	50 e0       	ldi	r21, 0x00	; 0
    1ef6:	a4 0e       	add	r10, r20
    1ef8:	b5 1e       	adc	r11, r21
    1efa:	a2 01       	movw	r20, r4
    1efc:	0e 94 4d 10 	call	0x209a	; 0x209a <__ultoa_invert>
    1f00:	d8 2e       	mov	r13, r24
    1f02:	d4 18       	sub	r13, r4
    1f04:	01 2f       	mov	r16, r17
    1f06:	0f 77       	andi	r16, 0x7F	; 127
    1f08:	06 ff       	sbrs	r16, 6
    1f0a:	09 c0       	rjmp	.+18     	; 0x1f1e <vfprintf+0x2c4>
    1f0c:	0e 7f       	andi	r16, 0xFE	; 254
    1f0e:	df 14       	cp	r13, r15
    1f10:	30 f4       	brcc	.+12     	; 0x1f1e <vfprintf+0x2c4>
    1f12:	04 ff       	sbrs	r16, 4
    1f14:	06 c0       	rjmp	.+12     	; 0x1f22 <vfprintf+0x2c8>
    1f16:	02 fd       	sbrc	r16, 2
    1f18:	04 c0       	rjmp	.+8      	; 0x1f22 <vfprintf+0x2c8>
    1f1a:	0f 7e       	andi	r16, 0xEF	; 239
    1f1c:	02 c0       	rjmp	.+4      	; 0x1f22 <vfprintf+0x2c8>
    1f1e:	1d 2d       	mov	r17, r13
    1f20:	01 c0       	rjmp	.+2      	; 0x1f24 <vfprintf+0x2ca>
    1f22:	1f 2d       	mov	r17, r15
    1f24:	80 2f       	mov	r24, r16
    1f26:	90 e0       	ldi	r25, 0x00	; 0
    1f28:	04 ff       	sbrs	r16, 4
    1f2a:	0c c0       	rjmp	.+24     	; 0x1f44 <vfprintf+0x2ea>
    1f2c:	fe 01       	movw	r30, r28
    1f2e:	ed 0d       	add	r30, r13
    1f30:	f1 1d       	adc	r31, r1
    1f32:	20 81       	ld	r18, Z
    1f34:	20 33       	cpi	r18, 0x30	; 48
    1f36:	11 f4       	brne	.+4      	; 0x1f3c <vfprintf+0x2e2>
    1f38:	09 7e       	andi	r16, 0xE9	; 233
    1f3a:	09 c0       	rjmp	.+18     	; 0x1f4e <vfprintf+0x2f4>
    1f3c:	02 ff       	sbrs	r16, 2
    1f3e:	06 c0       	rjmp	.+12     	; 0x1f4c <vfprintf+0x2f2>
    1f40:	1e 5f       	subi	r17, 0xFE	; 254
    1f42:	05 c0       	rjmp	.+10     	; 0x1f4e <vfprintf+0x2f4>
    1f44:	86 78       	andi	r24, 0x86	; 134
    1f46:	90 70       	andi	r25, 0x00	; 0
    1f48:	00 97       	sbiw	r24, 0x00	; 0
    1f4a:	09 f0       	breq	.+2      	; 0x1f4e <vfprintf+0x2f4>
    1f4c:	1f 5f       	subi	r17, 0xFF	; 255
    1f4e:	80 2e       	mov	r8, r16
    1f50:	99 24       	eor	r9, r9
    1f52:	03 fd       	sbrc	r16, 3
    1f54:	12 c0       	rjmp	.+36     	; 0x1f7a <vfprintf+0x320>
    1f56:	00 ff       	sbrs	r16, 0
    1f58:	0d c0       	rjmp	.+26     	; 0x1f74 <vfprintf+0x31a>
    1f5a:	fd 2c       	mov	r15, r13
    1f5c:	1e 15       	cp	r17, r14
    1f5e:	50 f4       	brcc	.+20     	; 0x1f74 <vfprintf+0x31a>
    1f60:	fe 0c       	add	r15, r14
    1f62:	f1 1a       	sub	r15, r17
    1f64:	1e 2d       	mov	r17, r14
    1f66:	06 c0       	rjmp	.+12     	; 0x1f74 <vfprintf+0x31a>
    1f68:	80 e2       	ldi	r24, 0x20	; 32
    1f6a:	90 e0       	ldi	r25, 0x00	; 0
    1f6c:	b3 01       	movw	r22, r6
    1f6e:	0e 94 21 10 	call	0x2042	; 0x2042 <fputc>
    1f72:	1f 5f       	subi	r17, 0xFF	; 255
    1f74:	1e 15       	cp	r17, r14
    1f76:	c0 f3       	brcs	.-16     	; 0x1f68 <vfprintf+0x30e>
    1f78:	04 c0       	rjmp	.+8      	; 0x1f82 <vfprintf+0x328>
    1f7a:	1e 15       	cp	r17, r14
    1f7c:	10 f4       	brcc	.+4      	; 0x1f82 <vfprintf+0x328>
    1f7e:	e1 1a       	sub	r14, r17
    1f80:	01 c0       	rjmp	.+2      	; 0x1f84 <vfprintf+0x32a>
    1f82:	ee 24       	eor	r14, r14
    1f84:	84 fe       	sbrs	r8, 4
    1f86:	0f c0       	rjmp	.+30     	; 0x1fa6 <vfprintf+0x34c>
    1f88:	80 e3       	ldi	r24, 0x30	; 48
    1f8a:	90 e0       	ldi	r25, 0x00	; 0
    1f8c:	b3 01       	movw	r22, r6
    1f8e:	0e 94 21 10 	call	0x2042	; 0x2042 <fputc>
    1f92:	82 fe       	sbrs	r8, 2
    1f94:	1f c0       	rjmp	.+62     	; 0x1fd4 <vfprintf+0x37a>
    1f96:	81 fe       	sbrs	r8, 1
    1f98:	03 c0       	rjmp	.+6      	; 0x1fa0 <vfprintf+0x346>
    1f9a:	88 e5       	ldi	r24, 0x58	; 88
    1f9c:	90 e0       	ldi	r25, 0x00	; 0
    1f9e:	10 c0       	rjmp	.+32     	; 0x1fc0 <vfprintf+0x366>
    1fa0:	88 e7       	ldi	r24, 0x78	; 120
    1fa2:	90 e0       	ldi	r25, 0x00	; 0
    1fa4:	0d c0       	rjmp	.+26     	; 0x1fc0 <vfprintf+0x366>
    1fa6:	c4 01       	movw	r24, r8
    1fa8:	86 78       	andi	r24, 0x86	; 134
    1faa:	90 70       	andi	r25, 0x00	; 0
    1fac:	00 97       	sbiw	r24, 0x00	; 0
    1fae:	91 f0       	breq	.+36     	; 0x1fd4 <vfprintf+0x37a>
    1fb0:	81 fc       	sbrc	r8, 1
    1fb2:	02 c0       	rjmp	.+4      	; 0x1fb8 <vfprintf+0x35e>
    1fb4:	80 e2       	ldi	r24, 0x20	; 32
    1fb6:	01 c0       	rjmp	.+2      	; 0x1fba <vfprintf+0x360>
    1fb8:	8b e2       	ldi	r24, 0x2B	; 43
    1fba:	07 fd       	sbrc	r16, 7
    1fbc:	8d e2       	ldi	r24, 0x2D	; 45
    1fbe:	90 e0       	ldi	r25, 0x00	; 0
    1fc0:	b3 01       	movw	r22, r6
    1fc2:	0e 94 21 10 	call	0x2042	; 0x2042 <fputc>
    1fc6:	06 c0       	rjmp	.+12     	; 0x1fd4 <vfprintf+0x37a>
    1fc8:	80 e3       	ldi	r24, 0x30	; 48
    1fca:	90 e0       	ldi	r25, 0x00	; 0
    1fcc:	b3 01       	movw	r22, r6
    1fce:	0e 94 21 10 	call	0x2042	; 0x2042 <fputc>
    1fd2:	fa 94       	dec	r15
    1fd4:	df 14       	cp	r13, r15
    1fd6:	c0 f3       	brcs	.-16     	; 0x1fc8 <vfprintf+0x36e>
    1fd8:	da 94       	dec	r13
    1fda:	f2 01       	movw	r30, r4
    1fdc:	ed 0d       	add	r30, r13
    1fde:	f1 1d       	adc	r31, r1
    1fe0:	80 81       	ld	r24, Z
    1fe2:	90 e0       	ldi	r25, 0x00	; 0
    1fe4:	b3 01       	movw	r22, r6
    1fe6:	0e 94 21 10 	call	0x2042	; 0x2042 <fputc>
    1fea:	dd 20       	and	r13, r13
    1fec:	a9 f7       	brne	.-22     	; 0x1fd8 <vfprintf+0x37e>
    1fee:	06 c0       	rjmp	.+12     	; 0x1ffc <vfprintf+0x3a2>
    1ff0:	80 e2       	ldi	r24, 0x20	; 32
    1ff2:	90 e0       	ldi	r25, 0x00	; 0
    1ff4:	b3 01       	movw	r22, r6
    1ff6:	0e 94 21 10 	call	0x2042	; 0x2042 <fputc>
    1ffa:	ea 94       	dec	r14
    1ffc:	ee 20       	and	r14, r14
    1ffe:	c1 f7       	brne	.-16     	; 0x1ff0 <vfprintf+0x396>
    2000:	40 ce       	rjmp	.-896    	; 0x1c82 <vfprintf+0x28>
    2002:	f3 01       	movw	r30, r6
    2004:	86 81       	ldd	r24, Z+6	; 0x06
    2006:	97 81       	ldd	r25, Z+7	; 0x07
    2008:	02 c0       	rjmp	.+4      	; 0x200e <vfprintf+0x3b4>
    200a:	8f ef       	ldi	r24, 0xFF	; 255
    200c:	9f ef       	ldi	r25, 0xFF	; 255
    200e:	2d 96       	adiw	r28, 0x0d	; 13
    2010:	e2 e1       	ldi	r30, 0x12	; 18
    2012:	0c 94 c7 10 	jmp	0x218e	; 0x218e <__epilogue_restores__>

00002016 <strnlen_P>:
    2016:	fc 01       	movw	r30, r24
    2018:	05 90       	lpm	r0, Z+
    201a:	61 50       	subi	r22, 0x01	; 1
    201c:	70 40       	sbci	r23, 0x00	; 0
    201e:	01 10       	cpse	r0, r1
    2020:	d8 f7       	brcc	.-10     	; 0x2018 <strnlen_P+0x2>
    2022:	80 95       	com	r24
    2024:	90 95       	com	r25
    2026:	8e 0f       	add	r24, r30
    2028:	9f 1f       	adc	r25, r31
    202a:	08 95       	ret

0000202c <strnlen>:
    202c:	fc 01       	movw	r30, r24
    202e:	61 50       	subi	r22, 0x01	; 1
    2030:	70 40       	sbci	r23, 0x00	; 0
    2032:	01 90       	ld	r0, Z+
    2034:	01 10       	cpse	r0, r1
    2036:	d8 f7       	brcc	.-10     	; 0x202e <strnlen+0x2>
    2038:	80 95       	com	r24
    203a:	90 95       	com	r25
    203c:	8e 0f       	add	r24, r30
    203e:	9f 1f       	adc	r25, r31
    2040:	08 95       	ret

00002042 <fputc>:
    2042:	0f 93       	push	r16
    2044:	1f 93       	push	r17
    2046:	cf 93       	push	r28
    2048:	df 93       	push	r29
    204a:	8c 01       	movw	r16, r24
    204c:	eb 01       	movw	r28, r22
    204e:	8b 81       	ldd	r24, Y+3	; 0x03
    2050:	81 ff       	sbrs	r24, 1
    2052:	1b c0       	rjmp	.+54     	; 0x208a <fputc+0x48>
    2054:	82 ff       	sbrs	r24, 2
    2056:	0d c0       	rjmp	.+26     	; 0x2072 <fputc+0x30>
    2058:	2e 81       	ldd	r18, Y+6	; 0x06
    205a:	3f 81       	ldd	r19, Y+7	; 0x07
    205c:	8c 81       	ldd	r24, Y+4	; 0x04
    205e:	9d 81       	ldd	r25, Y+5	; 0x05
    2060:	28 17       	cp	r18, r24
    2062:	39 07       	cpc	r19, r25
    2064:	64 f4       	brge	.+24     	; 0x207e <fputc+0x3c>
    2066:	e8 81       	ld	r30, Y
    2068:	f9 81       	ldd	r31, Y+1	; 0x01
    206a:	01 93       	st	Z+, r16
    206c:	f9 83       	std	Y+1, r31	; 0x01
    206e:	e8 83       	st	Y, r30
    2070:	06 c0       	rjmp	.+12     	; 0x207e <fputc+0x3c>
    2072:	e8 85       	ldd	r30, Y+8	; 0x08
    2074:	f9 85       	ldd	r31, Y+9	; 0x09
    2076:	80 2f       	mov	r24, r16
    2078:	09 95       	icall
    207a:	00 97       	sbiw	r24, 0x00	; 0
    207c:	31 f4       	brne	.+12     	; 0x208a <fputc+0x48>
    207e:	8e 81       	ldd	r24, Y+6	; 0x06
    2080:	9f 81       	ldd	r25, Y+7	; 0x07
    2082:	01 96       	adiw	r24, 0x01	; 1
    2084:	9f 83       	std	Y+7, r25	; 0x07
    2086:	8e 83       	std	Y+6, r24	; 0x06
    2088:	02 c0       	rjmp	.+4      	; 0x208e <fputc+0x4c>
    208a:	0f ef       	ldi	r16, 0xFF	; 255
    208c:	1f ef       	ldi	r17, 0xFF	; 255
    208e:	c8 01       	movw	r24, r16
    2090:	df 91       	pop	r29
    2092:	cf 91       	pop	r28
    2094:	1f 91       	pop	r17
    2096:	0f 91       	pop	r16
    2098:	08 95       	ret

0000209a <__ultoa_invert>:
    209a:	fa 01       	movw	r30, r20
    209c:	aa 27       	eor	r26, r26
    209e:	28 30       	cpi	r18, 0x08	; 8
    20a0:	51 f1       	breq	.+84     	; 0x20f6 <__ultoa_invert+0x5c>
    20a2:	20 31       	cpi	r18, 0x10	; 16
    20a4:	81 f1       	breq	.+96     	; 0x2106 <__ultoa_invert+0x6c>
    20a6:	e8 94       	clt
    20a8:	6f 93       	push	r22
    20aa:	6e 7f       	andi	r22, 0xFE	; 254
    20ac:	6e 5f       	subi	r22, 0xFE	; 254
    20ae:	7f 4f       	sbci	r23, 0xFF	; 255
    20b0:	8f 4f       	sbci	r24, 0xFF	; 255
    20b2:	9f 4f       	sbci	r25, 0xFF	; 255
    20b4:	af 4f       	sbci	r26, 0xFF	; 255
    20b6:	b1 e0       	ldi	r27, 0x01	; 1
    20b8:	3e d0       	rcall	.+124    	; 0x2136 <__ultoa_invert+0x9c>
    20ba:	b4 e0       	ldi	r27, 0x04	; 4
    20bc:	3c d0       	rcall	.+120    	; 0x2136 <__ultoa_invert+0x9c>
    20be:	67 0f       	add	r22, r23
    20c0:	78 1f       	adc	r23, r24
    20c2:	89 1f       	adc	r24, r25
    20c4:	9a 1f       	adc	r25, r26
    20c6:	a1 1d       	adc	r26, r1
    20c8:	68 0f       	add	r22, r24
    20ca:	79 1f       	adc	r23, r25
    20cc:	8a 1f       	adc	r24, r26
    20ce:	91 1d       	adc	r25, r1
    20d0:	a1 1d       	adc	r26, r1
    20d2:	6a 0f       	add	r22, r26
    20d4:	71 1d       	adc	r23, r1
    20d6:	81 1d       	adc	r24, r1
    20d8:	91 1d       	adc	r25, r1
    20da:	a1 1d       	adc	r26, r1
    20dc:	20 d0       	rcall	.+64     	; 0x211e <__ultoa_invert+0x84>
    20de:	09 f4       	brne	.+2      	; 0x20e2 <__ultoa_invert+0x48>
    20e0:	68 94       	set
    20e2:	3f 91       	pop	r19
    20e4:	2a e0       	ldi	r18, 0x0A	; 10
    20e6:	26 9f       	mul	r18, r22
    20e8:	11 24       	eor	r1, r1
    20ea:	30 19       	sub	r19, r0
    20ec:	30 5d       	subi	r19, 0xD0	; 208
    20ee:	31 93       	st	Z+, r19
    20f0:	de f6       	brtc	.-74     	; 0x20a8 <__ultoa_invert+0xe>
    20f2:	cf 01       	movw	r24, r30
    20f4:	08 95       	ret
    20f6:	46 2f       	mov	r20, r22
    20f8:	47 70       	andi	r20, 0x07	; 7
    20fa:	40 5d       	subi	r20, 0xD0	; 208
    20fc:	41 93       	st	Z+, r20
    20fe:	b3 e0       	ldi	r27, 0x03	; 3
    2100:	0f d0       	rcall	.+30     	; 0x2120 <__ultoa_invert+0x86>
    2102:	c9 f7       	brne	.-14     	; 0x20f6 <__ultoa_invert+0x5c>
    2104:	f6 cf       	rjmp	.-20     	; 0x20f2 <__ultoa_invert+0x58>
    2106:	46 2f       	mov	r20, r22
    2108:	4f 70       	andi	r20, 0x0F	; 15
    210a:	40 5d       	subi	r20, 0xD0	; 208
    210c:	4a 33       	cpi	r20, 0x3A	; 58
    210e:	18 f0       	brcs	.+6      	; 0x2116 <__ultoa_invert+0x7c>
    2110:	49 5d       	subi	r20, 0xD9	; 217
    2112:	31 fd       	sbrc	r19, 1
    2114:	40 52       	subi	r20, 0x20	; 32
    2116:	41 93       	st	Z+, r20
    2118:	02 d0       	rcall	.+4      	; 0x211e <__ultoa_invert+0x84>
    211a:	a9 f7       	brne	.-22     	; 0x2106 <__ultoa_invert+0x6c>
    211c:	ea cf       	rjmp	.-44     	; 0x20f2 <__ultoa_invert+0x58>
    211e:	b4 e0       	ldi	r27, 0x04	; 4
    2120:	a6 95       	lsr	r26
    2122:	97 95       	ror	r25
    2124:	87 95       	ror	r24
    2126:	77 95       	ror	r23
    2128:	67 95       	ror	r22
    212a:	ba 95       	dec	r27
    212c:	c9 f7       	brne	.-14     	; 0x2120 <__ultoa_invert+0x86>
    212e:	00 97       	sbiw	r24, 0x00	; 0
    2130:	61 05       	cpc	r22, r1
    2132:	71 05       	cpc	r23, r1
    2134:	08 95       	ret
    2136:	9b 01       	movw	r18, r22
    2138:	ac 01       	movw	r20, r24
    213a:	0a 2e       	mov	r0, r26
    213c:	06 94       	lsr	r0
    213e:	57 95       	ror	r21
    2140:	47 95       	ror	r20
    2142:	37 95       	ror	r19
    2144:	27 95       	ror	r18
    2146:	ba 95       	dec	r27
    2148:	c9 f7       	brne	.-14     	; 0x213c <__ultoa_invert+0xa2>
    214a:	62 0f       	add	r22, r18
    214c:	73 1f       	adc	r23, r19
    214e:	84 1f       	adc	r24, r20
    2150:	95 1f       	adc	r25, r21
    2152:	a0 1d       	adc	r26, r0
    2154:	08 95       	ret

00002156 <__prologue_saves__>:
    2156:	2f 92       	push	r2
    2158:	3f 92       	push	r3
    215a:	4f 92       	push	r4
    215c:	5f 92       	push	r5
    215e:	6f 92       	push	r6
    2160:	7f 92       	push	r7
    2162:	8f 92       	push	r8
    2164:	9f 92       	push	r9
    2166:	af 92       	push	r10
    2168:	bf 92       	push	r11
    216a:	cf 92       	push	r12
    216c:	df 92       	push	r13
    216e:	ef 92       	push	r14
    2170:	ff 92       	push	r15
    2172:	0f 93       	push	r16
    2174:	1f 93       	push	r17
    2176:	cf 93       	push	r28
    2178:	df 93       	push	r29
    217a:	cd b7       	in	r28, 0x3d	; 61
    217c:	de b7       	in	r29, 0x3e	; 62
    217e:	ca 1b       	sub	r28, r26
    2180:	db 0b       	sbc	r29, r27
    2182:	0f b6       	in	r0, 0x3f	; 63
    2184:	f8 94       	cli
    2186:	de bf       	out	0x3e, r29	; 62
    2188:	0f be       	out	0x3f, r0	; 63
    218a:	cd bf       	out	0x3d, r28	; 61
    218c:	09 94       	ijmp

0000218e <__epilogue_restores__>:
    218e:	2a 88       	ldd	r2, Y+18	; 0x12
    2190:	39 88       	ldd	r3, Y+17	; 0x11
    2192:	48 88       	ldd	r4, Y+16	; 0x10
    2194:	5f 84       	ldd	r5, Y+15	; 0x0f
    2196:	6e 84       	ldd	r6, Y+14	; 0x0e
    2198:	7d 84       	ldd	r7, Y+13	; 0x0d
    219a:	8c 84       	ldd	r8, Y+12	; 0x0c
    219c:	9b 84       	ldd	r9, Y+11	; 0x0b
    219e:	aa 84       	ldd	r10, Y+10	; 0x0a
    21a0:	b9 84       	ldd	r11, Y+9	; 0x09
    21a2:	c8 84       	ldd	r12, Y+8	; 0x08
    21a4:	df 80       	ldd	r13, Y+7	; 0x07
    21a6:	ee 80       	ldd	r14, Y+6	; 0x06
    21a8:	fd 80       	ldd	r15, Y+5	; 0x05
    21aa:	0c 81       	ldd	r16, Y+4	; 0x04
    21ac:	1b 81       	ldd	r17, Y+3	; 0x03
    21ae:	aa 81       	ldd	r26, Y+2	; 0x02
    21b0:	b9 81       	ldd	r27, Y+1	; 0x01
    21b2:	ce 0f       	add	r28, r30
    21b4:	d1 1d       	adc	r29, r1
    21b6:	0f b6       	in	r0, 0x3f	; 63
    21b8:	f8 94       	cli
    21ba:	de bf       	out	0x3e, r29	; 62
    21bc:	0f be       	out	0x3f, r0	; 63
    21be:	cd bf       	out	0x3d, r28	; 61
    21c0:	ed 01       	movw	r28, r26
    21c2:	08 95       	ret

000021c4 <_exit>:
    21c4:	f8 94       	cli

000021c6 <__stop_program>:
    21c6:	ff cf       	rjmp	.-2      	; 0x21c6 <__stop_program>
